Certificate:
    Data:
        Version: 3 (0x2)
        Serial Number: 3 (0x3)
    Signature Algorithm: sha256WithRSAEncryption
        Issuer: C=US, ST=SambaState, L=SambaCity, O=SambaSelfTesting, OU=CA Administration, CN=CA of samba.example.com/emailAddress=ca-samba.example.com@samba.example.com
        Validity
            Not Before: Mar 18 11:46:04 2016 GMT
            Not After : Mar 13 11:46:04 2036 GMT
        Subject: C=US, ST=SambaState, O=SambaSelfTesting, OU=Users, CN=administrator@plugindom.samba.example.com/emailAddress=administrator@plugindom.samba.example.com
        Subject Public Key Info:
            Public Key Algorithm: rsaEncryption
                Public-Key: (2048 bit)
                Modulus:
                    00:bc:1c:03:de:e6:1e:17:1a:85:5b:13:b8:a9:b1:
                    26:36:b2:7c:4e:d2:8a:3f:20:37:ea:57:f6:46:38:
                    9e:86:26:cd:73:cc:6d:a6:a1:4e:21:29:89:f0:7e:
                    75:a5:8d:5f:92:42:9d:88:81:21:66:8c:2f:1b:f5:
                    14:54:6b:ed:18:c9:a7:a6:a7:16:07:10:27:77:31:
                    d4:90:a5:cd:a2:9c:96:c0:18:92:76:f9:12:40:ec:
                    51:54:12:36:ce:c5:02:fd:9e:b9:80:4c:81:e9:7e:
                    5b:59:2d:4a:7c:0a:35:0c:0f:85:a0:b9:93:23:77:
                    35:8b:de:18:e7:5d:3e:25:27:cc:0e:f0:0f:ab:40:
                    a5:08:02:84:f1:cf:9b:66:37:12:37:02:4c:03:43:
                    04:d5:a9:ad:6e:d2:88:c4:85:fa:f3:9f:f2:5d:6d:
                    1f:f4:54:a1:d7:4a:93:c5:42:e9:cb:da:ff:bd:70:
                    8b:27:75:4d:77:b0:ea:97:f1:80:75:84:57:5e:1e:
                    e5:a5:d9:89:28:e8:44:a0:77:66:08:64:51:c0:4a:
                    d0:06:c7:b1:b4:1e:6b:0a:94:a0:61:5a:9e:7b:5b:
                    d6:48:ab:1e:7e:65:43:d9:e0:91:51:f5:2b:43:99:
                    a1:94:bb:7f:aa:2b:e9:54:69:c4:e3:f1:e0:38:77:
                    9f:f9
                Exponent: 65537 (0x10001)
        X509v3 extensions:
            X509v3 Basic Constraints: 
                CA:FALSE
            X509v3 CRL Distribution Points: 

                Full Name:
                  URI:http://www.samba.example.com/crls/CA-samba.example.com-crl.crl

            Netscape Cert Type: 
                SSL Client, S/MIME
            X509v3 Key Usage: 
                Digital Signature, Non Repudiation, Key Encipherment
            Netscape Comment: 
                Smart Card Login Certificate for administrator@plugindom.samba.example.com
            X509v3 Subject Key Identifier: 
                1D:D6:74:30:69:F7:2D:5F:81:E4:83:F1:7E:B0:08:F3:9C:06:41:E4
            X509v3 Authority Key Identifier: 
                keyid:46:87:86:C2:E7:19:CF:16:4C:0C:62:CB:73:7F:FD:8F:19:E4:B5:42

            X509v3 Subject Alternative Name: 
                email:administrator@plugindom.samba.example.com, othername:<unsupported>
            X509v3 Issuer Alternative Name: 
                email:ca-samba.example.com@samba.example.com
            Netscape CA Revocation Url: 
                http://www.samba.example.com/crls/CA-samba.example.com-crl.crl
            X509v3 Extended Key Usage: 
                TLS Web Client Authentication, scardLogin
    Signature Algorithm: sha256WithRSAEncryption
         2c:23:ad:2f:a2:83:57:e8:42:b3:27:43:7f:aa:9d:99:ae:9d:
         20:7f:0a:b0:f4:32:33:ad:ee:fe:33:aa:20:09:8e:4b:4b:0d:
         12:b1:d5:0c:29:bc:13:aa:04:49:ce:2c:b7:01:e7:68:e9:ef:
         77:a9:dd:b6:9a:0a:11:bf:88:46:0c:09:7b:ac:6b:ed:6a:8e:
         72:fc:d8:28:46:21:48:8f:27:04:67:2c:17:2b:33:f7:8c:18:
         ca:c6:3d:0e:76:36:fe:6b:03:77:eb:97:28:a9:64:4b:46:32:
         38:23:f5:6f:d9:43:b6:4e:c6:b5:14:0c:c5:09:0c:55:94:06:
         92:26:10:66:44:90:64:fa:e8:ae:75:43:a0:bd:14:9a:31:37:
         87:30:b7:61:87:65:40:b7:c1:2e:94:4c:0a:ed:4c:c2:75:2d:
         60:57:f9:b3:cf:b2:ef:19:c3:96:a6:25:d3:1d:92:16:9e:af:
         e4:e4:ca:87:77:4b:13:31:48:de:99:1a:9c:ea:9a:27:96:bc:
         16:48:af:83:41:8c:56:d4:9c:6f:c5:9a:31:c9:35:3a:a5:c9:
         cc:7f:9f:3d:c2:56:03:6b:df:b3:ac:c0:47:ce:53:5c:bd:38:
         7d:57:d4:c3:59:c9:b7:0a:89:ac:c2:15:a4:4d:50:84:67:91:
         59:6d:28:a1:78:0c:2e:20:39:06:9d:0c:2d:a7:c4:dc:98:eb:
         4f:b4:58:6d:6a:ba:b0:5a:e9:87:7f:c9:11:a5:7c:b7:91:49:
         f5:0a:e7:f9:c9:7c:ba:30:3d:95:a7:8a:66:47:ed:49:53:74:
         85:e3:63:d5:38:34:76:e7:3e:2c:74:b6:58:23:5b:93:be:eb:
         b2:98:9c:7e:bd:0e:5f:fa:98:4d:76:13:b7:5d:22:bc:76:5b:
         13:88:8d:84:8b:fc:a4:25:99:82:3b:1e:2e:58:2a:8f:d7:36:
         ec:fb:d6:1e:76:b8:0a:31:fa:56:18:38:96:d5:0e:d7:dd:ac:
         70:a6:c1:80:0e:9c:9b:44:e7:e8:b6:8a:64:8d:7c:9c:57:6a:
         90:ce:2b:c1:c6:da:f5:68:1d:c4:37:58:70:f7:ba:3d:4f:2e:
         6c:a6:a2:3b:12:1e:1c:ea:99:bb:ac:54:57:18:c0:d3:7f:8a:
         c8:7e:73:8e:b1:06:6b:55:57:e3:4f:46:9e:db:50:55:1d:c9:
         61:99:de:31:79:75:bc:b1:d6:fe:17:b2:fd:cb:36:3a:12:6b:
         0f:c8:b0:a6:be:e1:a4:de:5b:76:02:bc:e4:9b:f9:df:e1:ed:
         bb:dc:40:62:1b:05:34:c0:53:10:47:ac:c7:18:6e:7c:17:37:
         86:f3:84:91:17:00:f3:69:45:3f:fe:fe:3c:c6:b2:13:82:70:
         fa:fc:1b:51:d0:56:19:b0:9e:9f:1d:27:75:27:81:f1:85:b2:
         15:7f:ac:f1:8d:de:fe:3a:57:0f:13:4f:d8:7c:9d:f3:49:a2:
         fe:5a:e8:91:8c:38:c2:4b:9a:f3:49:0c:92:70:62:8e:ed:91:
         8a:3e:da:ab:96:d6:46:5f:25:e6:82:cd:29:03:20:83:3b:63:
         c2:5b:34:92:12:98:13:b4:56:2d:1d:cf:4b:22:f8:40:fb:7f:
         ae:3e:49:52:54:de:02:95:0a:f2:22:6f:e1:2c:bd:a4:08:8d:
         ec:83:79:4a:a8:ee:27:0e:b8:6a:65:4f:ba:be:8a:94:02:ad:
         ef:72:3e:07:52:52:51:58:6c:e7:20:e4:81:49:da:7f:f1:dd:
         ea:2b:56:f4:29:75:16:df:b8:19:da:63:b2:a0:d3:93:5d:a6:
         81:f4:2d:d3:fb:cb:7c:e3:04:8e:38:9d:66:9d:29:57:28:22:
         e3:7a:5b:48:cf:6e:79:32:24:6e:e4:dc:7a:05:22:2c:a4:0e:
         30:74:41:cd:34:ef:3d:33:4e:01:3e:65:25:01:cc:5d:73:5a:
         10:d6:df:45:24:93:69:fa:d3:ab:7f:c8:b7:5a:86:1c:88:be:
         32:05:2f:f8:2a:26:02:f5:cc:30:4a:dd:97:0a:3a:db:c0:0c:
         67:36:90:9b:f9:2c:e3:d0:04:26:46:c1:a3:4e:a0:46:be:f3:
         8b:91:9c:d5:f0:32:09:c5:f0:a3:51:bf:05:70:83:51:25:ba:
         6f:8c:25:ea:30:96:52:e6:53:64:38:ac:0e:de:54:e7:5f:da:
         30:e0:39:9b:d8:64:d5:3b:70:4f:9a:27:96:36:98:9b:f5:07:
         0b:4a:89:40:06:18:9d:6d:e2:6c:40:51:af:83:66:73:87:56:
         5c:fa:38:96:a8:dd:4a:28:4a:82:d2:09:0f:e4:77:db:09:ff:
         50:34:c9:dc:0e:27:fe:94:1d:65:71:56:59:19:1d:62:a2:1a:
         93:bc:25:7b:be:6e:06:2a:e6:ce:ef:fa:cf:30:a2:e6:ce:26:
         28:e5:eb:6e:03:64:3c:8f:65:ce:32:33:08:ab:dc:45:69:78:
         4e:d3:b5:87:4f:03:48:e0:c3:24:48:cf:74:79:62:1e:b1:e0:
         39:12:02:08:db:fe:f8:78:a7:43:7f:e1:e8:86:b4:04:3c:e1:
         fe:26:71:75:9d:32:4c:3a:ad:84:cb:e6:be:f5:7f:20:9d:04:
         4f:ba:41:d1:78:4d:f7:3a:93:89:ef:a4:4e:b4:83:4c:92:70:
         39:1d:21:de:c8:4c:9b:5d:26:55:1b:ad:93:48:79:19
-----BEGIN CERTIFICATE-----
MIIJLzCCBRegAwIBAgIBAzANBgkqhkiG9w0BAQsFADCBxjELMAkGA1UEBhMCVVMx
EzARBgNVBAgMClNhbWJhU3RhdGUxEjAQBgNVBAcMCVNhbWJhQ2l0eTEZMBcGA1UE
CgwQU2FtYmFTZWxmVGVzdGluZzEaMBgGA1UECwwRQ0EgQWRtaW5pc3RyYXRpb24x
IDAeBgNVBAMMF0NBIG9mIHNhbWJhLmV4YW1wbGUuY29tMTUwMwYJKoZIhvcNAQkB
FiZjYS1zYW1iYS5leGFtcGxlLmNvbUBzYW1iYS5leGFtcGxlLmNvbTAeFw0xNjAz
MTgxMTQ2MDRaFw0zNjAzMTMxMTQ2MDRaMIG7MQswCQYDVQQGEwJVUzETMBEGA1UE
CAwKU2FtYmFTdGF0ZTEZMBcGA1UECgwQU2FtYmFTZWxmVGVzdGluZzEOMAwGA1UE
CwwFVXNlcnMxMjAwBgNVBAMMKWFkbWluaXN0cmF0b3JAcGx1Z2luZG9tLnNhbWJh
LmV4YW1wbGUuY29tMTgwNgYJKoZIhvcNAQkBFilhZG1pbmlzdHJhdG9yQHBsdWdp
bmRvbS5zYW1iYS5leGFtcGxlLmNvbTCCASIwDQYJKoZIhvcNAQEBBQADggEPADCC
AQoCggEBALwcA97mHhcahVsTuKmxJjayfE7Sij8gN+pX9kY4noYmzXPMbaahTiEp
ifB+daWNX5JCnYiBIWaMLxv1FFRr7RjJp6anFgcQJ3cx1JClzaKclsAYknb5EkDs
UVQSNs7FAv2euYBMgel+W1ktSnwKNQwPhaC5kyN3NYveGOddPiUnzA7wD6tApQgC
hPHPm2Y3EjcCTANDBNWprW7SiMSF+vOf8l1tH/RUoddKk8VC6cva/71wiyd1TXew
6pfxgHWEV14e5aXZiSjoRKB3ZghkUcBK0AbHsbQeawqUoGFanntb1kirHn5lQ9ng
kVH1K0OZoZS7f6or6VRpxOPx4Dh3n/kCAwEAAaOCAi8wggIrMAkGA1UdEwQCMAAw
TwYDVR0fBEgwRjBEoEKgQIY+aHR0cDovL3d3dy5zYW1iYS5leGFtcGxlLmNvbS9j
cmxzL0NBLXNhbWJhLmV4YW1wbGUuY29tLWNybC5jcmwwEQYJYIZIAYb4QgEBBAQD
AgWgMAsGA1UdDwQEAwIF4DBZBglghkgBhvhCAQ0ETBZKU21hcnQgQ2FyZCBMb2dp
biBDZXJ0aWZpY2F0ZSBmb3IgYWRtaW5pc3RyYXRvckBwbHVnaW5kb20uc2FtYmEu
ZXhhbXBsZS5jb20wHQYDVR0OBBYEFB3WdDBp9y1fgeSD8X6wCPOcBkHkMB8GA1Ud
IwQYMBaAFEaHhsLnGc8WTAxiy3N//Y8Z5LVCMG8GA1UdEQRoMGaBKWFkbWluaXN0
cmF0b3JAcGx1Z2luZG9tLnNhbWJhLmV4YW1wbGUuY29toDkGCisGAQQBgjcUAgOg
KwwpYWRtaW5pc3RyYXRvckBwbHVnaW5kb20uc2FtYmEuZXhhbXBsZS5jb20wMQYD
VR0SBCowKIEmY2Etc2FtYmEuZXhhbXBsZS5jb21Ac2FtYmEuZXhhbXBsZS5jb20w
TQYJYIZIAYb4QgEEBEAWPmh0dHA6Ly93d3cuc2FtYmEuZXhhbXBsZS5jb20vY3Js
cy9DQS1zYW1iYS5leGFtcGxlLmNvbS1jcmwuY3JsMB8GA1UdJQQYMBYGCCsGAQUF
BwMCBgorBgEEAYI3FAICMA0GCSqGSIb3DQEBCwUAA4IEAQAsI60vooNX6EKzJ0N/
qp2Zrp0gfwqw9DIzre7+M6ogCY5LSw0SsdUMKbwTqgRJziy3Aedo6e93qd22mgoR
v4hGDAl7rGvtao5y/NgoRiFIjycEZywXKzP3jBjKxj0Odjb+awN365coqWRLRjI4
I/Vv2UO2Tsa1FAzFCQxVlAaSJhBmRJBk+uiudUOgvRSaMTeHMLdhh2VAt8EulEwK
7UzCdS1gV/mzz7LvGcOWpiXTHZIWnq/k5MqHd0sTMUjemRqc6ponlrwWSK+DQYxW
1JxvxZoxyTU6pcnMf589wlYDa9+zrMBHzlNcvTh9V9TDWcm3ComswhWkTVCEZ5FZ
bSiheAwuIDkGnQwtp8TcmOtPtFhtarqwWumHf8kRpXy3kUn1Cuf5yXy6MD2Vp4pm
R+1JU3SF42PVODR25z4sdLZYI1uTvuuymJx+vQ5f+phNdhO3XSK8dlsTiI2Ei/yk
JZmCOx4uWCqP1zbs+9YedrgKMfpWGDiW1Q7X3axwpsGADpybROfotopkjXycV2qQ
zivBxtr1aB3EN1hw97o9Ty5spqI7Eh4c6pm7rFRXGMDTf4rIfnOOsQZrVVfjT0ae
21BVHclhmd4xeXW8sdb+F7L9yzY6EmsPyLCmvuGk3lt2Arzkm/nf4e273EBiGwU0
wFMQR6zHGG58FzeG84SRFwDzaUU//v48xrITgnD6/BtR0FYZsJ6fHSd1J4HxhbIV
f6zxjd7+OlcPE0/YfJ3zSaL+WuiRjDjCS5rzSQyScGKO7ZGKPtqrltZGXyXmgs0p
AyCDO2PCWzSSEpgTtFYtHc9LIvhA+3+uPklSVN4ClQryIm/hLL2kCI3sg3lKqO4n
DrhqZU+6voqUAq3vcj4HUlJRWGznIOSBSdp/8d3qK1b0KXUW37gZ2mOyoNOTXaaB
9C3T+8t84wSOOJ1mnSlXKCLjeltIz255MiRu5Nx6BSIspA4wdEHNNO89M04BPmUl
Acxdc1oQ1t9FJJNp+tOrf8i3WoYciL4yBS/4KiYC9cwwSt2XCjrbwAxnNpCb+Szj
0AQmRsGjTqBGvvOLkZzV8DIJxfCjUb8FcINRJbpvjCXqMJZS5lNkOKwO3lTnX9ow
4Dmb2GTVO3BPmieWNpib9QcLSolABhidbeJsQFGvg2Zzh1Zc+jiWqN1KKEqC0gkP
5HfbCf9QNMncDif+lB1lcVZZGR1iohqTvCV7vm4GKubO7/rPMKLmziYo5etuA2Q8
j2XOMjMIq9xFaXhO07WHTwNI4MMkSM90eWIeseA5EgII2/74eKdDf+HohrQEPOH+
JnF1nTJMOq2Ey+a+9X8gnQRPukHReE33OpOJ76ROtINMknA5HSHeyEybXSZVG62T
SHkZ
-----END CERTIFICATE-----
