Certificate:
    Data:
        Version: 3 (0x2)
        Serial Number: 0 (0x0)
    Signature Algorithm: sha256WithRSAEncryption
        Issuer: C=US, ST=SambaState, L=SambaCity, O=SambaSelfTesting, OU=CA Administration, CN=CA of samba.example.com/emailAddress=ca-samba.example.com@samba.example.com
        Validity
            Not Before: Mar 18 11:44:51 2016 GMT
            Not After : Mar 13 11:44:51 2036 GMT
        Subject: C=US, ST=SambaState, O=SambaSelfTesting, OU=Domain Controllers, CN=localdc.samba.example.com/emailAddress=ca-samba.example.com@samba.example.com
        Subject Public Key Info:
            Public Key Algorithm: rsaEncryption
                Public-Key: (4096 bit)
                Modulus:
                    00:e6:5f:4f:b7:ba:64:00:94:b2:0b:a0:29:3b:66:
                    1f:28:85:cd:fa:bb:d7:de:18:8e:e2:4b:14:ab:33:
                    17:4c:5f:8b:84:0e:b2:19:cd:32:ae:2a:8e:fc:8c:
                    4b:51:c0:d9:2e:de:7f:d2:d3:7a:83:9d:95:66:6d:
                    e0:08:1a:25:10:2f:d3:27:bf:c7:ae:3a:f9:33:e4:
                    65:87:af:a2:80:87:cc:f7:69:a3:4d:8d:65:30:81:
                    b3:20:ca:3f:54:28:b7:d9:1f:fe:90:92:8f:34:0b:
                    0c:44:eb:48:b1:54:3e:66:29:c3:aa:e8:f4:f7:2d:
                    6a:0c:cc:c2:31:f5:35:76:48:ba:82:c8:d0:06:42:
                    2f:cd:4e:3f:20:b5:fc:f6:72:fc:0e:fe:92:a3:97:
                    16:c7:9b:40:e4:ca:5c:47:39:bd:b1:4c:09:e3:a7:
                    42:c2:0d:a8:b5:3e:f9:dc:7d:39:05:4d:c8:5f:c8:
                    69:dc:85:5c:3c:9a:23:07:bc:30:33:38:a6:c4:03:
                    07:59:e3:97:55:84:61:65:52:80:60:fa:77:b6:76:
                    5a:31:32:51:a6:22:98:b5:ab:dc:67:51:23:76:08:
                    09:8e:38:1c:75:0b:9c:59:43:1f:41:04:dd:60:69:
                    d9:fa:31:b8:16:5e:b8:f8:27:82:16:8e:c6:ce:d9:
                    56:01:68:e4:5f:f8:2d:0f:31:85:27:37:92:fa:4d:
                    0b:b3:f3:6a:f4:be:30:15:0d:8e:00:b5:87:f8:67:
                    5c:ae:6a:25:59:23:8c:bf:a5:02:eb:b7:cc:0c:fc:
                    bc:3b:bd:80:08:fc:a3:86:5f:2d:ec:79:05:8e:e4:
                    d2:d2:c4:a6:ab:84:e3:da:aa:58:c3:db:8b:28:4b:
                    15:49:79:7e:58:19:8b:7d:3e:87:9e:79:28:15:e1:
                    8a:ad:75:10:0b:71:1e:8f:e8:1f:cd:d4:9b:11:e1:
                    47:26:1a:f8:d4:a3:0b:7d:08:de:a6:f1:7a:93:26:
                    fb:bd:78:a3:60:8a:8b:29:fe:f8:9f:7b:5e:d7:64:
                    03:e1:58:23:ac:23:35:3f:4f:b9:f7:3d:d6:d7:64:
                    1f:0b:6b:11:9b:10:1f:2b:49:b2:f9:63:e8:cf:bf:
                    ac:da:9e:b7:f7:12:91:e4:01:77:9a:7f:31:c8:b6:
                    af:7d:5e:4e:55:ee:3d:2a:f9:0d:56:11:49:e3:f6:
                    09:8c:2f:d0:06:eb:f4:f7:65:9f:db:85:0a:57:7e:
                    9a:b8:1a:60:11:18:d1:3d:1c:c0:53:65:9b:e8:00:
                    93:e4:91:61:b6:e8:7b:63:d3:d8:ec:70:8d:92:54:
                    12:8b:56:1f:cf:83:34:d5:44:86:cd:b6:0b:fc:95:
                    8f:f9:11
                Exponent: 65537 (0x10001)
        X509v3 extensions:
            X509v3 Basic Constraints: 
                CA:FALSE
            X509v3 CRL Distribution Points: 

                Full Name:
                  URI:http://www.samba.example.com/crls/CA-samba.example.com-crl.crl

            Netscape Cert Type: 
                SSL Server
            X509v3 Key Usage: 
                Digital Signature, Non Repudiation, Key Encipherment
            Netscape Comment: 
                Domain Controller Certificate localdc.samba.example.com
            X509v3 Subject Key Identifier: 
                CD:25:BC:9E:49:98:02:88:4F:A7:5C:4F:2D:68:B9:E3:61:9F:AE:2E
            X509v3 Authority Key Identifier: 
                keyid:46:87:86:C2:E7:19:CF:16:4C:0C:62:CB:73:7F:FD:8F:19:E4:B5:42

            X509v3 Subject Alternative Name: 
                DNS:localdc.samba.example.com, othername:<unsupported>
            X509v3 Issuer Alternative Name: 
                email:ca-samba.example.com@samba.example.com
            Netscape CA Revocation Url: 
                http://www.samba.example.com/crls/CA-samba.example.com-crl.crl
            X509v3 Extended Key Usage: 
                TLS Web Client Authentication, TLS Web Server Authentication, msKDC
    Signature Algorithm: sha256WithRSAEncryption
         15:c0:31:31:7f:65:7c:7c:a4:db:1c:23:1b:81:bf:e8:c8:ad:
         c0:2e:ce:c6:8e:3a:a2:d7:8f:ad:19:9a:e9:ea:72:bd:25:bc:
         26:3c:57:a7:53:4e:c5:24:a2:3c:70:59:48:9d:f5:df:2c:bd:
         b5:b4:71:fe:a6:58:15:eb:31:86:83:c9:7a:39:47:80:f1:9d:
         31:ed:e1:5a:26:3f:9c:be:06:45:93:96:d9:3b:7d:d1:9c:b2:
         ea:7b:a3:71:f0:9d:c7:a1:29:ba:38:eb:e4:be:bc:e9:9d:e8:
         e1:be:eb:57:5a:1e:d1:09:58:dc:77:04:85:48:ba:94:19:73:
         8f:3a:31:6d:3c:ec:37:a6:d7:94:25:e3:98:e9:3c:f6:85:c6:
         6a:8e:d5:cd:32:05:1f:76:b7:b0:5a:c5:45:c0:81:20:16:4f:
         e0:bb:e7:42:06:5c:6c:ff:e6:8a:73:7b:8c:1c:98:fe:2d:47:
         8a:e0:06:38:53:77:5b:6b:13:82:f4:a6:0b:c3:b2:88:2a:05:
         96:c8:04:66:cb:59:19:08:d4:9b:0f:1f:e3:3a:48:65:32:07:
         69:39:34:d4:a3:2e:d5:19:09:c7:07:d9:71:4d:62:81:fc:5a:
         be:f1:da:65:3a:24:1e:2c:40:c8:78:4a:bb:0a:4f:a4:3d:ab:
         3c:b9:22:fb:0b:5c:9f:09:95:76:6f:6b:53:3d:1f:ee:fd:3f:
         cd:be:7a:61:3e:08:3b:99:69:68:91:a9:9f:b8:4f:b8:c9:1f:
         d4:ed:86:61:aa:6f:4f:a8:6a:4d:b6:79:e9:af:37:d2:83:9b:
         f7:61:6a:65:f6:8c:f7:f9:3b:23:b6:cc:78:bf:16:ee:a0:50:
         1f:7e:38:7b:72:1b:62:ef:17:60:db:6f:c9:29:c1:c2:53:f7:
         e8:27:de:3e:22:da:f0:5f:ba:55:9f:57:6f:b9:8f:c4:7a:c5:
         72:9a:a3:95:cc:ac:fd:f3:a6:a9:da:d6:57:d3:28:7f:72:60:
         a8:5b:2f:c3:b1:07:c4:c7:af:d9:3c:a9:e9:78:e1:5a:0f:da:
         c9:d0:e6:5d:9a:bd:61:ef:1d:25:7f:54:08:aa:f2:6c:11:1e:
         a4:46:8e:9e:e2:79:c8:c2:dd:09:1b:62:27:e6:70:7a:e4:f3:
         66:db:57:30:ce:3f:27:f5:c6:c8:f2:3f:a1:bc:dd:ec:fe:3a:
         c4:b9:ad:21:73:d8:83:a5:9f:02:ba:d0:52:8a:f2:d5:25:63:
         15:82:38:25:e2:74:ce:a6:a5:32:9a:6c:52:33:ba:45:ba:01:
         16:14:5f:ce:66:89:9e:03:ed:8a:95:80:c4:cf:20:24:d4:c5:
         5b:e5:c3:51:62:57:1e:45:be:0a:47:24:b7:cb:a4:dd:6e:54:
         2c:f4:25:80:a3:85:a9:74:0c:c0:65:c9:f8:2f:9a:22:bc:85:
         c9:63:8a:08:f3:c9:1c:77:9b:a8:42:5a:45:dd:be:21:be:9d:
         e7:15:9b:67:19:6c:d3:da:9b:67:a8:1d:22:35:d4:16:89:ad:
         4c:c3:17:bb:9e:f5:e5:3b:a2:a6:81:34:e0:4c:36:be:bb:e5:
         a3:60:7d:28:30:82:db:99:ef:c6:19:43:d1:73:24:f0:8e:d1:
         6c:3b:cc:f8:cb:1a:14:79:67:07:ea:b5:47:08:bf:11:33:29:
         01:2e:fd:44:14:33:f6:36:65:8b:a8:f8:e6:0b:84:6d:a1:91:
         08:56:c1:5d:ca:12:b6:00:ba:9c:7e:7e:9b:26:3f:d3:dd:e1:
         2f:ae:f5:76:45:ed:a2:9b:b4:a1:a9:d6:b6:f5:7e:68:80:17:
         81:fb:ef:24:dc:84:de:38:20:45:34:6c:72:e5:d6:08:61:e7:
         dd:45:43:d2:06:2b:ae:d9:73:a1:fb:bb:04:3c:61:45:d3:9e:
         fc:45:c0:e3:db:02:ae:45:e3:de:d1:34:00:b0:1b:0f:ce:f8:
         33:0f:87:9c:9b:5d:49:11:7a:30:15:e3:9f:76:02:82:18:c2:
         a6:dd:25:a6:e0:84:1f:1d:0d:db:81:7c:df:a1:65:9b:5b:08:
         e0:4e:6d:4c:76:8a:0b:09:14:7c:e1:23:ad:18:4c:02:6b:e3:
         f4:e0:22:26:e1:30:7e:a5:59:22:5b:a5:73:5a:23:24:1f:1a:
         7b:e5:46:f7:0c:14:00:53:72:33:4d:c4:c4:59:3e:04:17:33:
         34:04:67:1e:cd:a0:e5:9f:85:87:77:f6:dd:03:f0:74:cf:56:
         e9:99:a8:95:3a:52:db:d1:61:72:91:60:9f:80:bf:22:26:da:
         d7:09:4e:df:81:30:dc:9b:b4:c1:c7:cb:97:93:bc:b7:93:a3:
         db:88:cc:5e:9f:39:94:57:a5:57:d6:cd:1b:12:a4:86:62:4f:
         b2:08:22:4e:d9:07:8e:27:06:82:d9:f1:ec:70:30:82:56:0c:
         f7:d9:56:bf:f1:7f:fd:65:90:8d:5e:d5:13:b3:31:89:5d:e8:
         df:35:2f:77:6b:b7:c7:e8:7d:89:f8:cf:9e:a5:1c:60:be:7c:
         6c:b7:0f:fa:8e:62:8e:b0:72:10:8a:04:6a:50:83:3a:38:dc:
         13:8b:89:8f:6c:0f:fc:3e:c7:36:15:37:78:5f:24:87:8a:70:
         cc:3e:5a:fc:88:78:19:70:89:65:a0:c7:47:67:f2:bc:1e:f5:
         04:e7:94:ba:74:ea:2a:a7:c1:26:b1:2e:ac:64:0b:fa
-----BEGIN CERTIFICATE-----
MIIJ6zCCBdOgAwIBAgIBADANBgkqhkiG9w0BAQsFADCBxjELMAkGA1UEBhMCVVMx
EzARBgNVBAgMClNhbWJhU3RhdGUxEjAQBgNVBAcMCVNhbWJhQ2l0eTEZMBcGA1UE
CgwQU2FtYmFTZWxmVGVzdGluZzEaMBgGA1UECwwRQ0EgQWRtaW5pc3RyYXRpb24x
IDAeBgNVBAMMF0NBIG9mIHNhbWJhLmV4YW1wbGUuY29tMTUwMwYJKoZIhvcNAQkB
FiZjYS1zYW1iYS5leGFtcGxlLmNvbUBzYW1iYS5leGFtcGxlLmNvbTAeFw0xNjAz
MTgxMTQ0NTFaFw0zNjAzMTMxMTQ0NTFaMIG1MQswCQYDVQQGEwJVUzETMBEGA1UE
CAwKU2FtYmFTdGF0ZTEZMBcGA1UECgwQU2FtYmFTZWxmVGVzdGluZzEbMBkGA1UE
CwwSRG9tYWluIENvbnRyb2xsZXJzMSIwIAYDVQQDDBlsb2NhbGRjLnNhbWJhLmV4
YW1wbGUuY29tMTUwMwYJKoZIhvcNAQkBFiZjYS1zYW1iYS5leGFtcGxlLmNvbUBz
YW1iYS5leGFtcGxlLmNvbTCCAiIwDQYJKoZIhvcNAQEBBQADggIPADCCAgoCggIB
AOZfT7e6ZACUsgugKTtmHyiFzfq7194YjuJLFKszF0xfi4QOshnNMq4qjvyMS1HA
2S7ef9LTeoOdlWZt4AgaJRAv0ye/x646+TPkZYevooCHzPdpo02NZTCBsyDKP1Qo
t9kf/pCSjzQLDETrSLFUPmYpw6ro9PctagzMwjH1NXZIuoLI0AZCL81OPyC1/PZy
/A7+kqOXFsebQOTKXEc5vbFMCeOnQsINqLU++dx9OQVNyF/IadyFXDyaIwe8MDM4
psQDB1njl1WEYWVSgGD6d7Z2WjEyUaYimLWr3GdRI3YICY44HHULnFlDH0EE3WBp
2foxuBZeuPgnghaOxs7ZVgFo5F/4LQ8xhSc3kvpNC7PzavS+MBUNjgC1h/hnXK5q
JVkjjL+lAuu3zAz8vDu9gAj8o4ZfLex5BY7k0tLEpquE49qqWMPbiyhLFUl5flgZ
i30+h555KBXhiq11EAtxHo/oH83UmxHhRyYa+NSjC30I3qbxepMm+714o2CKiyn+
+J97XtdkA+FYI6wjNT9Pufc91tdkHwtrEZsQHytJsvlj6M+/rNqet/cSkeQBd5p/
Mci2r31eTlXuPSr5DVYRSeP2CYwv0Abr9Pdln9uFCld+mrgaYBEY0T0cwFNlm+gA
k+SRYbboe2PT2OxwjZJUEotWH8+DNNVEhs22C/yVj/kRAgMBAAGjggHxMIIB7TAJ
BgNVHRMEAjAAME8GA1UdHwRIMEYwRKBCoECGPmh0dHA6Ly93d3cuc2FtYmEuZXhh
bXBsZS5jb20vY3Jscy9DQS1zYW1iYS5leGFtcGxlLmNvbS1jcmwuY3JsMBEGCWCG
SAGG+EIBAQQEAwIGQDALBgNVHQ8EBAMCBeAwRgYJYIZIAYb4QgENBDkWN0RvbWFp
biBDb250cm9sbGVyIENlcnRpZmljYXRlIGxvY2FsZGMuc2FtYmEuZXhhbXBsZS5j
b20wHQYDVR0OBBYEFM0lvJ5JmAKIT6dcTy1oueNhn64uMB8GA1UdIwQYMBaAFEaH
hsLnGc8WTAxiy3N//Y8Z5LVCMD0GA1UdEQQ2MDSCGWxvY2FsZGMuc2FtYmEuZXhh
bXBsZS5jb22gFwYJKwYBBAGCNxkBoAoECAEjRWeJq83vMDEGA1UdEgQqMCiBJmNh
LXNhbWJhLmV4YW1wbGUuY29tQHNhbWJhLmV4YW1wbGUuY29tME0GCWCGSAGG+EIB
BARAFj5odHRwOi8vd3d3LnNhbWJhLmV4YW1wbGUuY29tL2NybHMvQ0Etc2FtYmEu
ZXhhbXBsZS5jb20tY3JsLmNybDAmBgNVHSUEHzAdBggrBgEFBQcDAgYIKwYBBQUH
AwEGBysGAQUCAwUwDQYJKoZIhvcNAQELBQADggQBABXAMTF/ZXx8pNscIxuBv+jI
rcAuzsaOOqLXj60Zmunqcr0lvCY8V6dTTsUkojxwWUid9d8svbW0cf6mWBXrMYaD
yXo5R4DxnTHt4VomP5y+BkWTltk7fdGcsup7o3HwncehKbo46+S+vOmd6OG+61da
HtEJWNx3BIVIupQZc486MW087Dem15Ql45jpPPaFxmqO1c0yBR92t7BaxUXAgSAW
T+C750IGXGz/5opze4wcmP4tR4rgBjhTd1trE4L0pgvDsogqBZbIBGbLWRkI1JsP
H+M6SGUyB2k5NNSjLtUZCccH2XFNYoH8Wr7x2mU6JB4sQMh4SrsKT6Q9qzy5IvsL
XJ8JlXZva1M9H+79P82+emE+CDuZaWiRqZ+4T7jJH9TthmGqb0+oak22eemvN9KD
m/dhamX2jPf5OyO2zHi/Fu6gUB9+OHtyG2LvF2Dbb8kpwcJT9+gn3j4i2vBfulWf
V2+5j8R6xXKao5XMrP3zpqna1lfTKH9yYKhbL8OxB8THr9k8qel44VoP2snQ5l2a
vWHvHSV/VAiq8mwRHqRGjp7iecjC3QkbYifmcHrk82bbVzDOPyf1xsjyP6G83ez+
OsS5rSFz2IOlnwK60FKK8tUlYxWCOCXidM6mpTKabFIzukW6ARYUX85miZ4D7YqV
gMTPICTUxVvlw1FiVx5FvgpHJLfLpN1uVCz0JYCjhal0DMBlyfgvmiK8hcljigjz
yRx3m6hCWkXdviG+necVm2cZbNPam2eoHSI11BaJrUzDF7ue9eU7oqaBNOBMNr67
5aNgfSgwgtuZ78YZQ9FzJPCO0Ww7zPjLGhR5ZwfqtUcIvxEzKQEu/UQUM/Y2ZYuo
+OYLhG2hkQhWwV3KErYAupx+fpsmP9Pd4S+u9XZF7aKbtKGp1rb1fmiAF4H77yTc
hN44IEU0bHLl1ghh591FQ9IGK67Zc6H7uwQ8YUXTnvxFwOPbAq5F497RNACwGw/O
+DMPh5ybXUkRejAV4592AoIYwqbdJabghB8dDduBfN+hZZtbCOBObUx2igsJFHzh
I60YTAJr4/TgIibhMH6lWSJbpXNaIyQfGnvlRvcMFABTcjNNxMRZPgQXMzQEZx7N
oOWfhYd39t0D8HTPVumZqJU6UtvRYXKRYJ+AvyIm2tcJTt+BMNybtMHHy5eTvLeT
o9uIzF6fOZRXpVfWzRsSpIZiT7IIIk7ZB44nBoLZ8exwMIJWDPfZVr/xf/1lkI1e
1ROzMYld6N81L3drt8fofYn4z56lHGC+fGy3D/qOYo6wchCKBGpQgzo43BOLiY9s
D/w+xzYVN3hfJIeKcMw+WvyIeBlwiWWgx0dn8rwe9QTnlLp06iqnwSaxLqxkC/o=
-----END CERTIFICATE-----
