Certificate:
    Data:
        Version: 3 (0x2)
        Serial Number: 0 (0x0)
    Signature Algorithm: sha256WithRSAEncryption
        Issuer: C=US, ST=SambaState, L=SambaCity, O=SambaSelfTesting, OU=CA Administration, CN=CA of samba.example.com/emailAddress=ca-samba.example.com@samba.example.com
        Validity
            Not Before: Mar 16 23:28:44 2016 GMT
            Not After : Mar 11 23:28:44 2036 GMT
        Subject: C=US, ST=SambaState, O=SambaSelfTesting, OU=Domain Controllers, CN=localdc.samba.example.com/emailAddress=ca-samba.example.com@samba.example.com
        Subject Public Key Info:
            Public Key Algorithm: rsaEncryption
                Public-Key: (4096 bit)
                Modulus:
                    00:e6:a4:76:ce:e8:63:fe:57:f9:a3:ae:e0:ad:4d:
                    e2:15:8e:d8:27:c8:7d:7f:2b:b1:e8:aa:50:8f:94:
                    f9:c7:71:3f:52:32:91:d1:6d:52:22:5f:cd:8d:cc:
                    62:16:7a:8b:58:65:ed:07:f7:ea:24:d3:88:d8:26:
                    ca:eb:ec:16:a7:84:1c:7e:15:46:64:09:22:46:b9:
                    dd:5c:07:84:50:a7:4e:31:3f:01:23:d1:f8:36:04:
                    1a:bb:d4:e5:b6:d4:1b:5c:16:c9:9e:37:8a:3e:a9:
                    7d:30:24:40:b2:b5:44:40:fa:5c:6f:d5:3e:ff:32:
                    c2:e7:24:0a:e4:e4:aa:9f:ff:4c:ac:be:37:58:22:
                    08:16:0e:f6:a7:2f:b5:6c:4f:ac:7b:a4:82:a8:9f:
                    38:64:17:6e:72:b6:7c:4c:c5:44:2a:0a:b4:25:0d:
                    b0:0c:ab:98:4a:f9:1a:1a:c9:a6:59:f4:00:a5:0a:
                    6f:0a:d0:a5:34:ca:0f:f4:0e:fb:ba:d7:bb:3e:2c:
                    7c:0c:68:6b:26:ff:1c:29:fe:77:f9:30:85:0d:44:
                    8c:af:90:8a:70:93:5d:3a:b6:18:8b:a5:85:11:5c:
                    a3:5d:57:16:dd:c7:c8:00:f1:05:71:c2:6e:07:3c:
                    37:69:36:7c:12:c5:9e:1b:69:11:45:44:1e:eb:b9:
                    b2:96:b1:89:cd:4d:fa:89:eb:92:49:f2:46:35:f3:
                    9d:87:3c:be:e4:f8:b7:31:a7:36:4b:81:76:9b:b2:
                    04:d5:80:7d:4f:e6:02:ed:24:4c:a0:03:c4:9d:00:
                    9f:9d:71:93:0d:a5:b8:37:62:2b:03:c3:bd:24:25:
                    2c:c3:43:d4:c8:27:b0:6d:05:d4:c6:c5:d8:5b:09:
                    94:e8:27:6b:d9:6d:b7:bc:de:76:bf:d5:9c:36:26:
                    04:b9:97:1d:f0:c9:8d:91:93:82:32:0d:b7:16:97:
                    41:31:9a:22:0b:2e:ba:99:51:28:6b:f5:04:ba:c9:
                    3d:57:0c:72:e8:e1:24:1a:d4:2a:6a:e7:e3:b6:b9:
                    94:61:e3:4e:42:81:e5:43:e4:1e:ef:6d:c4:5d:a4:
                    f9:b4:ec:3a:8a:34:fe:b5:c7:a8:fe:19:8d:cf:7d:
                    1b:60:21:ba:25:6f:35:cd:4f:72:28:42:7d:87:08:
                    aa:da:33:7e:63:e6:5b:5f:e7:01:a8:e3:0b:d3:08:
                    5a:a6:df:ea:e7:2b:13:48:a7:83:32:96:c4:ba:d1:
                    ff:15:66:52:33:86:46:5f:c2:9f:59:4a:00:98:b7:
                    1b:a1:87:25:df:ad:68:5b:f7:26:17:2b:eb:84:62:
                    9d:c3:bd:99:67:6a:02:5d:70:72:3e:18:92:99:8c:
                    bd:d9:4f
                Exponent: 65537 (0x10001)
        X509v3 extensions:
            X509v3 Basic Constraints: 
                CA:FALSE
            X509v3 CRL Distribution Points: 

                Full Name:
                  URI:http://www.samba.example.com/crls/CA-samba.example.com-crl.crl

            Netscape Cert Type: 
                SSL Server
            X509v3 Key Usage: 
                Digital Signature, Non Repudiation, Key Encipherment
            Netscape Comment: 
                Domain Controller Certificate localdc.samba.example.com
            X509v3 Subject Key Identifier: 
                E1:DF:73:0B:F1:3E:86:43:A4:B3:E9:8D:44:7D:3C:B2:19:C1:BC:F2
            X509v3 Authority Key Identifier: 
                keyid:A2:3E:02:2A:A3:A7:4D:39:B4:08:4D:99:CC:0C:75:36:EA:27:C3:3E

            X509v3 Subject Alternative Name: 
                DNS:localdc.samba.example.com, othername:<unsupported>
            X509v3 Issuer Alternative Name: 
                email:ca-samba.example.com@samba.example.com
            Netscape CA Revocation Url: 
                http://www.samba.example.com/crls/CA-samba.example.com-crl.crl
            X509v3 Extended Key Usage: 
                TLS Web Client Authentication, TLS Web Server Authentication, msKDC
    Signature Algorithm: sha256WithRSAEncryption
         89:2c:57:98:17:c1:73:a6:10:02:6f:a6:ac:47:1c:37:2d:1d:
         a1:3c:c5:29:b6:3a:e6:e8:14:ec:3b:74:ee:da:db:2d:97:3e:
         d3:8c:9d:42:7e:b0:46:e9:54:74:4f:34:df:9e:34:7f:9e:8a:
         9d:4d:b2:cf:fb:71:3f:cb:32:e6:45:e7:b4:d3:9e:e8:ca:a5:
         cf:16:7b:76:b5:4e:e0:b9:bb:79:b1:82:a7:d3:23:cb:3c:46:
         63:63:96:b3:5b:62:9e:99:dc:02:17:f9:07:63:86:76:06:1a:
         02:1b:9a:df:1d:cd:e7:46:fe:9a:13:87:47:dd:e2:77:58:50:
         a2:6c:c9:a0:f8:14:1f:3b:d7:59:9c:89:bd:2e:2d:ce:60:f4:
         c6:2c:e3:63:cf:34:84:61:d9:90:2e:90:fc:5b:4f:a2:00:87:
         e7:40:e0:fc:d1:24:8b:d0:28:01:d3:53:ac:b1:58:7f:87:29:
         38:56:93:dd:a2:14:4a:9a:94:b9:f8:94:b2:04:47:db:b8:38:
         e6:85:2b:cf:d4:72:88:8b:0d:8e:a0:69:f9:9f:10:22:82:9c:
         c5:ec:01:e3:07:a1:69:37:94:25:3a:cd:17:29:37:8d:24:d3:
         27:0f:4d:bf:b0:31:36:b8:c6:a8:69:0b:df:28:f8:e2:dc:da:
         95:3e:7f:d7:3f:a5:8f:92:6a:7d:ad:3a:ac:af:73:2b:5f:f1:
         b3:22:92:ef:da:71:84:9e:4b:23:7b:69:b7:29:fc:c5:05:84:
         4b:ff:06:92:ee:f5:9b:14:2a:af:be:ef:02:e1:e7:d0:e8:d0:
         29:7c:48:40:f1:95:bb:08:b2:30:c5:81:80:a8:91:5b:2e:08:
         3b:30:44:07:b5:c4:0b:07:74:ca:5d:37:3d:75:f9:bc:6d:21:
         a6:e0:91:d8:f9:27:88:05:58:a7:f4:36:eb:ba:40:63:36:15:
         42:98:0b:e2:d1:c9:11:0b:29:81:e1:c7:02:7e:fa:05:65:51:
         7b:d6:1a:33:46:fc:a5:d4:fd:64:e8:c8:11:d4:d1:41:d9:39:
         18:08:a3:ed:15:70:d9:14:f5:ba:c9:bb:3e:96:8d:5d:cc:c3:
         5c:b6:c8:79:02:2e:e2:a1:06:ba:a5:21:1c:bf:16:7f:2d:d9:
         93:07:92:b1:fa:ee:3f:e3:56:35:f3:30:aa:11:54:d3:71:cb:
         29:d4:60:e1:6c:ae:c4:24:e3:00:4f:5f:52:b0:3f:f4:76:f3:
         6d:db:bc:d8:65:c4:37:be:1a:87:9b:65:c4:20:dd:da:a9:4c:
         9f:86:33:2b:49:a6:f7:aa:ce:da:98:3b:e3:5f:ac:b8:1b:45:
         0e:56:59:fb:49:38:0f:b7:d4:49:f8:7b:ac:fa:d8:b8:1d:16:
         db:b2:4c:15:d8:e7:eb:6b:38:ff:d2:69:26:a6:f6:50:15:45:
         2f:12:b2:05:d4:bf:6f:53:79:64:9b:d5:8b:a1:08:3e:43:ee:
         08:fe:9b:ea:83:89:8a:6a:53:98:1e:c5:91:4c:7a:99:2b:6d:
         97:dc:96:1b:de:27:c5:af:0f:dd:42:5c:23:7d:bc:6b:5b:ab:
         47:29:98:35:8f:9e:e6:e1:5f:96:6a:bd:cf:3c:47:89:8b:ad:
         21:de:20:da:99:82:c1:0e:9b:7c:38:21:d8:b1:1c:34:c5:4e:
         f7:fe:7d:5e:a4:2f:f8:7d:5c:30:2c:9e:e6:5a:4f:d3:15:90:
         e6:6f:69:ea:51:93:8f:2c:dd:a7:c3:3c:50:a8:d1:ba:0b:5c:
         cc:2e:4e:57:71:21:08:a1:2c:bd:a7:20:4b:ae:5c:02:7a:cd:
         9a:fe:1e:db:ec:ce:3b:12:37:cb:96:20:7b:3b:b1:5a:2e:84:
         03:f9:0b:32:43:c0:4e:e3:ea:79:e7:9a:13:54:e5:a8:1a:17:
         c4:79:78:25:63:ab:67:39:39:a0:6c:c4:c5:94:ac:16:92:3d:
         f0:1a:1a:9e:ca:7a:84:1b:c1:5a:5f:4c:65:8a:30:a6:5e:6c:
         0e:ae:bf:ac:09:97:0f:83:5c:92:ce:e4:43:de:06:4b:96:f5:
         46:3b:7d:a8:e3:0f:d3:fe:00:c7:d4:79:4e:5f:bd:ec:59:12:
         f9:65:23:fa:e7:97:a2:a6:39:3b:a3:1e:da:47:c5:18:5b:8d:
         a7:7b:29:1c:5a:7a:06:c6:92:9e:b7:3b:f0:c5:56:e8:cf:84:
         cd:dd:61:0f:21:25:f4:1e:2b:40:b6:74:28:8d:41:f6:2c:1d:
         ce:b4:39:d1:e1:be:15:78:c9:d7:99:a1:9d:50:43:da:ec:40:
         69:6a:3b:17:af:28:22:09:e0:7d:38:9e:a7:ca:b7:f7:94:8a:
         2a:1b:32:4e:28:6d:18:95:ca:42:67:c8:bb:13:24:31:43:84:
         3e:95:66:08:5c:15:7f:6b:93:cc:8f:b8:76:7a:fd:74:4a:d6:
         6f:64:74:df:72:f7:34:a3:50:f0:db:bf:0a:2b:1b:48:b7:c9:
         c0:97:23:27:b1:56:5b:9e:10:12:5a:bf:ff:38:61:da:41:75:
         15:c5:03:c2:20:fd:7f:84:c0:94:8e:11:ed:01:ba:f1:19:b5:
         05:1d:bf:89:ea:c9:38:4e:d2:cf:5b:24:c6:37:a1:8e:60:89:
         5c:52:ff:7d:5e:2d:c9:f8:b1:79:07:4c:2f:18:85:e8:ba:bf:
         3e:da:59:43:df:29:79:7e:00:38:d2:fc:a9:8e:3b:9d
-----BEGIN CERTIFICATE-----
MIIJ6zCCBdOgAwIBAgIBADANBgkqhkiG9w0BAQsFADCBxjELMAkGA1UEBhMCVVMx
EzARBgNVBAgMClNhbWJhU3RhdGUxEjAQBgNVBAcMCVNhbWJhQ2l0eTEZMBcGA1UE
CgwQU2FtYmFTZWxmVGVzdGluZzEaMBgGA1UECwwRQ0EgQWRtaW5pc3RyYXRpb24x
IDAeBgNVBAMMF0NBIG9mIHNhbWJhLmV4YW1wbGUuY29tMTUwMwYJKoZIhvcNAQkB
FiZjYS1zYW1iYS5leGFtcGxlLmNvbUBzYW1iYS5leGFtcGxlLmNvbTAeFw0xNjAz
MTYyMzI4NDRaFw0zNjAzMTEyMzI4NDRaMIG1MQswCQYDVQQGEwJVUzETMBEGA1UE
CAwKU2FtYmFTdGF0ZTEZMBcGA1UECgwQU2FtYmFTZWxmVGVzdGluZzEbMBkGA1UE
CwwSRG9tYWluIENvbnRyb2xsZXJzMSIwIAYDVQQDDBlsb2NhbGRjLnNhbWJhLmV4
YW1wbGUuY29tMTUwMwYJKoZIhvcNAQkBFiZjYS1zYW1iYS5leGFtcGxlLmNvbUBz
YW1iYS5leGFtcGxlLmNvbTCCAiIwDQYJKoZIhvcNAQEBBQADggIPADCCAgoCggIB
AOakds7oY/5X+aOu4K1N4hWO2CfIfX8rseiqUI+U+cdxP1IykdFtUiJfzY3MYhZ6
i1hl7Qf36iTTiNgmyuvsFqeEHH4VRmQJIka53VwHhFCnTjE/ASPR+DYEGrvU5bbU
G1wWyZ43ij6pfTAkQLK1RED6XG/VPv8ywuckCuTkqp//TKy+N1giCBYO9qcvtWxP
rHukgqifOGQXbnK2fEzFRCoKtCUNsAyrmEr5GhrJpln0AKUKbwrQpTTKD/QO+7rX
uz4sfAxoayb/HCn+d/kwhQ1EjK+QinCTXTq2GIulhRFco11XFt3HyADxBXHCbgc8
N2k2fBLFnhtpEUVEHuu5spaxic1N+onrkknyRjXznYc8vuT4tzGnNkuBdpuyBNWA
fU/mAu0kTKADxJ0An51xkw2luDdiKwPDvSQlLMND1MgnsG0F1MbF2FsJlOgna9lt
t7zedr/VnDYmBLmXHfDJjZGTgjINtxaXQTGaIgsuuplRKGv1BLrJPVcMcujhJBrU
Kmrn47a5lGHjTkKB5UPkHu9txF2k+bTsOoo0/rXHqP4Zjc99G2AhuiVvNc1PcihC
fYcIqtozfmPmW1/nAajjC9MIWqbf6ucrE0ingzKWxLrR/xVmUjOGRl/Cn1lKAJi3
G6GHJd+taFv3Jhcr64RincO9mWdqAl1wcj4YkpmMvdlPAgMBAAGjggHxMIIB7TAJ
BgNVHRMEAjAAME8GA1UdHwRIMEYwRKBCoECGPmh0dHA6Ly93d3cuc2FtYmEuZXhh
bXBsZS5jb20vY3Jscy9DQS1zYW1iYS5leGFtcGxlLmNvbS1jcmwuY3JsMBEGCWCG
SAGG+EIBAQQEAwIGQDALBgNVHQ8EBAMCBeAwRgYJYIZIAYb4QgENBDkWN0RvbWFp
biBDb250cm9sbGVyIENlcnRpZmljYXRlIGxvY2FsZGMuc2FtYmEuZXhhbXBsZS5j
b20wHQYDVR0OBBYEFOHfcwvxPoZDpLPpjUR9PLIZwbzyMB8GA1UdIwQYMBaAFKI+
Aiqjp005tAhNmcwMdTbqJ8M+MD0GA1UdEQQ2MDSCGWxvY2FsZGMuc2FtYmEuZXhh
bXBsZS5jb22gFwYJKwYBBAGCNxkBoAoECAEjRWeJq83vMDEGA1UdEgQqMCiBJmNh
LXNhbWJhLmV4YW1wbGUuY29tQHNhbWJhLmV4YW1wbGUuY29tME0GCWCGSAGG+EIB
BARAFj5odHRwOi8vd3d3LnNhbWJhLmV4YW1wbGUuY29tL2NybHMvQ0Etc2FtYmEu
ZXhhbXBsZS5jb20tY3JsLmNybDAmBgNVHSUEHzAdBggrBgEFBQcDAgYIKwYBBQUH
AwEGBysGAQUCAwUwDQYJKoZIhvcNAQELBQADggQBAIksV5gXwXOmEAJvpqxHHDct
HaE8xSm2OuboFOw7dO7a2y2XPtOMnUJ+sEbpVHRPNN+eNH+eip1Nss/7cT/LMuZF
57TTnujKpc8We3a1TuC5u3mxgqfTI8s8RmNjlrNbYp6Z3AIX+QdjhnYGGgIbmt8d
zedG/poTh0fd4ndYUKJsyaD4FB8711mcib0uLc5g9MYs42PPNIRh2ZAukPxbT6IA
h+dA4PzRJIvQKAHTU6yxWH+HKThWk92iFEqalLn4lLIER9u4OOaFK8/UcoiLDY6g
afmfECKCnMXsAeMHoWk3lCU6zRcpN40k0ycPTb+wMTa4xqhpC98o+OLc2pU+f9c/
pY+San2tOqyvcytf8bMiku/acYSeSyN7abcp/MUFhEv/BpLu9ZsUKq++7wLh59Do
0Cl8SEDxlbsIsjDFgYCokVsuCDswRAe1xAsHdMpdNz11+bxtIabgkdj5J4gFWKf0
Nuu6QGM2FUKYC+LRyRELKYHhxwJ++gVlUXvWGjNG/KXU/WToyBHU0UHZORgIo+0V
cNkU9brJuz6WjV3Mw1y2yHkCLuKhBrqlIRy/Fn8t2ZMHkrH67j/jVjXzMKoRVNNx
yynUYOFsrsQk4wBPX1KwP/R2823bvNhlxDe+GoebZcQg3dqpTJ+GMytJpveqztqY
O+NfrLgbRQ5WWftJOA+31En4e6z62LgdFtuyTBXY5+trOP/SaSam9lAVRS8SsgXU
v29TeWSb1YuhCD5D7gj+m+qDiYpqU5gexZFMepkrbZfclhveJ8WvD91CXCN9vGtb
q0cpmDWPnubhX5Zqvc88R4mLrSHeINqZgsEOm3w4IdixHDTFTvf+fV6kL/h9XDAs
nuZaT9MVkOZvaepRk48s3afDPFCo0boLXMwuTldxIQihLL2nIEuuXAJ6zZr+Htvs
zjsSN8uWIHs7sVouhAP5CzJDwE7j6nnnmhNU5agaF8R5eCVjq2c5OaBsxMWUrBaS
PfAaGp7KeoQbwVpfTGWKMKZebA6uv6wJlw+DXJLO5EPeBkuW9UY7fajjD9P+AMfU
eU5fvexZEvllI/rnl6KmOTujHtpHxRhbjad7KRxaegbGkp63O/DFVujPhM3dYQ8h
JfQeK0C2dCiNQfYsHc60OdHhvhV4ydeZoZ1QQ9rsQGlqOxevKCIJ4H04nqfKt/eU
iiobMk4obRiVykJnyLsTJDFDhD6VZghcFX9rk8yPuHZ6/XRK1m9kdN9y9zSjUPDb
vworG0i3ycCXIyexVlueEBJav/84YdpBdRXFA8Ig/X+EwJSOEe0BuvEZtQUdv4nq
yThO0s9bJMY3oY5giVxS/31eLcn4sXkHTC8Yhei6vz7aWUPfKXl+ADjS/KmOO50=
-----END CERTIFICATE-----
