Certificate:
    Data:
        Version: 3 (0x2)
        Serial Number: 1 (0x1)
    Signature Algorithm: sha256WithRSAEncryption
        Issuer: C=US, ST=SambaState, L=SambaCity, O=SambaSelfTesting, OU=CA Administration, CN=CA of samba.example.com/emailAddress=ca-samba.example.com@samba.example.com
        Validity
            Not Before: Mar 16 23:29:04 2016 GMT
            Not After : Mar 11 23:29:04 2036 GMT
        Subject: C=US, ST=SambaState, O=SambaSelfTesting, OU=Users, CN=administrator@samba.example.com/emailAddress=administrator@samba.example.com
        Subject Public Key Info:
            Public Key Algorithm: rsaEncryption
                Public-Key: (2048 bit)
                Modulus:
                    00:af:87:9e:1e:7f:c0:ab:da:47:22:74:d0:df:01:
                    f1:67:6c:ac:c4:b7:d9:18:97:e5:7a:62:76:33:b6:
                    52:f2:92:90:75:ac:a3:94:7e:0c:29:75:c9:83:2f:
                    19:66:60:84:45:ff:d5:a9:bd:c5:3a:a2:d8:25:cf:
                    15:8a:23:3e:09:73:2f:99:1d:24:1f:e6:96:7e:7b:
                    c4:1e:8d:55:5b:c1:18:69:cd:1d:b4:22:d5:7b:db:
                    5e:7c:91:f2:8e:c1:03:30:ee:63:46:5a:54:d5:40:
                    ac:79:55:00:71:07:8d:3e:0e:ed:ff:93:6c:f1:2d:
                    84:c1:51:a3:7c:49:cf:ff:85:7b:c0:64:c1:ba:c8:
                    66:7a:ff:17:2a:74:ea:16:6a:1d:97:c0:27:57:10:
                    be:76:f5:9a:63:56:c7:25:c6:fc:a7:5e:00:a6:1a:
                    3d:21:bd:7a:f9:e3:03:60:ce:df:16:06:fc:05:bc:
                    d1:c8:5d:e7:33:ed:52:8b:60:5b:60:c5:70:13:1d:
                    c1:b3:08:13:09:3b:05:e8:02:40:12:45:89:af:87:
                    1f:6a:8f:62:ce:1e:17:13:34:82:81:86:e9:bb:85:
                    5b:75:1d:f4:3a:02:b4:a6:58:23:fe:c3:3a:35:09:
                    95:bb:f7:79:bc:e3:97:e6:6d:77:24:aa:2d:51:50:
                    37:69
                Exponent: 65537 (0x10001)
        X509v3 extensions:
            X509v3 Basic Constraints: 
                CA:FALSE
            X509v3 CRL Distribution Points: 

                Full Name:
                  URI:http://www.samba.example.com/crls/CA-samba.example.com-crl.crl

            Netscape Cert Type: 
                SSL Client, S/MIME
            X509v3 Key Usage: 
                Digital Signature, Non Repudiation, Key Encipherment
            Netscape Comment: 
                Smart Card Login Certificate for administrator@samba.example.com
            X509v3 Subject Key Identifier: 
                45:DA:4B:8D:05:9C:62:4E:62:C3:D7:5C:5F:D3:D9:85:B4:9B:F2:2C
            X509v3 Authority Key Identifier: 
                keyid:A2:3E:02:2A:A3:A7:4D:39:B4:08:4D:99:CC:0C:75:36:EA:27:C3:3E

            X509v3 Subject Alternative Name: 
                email:administrator@samba.example.com, othername:<unsupported>
            X509v3 Issuer Alternative Name: 
                email:ca-samba.example.com@samba.example.com
            Netscape CA Revocation Url: 
                http://www.samba.example.com/crls/CA-samba.example.com-crl.crl
            X509v3 Extended Key Usage: 
                TLS Web Client Authentication, scardLogin
    Signature Algorithm: sha256WithRSAEncryption
         a2:bb:e6:97:67:3c:b6:6e:6e:dd:34:99:16:c6:80:91:08:bf:
         91:ba:51:62:5d:76:2f:e5:53:91:3d:99:03:18:a9:84:69:73:
         76:66:c3:eb:56:d7:c5:40:91:15:da:de:b2:76:48:7d:8a:8c:
         80:79:3c:e6:da:0e:a6:c3:53:d6:74:ee:5f:29:b7:03:46:de:
         89:32:14:22:03:30:68:2e:7e:06:d4:ac:9e:82:c0:02:16:7f:
         81:ba:ee:7a:e7:8b:f7:fb:99:7f:8c:eb:78:54:97:4e:28:44:
         da:f4:e2:1b:f8:3e:ac:ca:cc:e3:e3:71:90:91:47:9c:78:ed:
         6f:bc:b7:98:12:ea:75:e5:15:f7:26:56:a7:5c:d6:74:a8:13:
         7b:23:35:4e:6a:01:f6:a9:f5:5b:9b:d0:ea:ba:0f:c3:c4:1a:
         e0:b9:a3:ed:5d:28:cb:7f:1d:3e:8a:9a:af:4c:88:00:3c:10:
         f0:49:85:24:60:e6:cb:d6:9e:00:46:78:4d:90:22:68:4f:10:
         39:84:3b:e2:7c:3d:ed:23:41:19:7e:6f:45:59:89:a9:9f:26:
         c1:f9:7d:4d:0a:b4:10:f9:31:7d:cc:87:d0:4b:62:14:70:86:
         c8:7d:14:ff:e4:68:e2:de:42:ca:01:c7:aa:2d:5a:a5:72:64:
         f1:4c:fa:6e:60:15:22:08:68:e6:c6:6a:75:63:24:b5:54:76:
         d1:97:4f:e0:e8:bc:eb:d0:62:84:4a:b4:3a:07:38:5f:b9:a6:
         6a:31:14:47:33:81:bd:d0:a4:a2:da:2b:92:0d:dc:42:c4:0f:
         28:0d:b6:1b:33:b5:88:df:1b:a8:d8:90:9a:11:ce:df:d4:14:
         e9:ac:94:94:95:bb:bc:6e:f1:be:85:29:3f:17:ab:41:14:d8:
         20:ba:e0:a2:a3:d3:d4:8b:1e:4b:32:22:8d:0d:c1:e6:39:1a:
         ce:cd:f3:1d:f1:82:85:d5:e7:80:34:90:a4:0e:d4:af:32:c8:
         79:4e:25:32:b6:1e:06:3a:26:42:38:47:1a:32:96:71:5b:fe:
         5b:b0:ef:7d:fe:58:ca:eb:b5:c9:4b:2f:12:cb:89:36:22:7c:
         a6:39:ab:20:c1:2d:cd:6b:34:e1:cd:bc:ed:45:45:12:4a:65:
         4b:ab:45:f2:6d:7a:9d:f8:b5:52:78:1b:da:2f:e0:ce:f7:e2:
         b0:fa:6f:40:3d:dd:e9:39:c3:63:68:ab:77:53:be:3b:dd:9a:
         bc:d7:d7:fa:6a:bf:bf:74:f7:11:80:87:f9:d3:45:eb:1e:8e:
         d1:a9:a0:2e:66:e7:20:67:1c:4c:22:43:77:85:ff:1a:23:37:
         cc:49:de:51:ee:f2:04:2f:a8:98:88:0f:b6:18:53:eb:e2:49:
         15:5e:02:8b:1e:7b:e6:c5:d1:0c:df:84:4e:d9:bd:fe:21:48:
         d4:a4:11:01:27:57:51:d6:c1:b2:a1:1c:11:9a:a7:d1:ab:f0:
         99:16:b2:c8:3f:74:25:68:0b:1a:cf:58:0d:cd:cc:1a:6d:8b:
         ec:1f:70:82:02:40:97:0f:75:2c:53:87:c1:42:5c:d1:7e:19:
         78:2c:2c:88:73:33:81:63:38:84:07:0f:16:bb:7c:54:59:03:
         94:e7:b8:85:d7:f8:5e:53:35:65:2e:e5:27:65:be:f0:89:65:
         f6:ab:3f:6e:a5:bd:c1:1a:9e:31:30:68:6e:50:af:54:4c:33:
         f8:73:2f:41:60:4f:4c:85:1b:ad:7d:db:62:42:dc:87:96:b4:
         cf:ce:12:50:ed:6c:01:5f:e2:f9:03:f5:f7:4c:6c:8f:2b:5b:
         7a:64:7d:19:e8:20:f2:e9:10:58:f3:71:0e:1e:58:68:f2:59:
         3c:06:53:7a:f3:60:62:5b:c7:b7:83:58:1d:3d:a6:17:db:33:
         cc:91:14:af:d6:b9:08:bf:60:af:ac:3e:fe:8b:74:71:20:c7:
         e7:31:5e:26:6c:28:52:67:12:1e:c3:9b:89:23:5d:88:ee:b0:
         6b:db:cc:94:8b:9b:1b:40:b7:66:bc:7d:1d:e1:08:00:20:ba:
         41:cd:17:d6:4c:7b:c4:5a:fd:cf:6b:20:e2:b8:86:9c:31:17:
         c2:d7:7f:1c:3a:d0:fc:1d:f5:7f:c9:96:04:27:de:b8:ef:8d:
         38:9a:b3:56:60:ac:c2:07:38:64:19:39:9e:73:6f:ba:59:15:
         ac:45:42:4d:bb:79:60:7f:ae:c3:8d:63:4a:27:16:0a:ca:92:
         7f:f7:a2:02:76:f5:e6:7c:ec:ba:ea:18:cd:9c:3b:ee:37:2c:
         9d:78:4e:c9:40:6d:94:cc:ce:ca:f4:33:fc:a4:dd:05:62:d6:
         0f:1e:19:63:af:10:c3:ff:02:1a:0a:48:fd:af:f2:a4:0e:64:
         dd:90:f4:4f:14:1b:90:1f:9e:29:b0:0b:94:a4:d1:2a:87:b9:
         3a:76:c2:b6:af:c3:d4:84:6e:85:1c:64:73:46:d0:df:72:c0:
         3c:42:91:c4:30:10:11:18:36:bc:e5:17:36:22:5f:c2:3f:ac:
         1d:2e:9d:87:11:be:a7:ac:b2:62:35:74:b9:27:27:95:bc:c1:
         11:44:f8:64:36:60:74:06:a2:e7:e9:76:be:a7:86:5e:18:1e:
         bd:dc:b0:aa:ae:92:d6:dd:d6:25:80:d6:c1:be:c1:21:1c:01:
         6f:83:20:ae:b7:54:4f:3d:2d:12:fc:a2:cc:49:fd:59
-----BEGIN CERTIFICATE-----
MIII/TCCBOWgAwIBAgIBATANBgkqhkiG9w0BAQsFADCBxjELMAkGA1UEBhMCVVMx
EzARBgNVBAgMClNhbWJhU3RhdGUxEjAQBgNVBAcMCVNhbWJhQ2l0eTEZMBcGA1UE
CgwQU2FtYmFTZWxmVGVzdGluZzEaMBgGA1UECwwRQ0EgQWRtaW5pc3RyYXRpb24x
IDAeBgNVBAMMF0NBIG9mIHNhbWJhLmV4YW1wbGUuY29tMTUwMwYJKoZIhvcNAQkB
FiZjYS1zYW1iYS5leGFtcGxlLmNvbUBzYW1iYS5leGFtcGxlLmNvbTAeFw0xNjAz
MTYyMzI5MDRaFw0zNjAzMTEyMzI5MDRaMIGnMQswCQYDVQQGEwJVUzETMBEGA1UE
CAwKU2FtYmFTdGF0ZTEZMBcGA1UECgwQU2FtYmFTZWxmVGVzdGluZzEOMAwGA1UE
CwwFVXNlcnMxKDAmBgNVBAMMH2FkbWluaXN0cmF0b3JAc2FtYmEuZXhhbXBsZS5j
b20xLjAsBgkqhkiG9w0BCQEWH2FkbWluaXN0cmF0b3JAc2FtYmEuZXhhbXBsZS5j
b20wggEiMA0GCSqGSIb3DQEBAQUAA4IBDwAwggEKAoIBAQCvh54ef8Cr2kcidNDf
AfFnbKzEt9kYl+V6YnYztlLykpB1rKOUfgwpdcmDLxlmYIRF/9WpvcU6otglzxWK
Iz4Jcy+ZHSQf5pZ+e8QejVVbwRhpzR20ItV72158kfKOwQMw7mNGWlTVQKx5VQBx
B40+Du3/k2zxLYTBUaN8Sc//hXvAZMG6yGZ6/xcqdOoWah2XwCdXEL529ZpjVscl
xvynXgCmGj0hvXr54wNgzt8WBvwFvNHIXecz7VKLYFtgxXATHcGzCBMJOwXoAkAS
RYmvhx9qj2LOHhcTNIKBhum7hVt1HfQ6ArSmWCP+wzo1CZW793m845fmbXckqi1R
UDdpAgMBAAGjggIRMIICDTAJBgNVHRMEAjAAME8GA1UdHwRIMEYwRKBCoECGPmh0
dHA6Ly93d3cuc2FtYmEuZXhhbXBsZS5jb20vY3Jscy9DQS1zYW1iYS5leGFtcGxl
LmNvbS1jcmwuY3JsMBEGCWCGSAGG+EIBAQQEAwIFoDALBgNVHQ8EBAMCBeAwTwYJ
YIZIAYb4QgENBEIWQFNtYXJ0IENhcmQgTG9naW4gQ2VydGlmaWNhdGUgZm9yIGFk
bWluaXN0cmF0b3JAc2FtYmEuZXhhbXBsZS5jb20wHQYDVR0OBBYEFEXaS40FnGJO
YsPXXF/T2YW0m/IsMB8GA1UdIwQYMBaAFKI+Aiqjp005tAhNmcwMdTbqJ8M+MFsG
A1UdEQRUMFKBH2FkbWluaXN0cmF0b3JAc2FtYmEuZXhhbXBsZS5jb22gLwYKKwYB
BAGCNxQCA6AhDB9hZG1pbmlzdHJhdG9yQHNhbWJhLmV4YW1wbGUuY29tMDEGA1Ud
EgQqMCiBJmNhLXNhbWJhLmV4YW1wbGUuY29tQHNhbWJhLmV4YW1wbGUuY29tME0G
CWCGSAGG+EIBBARAFj5odHRwOi8vd3d3LnNhbWJhLmV4YW1wbGUuY29tL2NybHMv
Q0Etc2FtYmEuZXhhbXBsZS5jb20tY3JsLmNybDAfBgNVHSUEGDAWBggrBgEFBQcD
AgYKKwYBBAGCNxQCAjANBgkqhkiG9w0BAQsFAAOCBAEAorvml2c8tm5u3TSZFsaA
kQi/kbpRYl12L+VTkT2ZAxiphGlzdmbD61bXxUCRFdresnZIfYqMgHk85toOpsNT
1nTuXym3A0beiTIUIgMwaC5+BtSsnoLAAhZ/gbrueueL9/uZf4zreFSXTihE2vTi
G/g+rMrM4+NxkJFHnHjtb7y3mBLqdeUV9yZWp1zWdKgTeyM1TmoB9qn1W5vQ6roP
w8Qa4Lmj7V0oy38dPoqar0yIADwQ8EmFJGDmy9aeAEZ4TZAiaE8QOYQ74nw97SNB
GX5vRVmJqZ8mwfl9TQq0EPkxfcyH0EtiFHCGyH0U/+Ro4t5CygHHqi1apXJk8Uz6
bmAVIgho5sZqdWMktVR20ZdP4Oi869BihEq0Ogc4X7mmajEURzOBvdCkotorkg3c
QsQPKA22GzO1iN8bqNiQmhHO39QU6ayUlJW7vG7xvoUpPxerQRTYILrgoqPT1Ise
SzIijQ3B5jkazs3zHfGChdXngDSQpA7UrzLIeU4lMrYeBjomQjhHGjKWcVv+W7Dv
ff5Yyuu1yUsvEsuJNiJ8pjmrIMEtzWs04c287UVFEkplS6tF8m16nfi1Ungb2i/g
zvfisPpvQD3d6TnDY2ird1O+O92avNfX+mq/v3T3EYCH+dNF6x6O0amgLmbnIGcc
TCJDd4X/GiM3zEneUe7yBC+omIgPthhT6+JJFV4Cix575sXRDN+ETtm9/iFI1KQR
ASdXUdbBsqEcEZqn0avwmRayyD90JWgLGs9YDc3MGm2L7B9wggJAlw91LFOHwUJc
0X4ZeCwsiHMzgWM4hAcPFrt8VFkDlOe4hdf4XlM1ZS7lJ2W+8Ill9qs/bqW9wRqe
MTBoblCvVEwz+HMvQWBPTIUbrX3bYkLch5a0z84SUO1sAV/i+QP190xsjytbemR9
Gegg8ukQWPNxDh5YaPJZPAZTevNgYlvHt4NYHT2mF9szzJEUr9a5CL9gr6w+/ot0
cSDH5zFeJmwoUmcSHsObiSNdiO6wa9vMlIubG0C3Zrx9HeEIACC6Qc0X1kx7xFr9
z2sg4riGnDEXwtd/HDrQ/B31f8mWBCfeuO+NOJqzVmCswgc4ZBk5nnNvulkVrEVC
Tbt5YH+uw41jSicWCsqSf/eiAnb15nzsuuoYzZw77jcsnXhOyUBtlMzOyvQz/KTd
BWLWDx4ZY68Qw/8CGgpI/a/ypA5k3ZD0TxQbkB+eKbALlKTRKoe5OnbCtq/D1IRu
hRxkc0bQ33LAPEKRxDAQERg2vOUXNiJfwj+sHS6dhxG+p6yyYjV0uScnlbzBEUT4
ZDZgdAai5+l2vqeGXhgevdywqq6S1t3WJYDWwb7BIRwBb4MgrrdUTz0tEvyizEn9
WQ==
-----END CERTIFICATE-----
