Certificate:
    Data:
        Version: 3 (0x2)
        Serial Number: 1 (0x1)
    Signature Algorithm: sha256WithRSAEncryption
        Issuer: C=US, ST=SambaState, L=SambaCity, O=SambaSelfTesting, OU=CA Administration, CN=CA of samba.example.com/emailAddress=ca-samba.example.com@samba.example.com
        Validity
            Not Before: Mar 18 11:45:11 2016 GMT
            Not After : Mar 13 11:45:11 2036 GMT
        Subject: C=US, ST=SambaState, O=SambaSelfTesting, OU=Users, CN=administrator@samba.example.com/emailAddress=administrator@samba.example.com
        Subject Public Key Info:
            Public Key Algorithm: rsaEncryption
                Public-Key: (2048 bit)
                Modulus:
                    00:c9:07:44:3a:5f:f6:34:5f:27:8a:7a:6e:2f:fb:
                    45:1f:c3:3d:dd:2c:43:65:f1:7a:29:3f:42:26:bd:
                    ff:4f:5d:91:c0:bb:75:e3:81:14:7d:59:72:78:96:
                    1a:5e:8d:95:93:f4:5d:92:79:0e:24:77:4f:8b:08:
                    4e:72:b1:99:88:63:06:74:b2:dc:f7:82:62:e9:dd:
                    6f:e5:a7:b4:c9:44:0c:e4:43:41:f8:57:a9:20:b1:
                    70:c1:76:a1:48:5b:e9:54:b6:4f:22:50:93:90:f0:
                    62:32:50:9a:6e:22:6b:37:a0:f7:1f:fc:b1:5f:ae:
                    e2:0b:88:6d:ea:29:b6:01:27:b2:84:ef:10:4d:6c:
                    0a:df:ea:a9:8a:82:98:60:a7:52:73:a4:f7:7c:b2:
                    4a:b9:f0:9b:c4:f8:19:5a:c0:84:54:52:35:c8:92:
                    4f:16:af:d6:36:a6:78:57:55:e5:5e:6b:62:00:fa:
                    48:c2:7a:e7:17:38:b5:23:d5:a8:fb:7d:df:42:5c:
                    03:f4:7c:ef:ff:f1:a0:e6:d8:27:93:06:b3:a3:21:
                    68:0e:c4:60:20:02:46:2f:2b:d8:88:e4:2b:01:c2:
                    31:5a:55:28:be:55:03:f2:06:2b:e4:ec:48:60:e4:
                    b6:db:a1:f0:c5:24:ba:e1:a8:e2:6a:fb:0b:40:6c:
                    3d:f5
                Exponent: 65537 (0x10001)
        X509v3 extensions:
            X509v3 Basic Constraints: 
                CA:FALSE
            X509v3 CRL Distribution Points: 

                Full Name:
                  URI:http://www.samba.example.com/crls/CA-samba.example.com-crl.crl

            Netscape Cert Type: 
                SSL Client, S/MIME
            X509v3 Key Usage: 
                Digital Signature, Non Repudiation, Key Encipherment
            Netscape Comment: 
                Smart Card Login Certificate for administrator@samba.example.com
            X509v3 Subject Key Identifier: 
                70:86:EC:68:B4:51:8A:1C:12:65:A0:2A:B3:43:33:12:65:83:8D:40
            X509v3 Authority Key Identifier: 
                keyid:46:87:86:C2:E7:19:CF:16:4C:0C:62:CB:73:7F:FD:8F:19:E4:B5:42

            X509v3 Subject Alternative Name: 
                email:administrator@samba.example.com, othername:<unsupported>
            X509v3 Issuer Alternative Name: 
                email:ca-samba.example.com@samba.example.com
            Netscape CA Revocation Url: 
                http://www.samba.example.com/crls/CA-samba.example.com-crl.crl
            X509v3 Extended Key Usage: 
                TLS Web Client Authentication, scardLogin
    Signature Algorithm: sha256WithRSAEncryption
         5d:b1:10:f8:36:dd:a9:fd:8d:be:31:53:1d:cf:b5:ea:33:1a:
         85:0f:13:8d:cc:67:91:41:97:e4:e9:67:6a:0c:ce:a4:9a:06:
         b3:53:bf:e6:6d:f1:d1:32:7d:54:5d:6a:a8:94:fe:d4:f6:62:
         85:0f:e0:73:f8:ce:51:32:18:65:50:34:f9:f2:66:f8:ec:fd:
         94:c2:1d:28:6f:ce:3c:b3:0a:0a:cc:8b:fb:2c:e8:44:d2:d8:
         64:d7:19:1c:a4:25:5f:75:63:bc:44:56:64:cb:ca:8c:43:75:
         1e:95:36:98:a1:c6:49:e6:14:60:ad:87:91:af:d8:3c:d2:63:
         52:82:02:0a:42:c0:e3:7b:50:51:37:d5:c0:a5:0c:09:ac:2d:
         a0:b3:29:e4:9e:bf:d3:df:01:82:00:a5:ad:fb:35:e8:f6:1c:
         d7:cb:d1:3c:54:1f:d2:73:38:ce:a6:0a:e2:77:0a:fc:e5:ff:
         7e:68:a6:c7:57:fd:c7:cf:95:48:9f:97:6f:fe:2e:9f:e3:d6:
         b0:a5:b5:33:9f:12:c1:e6:12:15:77:33:8f:1e:35:b5:88:f8:
         6b:47:88:e4:cb:49:f7:11:ba:19:39:55:5e:4a:5a:65:76:7e:
         cc:3a:a7:fa:91:9a:ef:b5:c1:bf:f0:e7:a2:c6:9f:08:17:fc:
         4c:a4:ef:0b:d8:c7:a4:f9:74:36:b3:67:90:5e:84:26:83:bd:
         36:89:0d:c6:8c:1d:03:ce:8f:80:c9:0c:c6:c0:1e:eb:42:e7:
         97:7f:21:ac:b1:64:06:f6:1d:6d:0c:87:ff:c9:30:23:d3:21:
         1f:53:05:69:21:d5:26:ca:7f:ce:3a:4e:8d:d1:40:16:7e:a2:
         c0:0f:95:0c:67:90:47:d2:e2:cf:87:ef:dc:35:18:2a:a2:21:
         cd:67:b0:b2:14:9f:75:94:93:ba:8c:4d:45:71:cb:e9:df:cd:
         f5:e3:f0:ff:c3:38:77:c2:41:55:d6:60:96:d8:bd:5f:09:22:
         97:44:8d:4d:b1:dd:68:39:04:1b:7a:57:3b:ca:56:27:87:31:
         55:84:6c:f0:65:af:ec:0b:52:87:28:0b:2d:52:c0:ce:a3:7d:
         7b:47:07:df:8a:65:e9:6f:da:e7:b6:94:06:69:b8:55:3d:11:
         01:c6:bf:0b:61:1b:cc:30:47:ab:cf:fb:72:62:f3:eb:66:11:
         cd:1c:ab:4e:29:bf:b7:78:d6:09:ec:d7:67:5b:17:b9:34:cc:
         af:5e:d9:02:0b:33:fc:a1:f2:64:33:c4:af:11:5b:08:f7:af:
         ba:0d:68:d7:cf:d2:40:2f:56:20:34:da:82:18:7c:0e:71:61:
         a6:58:60:00:30:a6:c7:25:3a:90:70:a0:14:e6:da:d8:12:e9:
         b3:6a:c4:96:85:41:80:a6:71:17:b5:cf:4f:a2:2d:51:93:fd:
         26:eb:44:3c:2a:84:6a:da:18:10:d6:48:e3:8e:0f:c9:69:05:
         96:8c:96:f9:74:06:ab:11:d2:e4:e5:d7:22:db:13:93:d6:f9:
         24:84:56:7c:6a:43:a9:b8:30:33:2c:a4:42:9f:ec:f6:56:2d:
         46:cf:ec:26:49:5e:da:53:21:6b:8c:05:0d:b7:12:26:29:43:
         32:b2:6c:ed:07:47:75:2b:0b:7e:5d:28:1b:5b:7b:b5:63:13:
         55:4d:f7:a3:f6:fd:2d:f5:6d:43:83:40:46:b3:0d:d6:28:99:
         d4:fb:89:fb:41:c6:15:35:a5:ee:1a:08:33:b3:0b:75:0a:d0:
         fc:31:ec:77:80:e2:f0:ab:20:cc:43:24:67:42:a5:d7:e6:b0:
         b9:84:fd:43:a0:5e:d9:78:10:97:d3:d1:b7:d9:33:70:0f:4d:
         f0:a1:ac:22:d7:36:53:68:6d:39:e0:14:dc:d7:ea:1e:c2:92:
         1b:f8:2a:99:97:14:76:2c:89:3f:b7:89:c7:69:6e:5b:dd:8e:
         47:7a:f0:0e:a4:d0:18:c6:c4:34:f0:b8:84:3a:6e:ee:1e:7b:
         84:58:d2:10:a6:a2:0c:14:a8:55:e9:c5:7e:ab:97:e4:9d:b5:
         f0:9f:2e:36:ac:2f:73:30:c8:b1:fc:b4:ce:b4:39:bd:59:75:
         b8:24:5a:b1:67:de:34:3f:4e:17:5d:d3:bc:bb:6a:6a:b7:3e:
         0b:e8:4d:3b:08:d6:de:a7:9a:d7:8d:60:56:bb:3e:6c:d0:a7:
         f8:45:a2:52:a3:b5:1e:ef:56:df:14:62:52:ed:36:ab:cc:7a:
         a1:96:14:9a:e9:de:4a:28:68:bd:21:2d:60:d5:06:8a:e9:5e:
         b6:ce:e1:b4:ed:56:9f:99:87:fe:20:bb:d5:8d:0d:72:1d:7e:
         88:27:9c:66:d5:26:aa:32:0a:ad:64:de:b8:13:2d:51:cc:8b:
         e2:f4:c1:63:a6:64:e8:03:08:42:38:bf:f4:fe:b3:25:03:1b:
         14:b9:68:81:14:b9:5d:b9:6a:eb:f0:a9:24:41:8e:49:03:be:
         0b:55:cf:ac:77:68:ed:54:ae:55:40:dd:31:c4:3a:e2:d7:86:
         d5:d5:e4:5e:5b:ce:9e:da:a1:90:58:e1:b3:7c:a6:87:15:bd:
         3a:67:b9:ab:29:de:4f:af:08:98:89:45:62:8f:db:5b:2e:2b:
         e8:97:35:a2:fc:4f:cf:63:7d:56:a0:51:dd:3f:b2:90:a6:9b:
         a0:9b:9e:93:8d:9d:92:b2:ed:36:d5:e1:f1:e3:97:dc
-----BEGIN CERTIFICATE-----
MIII/TCCBOWgAwIBAgIBATANBgkqhkiG9w0BAQsFADCBxjELMAkGA1UEBhMCVVMx
EzARBgNVBAgMClNhbWJhU3RhdGUxEjAQBgNVBAcMCVNhbWJhQ2l0eTEZMBcGA1UE
CgwQU2FtYmFTZWxmVGVzdGluZzEaMBgGA1UECwwRQ0EgQWRtaW5pc3RyYXRpb24x
IDAeBgNVBAMMF0NBIG9mIHNhbWJhLmV4YW1wbGUuY29tMTUwMwYJKoZIhvcNAQkB
FiZjYS1zYW1iYS5leGFtcGxlLmNvbUBzYW1iYS5leGFtcGxlLmNvbTAeFw0xNjAz
MTgxMTQ1MTFaFw0zNjAzMTMxMTQ1MTFaMIGnMQswCQYDVQQGEwJVUzETMBEGA1UE
CAwKU2FtYmFTdGF0ZTEZMBcGA1UECgwQU2FtYmFTZWxmVGVzdGluZzEOMAwGA1UE
CwwFVXNlcnMxKDAmBgNVBAMMH2FkbWluaXN0cmF0b3JAc2FtYmEuZXhhbXBsZS5j
b20xLjAsBgkqhkiG9w0BCQEWH2FkbWluaXN0cmF0b3JAc2FtYmEuZXhhbXBsZS5j
b20wggEiMA0GCSqGSIb3DQEBAQUAA4IBDwAwggEKAoIBAQDJB0Q6X/Y0XyeKem4v
+0Ufwz3dLENl8XopP0Imvf9PXZHAu3XjgRR9WXJ4lhpejZWT9F2SeQ4kd0+LCE5y
sZmIYwZ0stz3gmLp3W/lp7TJRAzkQ0H4V6kgsXDBdqFIW+lUtk8iUJOQ8GIyUJpu
Ims3oPcf/LFfruILiG3qKbYBJ7KE7xBNbArf6qmKgphgp1JzpPd8skq58JvE+Bla
wIRUUjXIkk8Wr9Y2pnhXVeVea2IA+kjCeucXOLUj1aj7fd9CXAP0fO//8aDm2CeT
BrOjIWgOxGAgAkYvK9iI5CsBwjFaVSi+VQPyBivk7Ehg5LbbofDFJLrhqOJq+wtA
bD31AgMBAAGjggIRMIICDTAJBgNVHRMEAjAAME8GA1UdHwRIMEYwRKBCoECGPmh0
dHA6Ly93d3cuc2FtYmEuZXhhbXBsZS5jb20vY3Jscy9DQS1zYW1iYS5leGFtcGxl
LmNvbS1jcmwuY3JsMBEGCWCGSAGG+EIBAQQEAwIFoDALBgNVHQ8EBAMCBeAwTwYJ
YIZIAYb4QgENBEIWQFNtYXJ0IENhcmQgTG9naW4gQ2VydGlmaWNhdGUgZm9yIGFk
bWluaXN0cmF0b3JAc2FtYmEuZXhhbXBsZS5jb20wHQYDVR0OBBYEFHCG7Gi0UYoc
EmWgKrNDMxJlg41AMB8GA1UdIwQYMBaAFEaHhsLnGc8WTAxiy3N//Y8Z5LVCMFsG
A1UdEQRUMFKBH2FkbWluaXN0cmF0b3JAc2FtYmEuZXhhbXBsZS5jb22gLwYKKwYB
BAGCNxQCA6AhDB9hZG1pbmlzdHJhdG9yQHNhbWJhLmV4YW1wbGUuY29tMDEGA1Ud
EgQqMCiBJmNhLXNhbWJhLmV4YW1wbGUuY29tQHNhbWJhLmV4YW1wbGUuY29tME0G
CWCGSAGG+EIBBARAFj5odHRwOi8vd3d3LnNhbWJhLmV4YW1wbGUuY29tL2NybHMv
Q0Etc2FtYmEuZXhhbXBsZS5jb20tY3JsLmNybDAfBgNVHSUEGDAWBggrBgEFBQcD
AgYKKwYBBAGCNxQCAjANBgkqhkiG9w0BAQsFAAOCBAEAXbEQ+Dbdqf2NvjFTHc+1
6jMahQ8TjcxnkUGX5OlnagzOpJoGs1O/5m3x0TJ9VF1qqJT+1PZihQ/gc/jOUTIY
ZVA0+fJm+Oz9lMIdKG/OPLMKCsyL+yzoRNLYZNcZHKQlX3VjvERWZMvKjEN1HpU2
mKHGSeYUYK2Hka/YPNJjUoICCkLA43tQUTfVwKUMCawtoLMp5J6/098BggClrfs1
6PYc18vRPFQf0nM4zqYK4ncK/OX/fmimx1f9x8+VSJ+Xb/4un+PWsKW1M58SweYS
FXczjx41tYj4a0eI5MtJ9xG6GTlVXkpaZXZ+zDqn+pGa77XBv/DnosafCBf8TKTv
C9jHpPl0NrNnkF6EJoO9NokNxowdA86PgMkMxsAe60Lnl38hrLFkBvYdbQyH/8kw
I9MhH1MFaSHVJsp/zjpOjdFAFn6iwA+VDGeQR9Liz4fv3DUYKqIhzWewshSfdZST
uoxNRXHL6d/N9ePw/8M4d8JBVdZglti9Xwkil0SNTbHdaDkEG3pXO8pWJ4cxVYRs
8GWv7AtShygLLVLAzqN9e0cH34pl6W/a57aUBmm4VT0RAca/C2EbzDBHq8/7cmLz
62YRzRyrTim/t3jWCezXZ1sXuTTMr17ZAgsz/KHyZDPErxFbCPevug1o18/SQC9W
IDTaghh8DnFhplhgADCmxyU6kHCgFOba2BLps2rEloVBgKZxF7XPT6ItUZP9JutE
PCqEatoYENZI444PyWkFloyW+XQGqxHS5OXXItsTk9b5JIRWfGpDqbgwMyykQp/s
9lYtRs/sJkle2lMha4wFDbcSJilDMrJs7QdHdSsLfl0oG1t7tWMTVU33o/b9LfVt
Q4NARrMN1iiZ1PuJ+0HGFTWl7hoIM7MLdQrQ/DHsd4Di8KsgzEMkZ0Kl1+awuYT9
Q6Be2XgQl9PRt9kzcA9N8KGsItc2U2htOeAU3NfqHsKSG/gqmZcUdiyJP7eJx2lu
W92OR3rwDqTQGMbENPC4hDpu7h57hFjSEKaiDBSoVenFfquX5J218J8uNqwvczDI
sfy0zrQ5vVl1uCRasWfeND9OF13TvLtqarc+C+hNOwjW3qea141gVrs+bNCn+EWi
UqO1Hu9W3xRiUu02q8x6oZYUmuneSihovSEtYNUGiulets7htO1Wn5mH/iC71Y0N
ch1+iCecZtUmqjIKrWTeuBMtUcyL4vTBY6Zk6AMIQji/9P6zJQMbFLlogRS5Xblq
6/CpJEGOSQO+C1XPrHdo7VSuVUDdMcQ64teG1dXkXlvOntqhkFjhs3ymhxW9Ome5
qyneT68ImIlFYo/bWy4r6Jc1ovxPz2N9VqBR3T+ykKaboJuek42dkrLtNtXh8eOX
3A==
-----END CERTIFICATE-----
