Certificate:
    Data:
        Version: 3 (0x2)
        Serial Number: 3 (0x3)
    Signature Algorithm: sha256WithRSAEncryption
        Issuer: C=US, ST=SambaState, L=SambaCity, O=SambaSelfTesting, OU=CA Administration, CN=CA of samba.example.com/emailAddress=ca-samba.example.com@samba.example.com
        Validity
            Not Before: Mar 16 23:29:41 2016 GMT
            Not After : Mar 11 23:29:41 2036 GMT
        Subject: C=US, ST=SambaState, O=SambaSelfTesting, OU=Users, CN=administrator@addom.samba.example.com/emailAddress=administrator@addom.samba.example.com
        Subject Public Key Info:
            Public Key Algorithm: rsaEncryption
                Public-Key: (2048 bit)
                Modulus:
                    00:be:91:64:f2:1b:2b:ed:9b:40:bc:0d:46:23:49:
                    77:32:74:fe:cb:9a:46:86:33:1e:56:bd:c8:da:dd:
                    e6:2a:07:34:61:1c:f0:b8:71:29:24:2b:90:f3:43:
                    99:6f:69:f6:ff:8d:b9:b7:3f:f3:36:6a:99:90:90:
                    d6:95:63:4e:88:5a:d7:41:89:7f:73:13:64:49:c7:
                    de:42:65:08:5d:ca:04:b2:68:3a:40:7f:6a:05:df:
                    56:30:2f:ac:1b:8b:0f:c3:15:3c:38:0f:90:50:44:
                    00:bb:59:40:f6:d2:e8:5b:73:03:0d:f6:7d:38:5d:
                    2f:99:c3:0d:13:0f:74:d0:9e:ef:1e:92:42:c4:46:
                    7c:dc:85:7e:e9:af:91:4e:9d:5f:82:af:58:60:18:
                    a5:ac:91:6e:dd:cf:a7:32:3c:d2:f4:e9:81:be:80:
                    9e:0c:ca:1f:1a:be:98:c4:fe:e6:25:c1:89:fe:16:
                    0a:30:90:d3:d4:e5:af:89:24:64:12:d0:4f:19:e2:
                    1b:86:fb:06:a9:63:d1:47:10:89:dc:2b:52:24:dc:
                    66:a9:56:c2:cb:f4:ec:35:12:f4:ad:5e:fc:ff:86:
                    e9:b1:f9:1f:b3:ce:44:fb:be:04:af:8d:42:9b:56:
                    a5:02:7f:c5:cf:5f:23:41:1c:69:ee:33:97:7a:81:
                    50:8b
                Exponent: 65537 (0x10001)
        X509v3 extensions:
            X509v3 Basic Constraints: 
                CA:FALSE
            X509v3 CRL Distribution Points: 

                Full Name:
                  URI:http://www.samba.example.com/crls/CA-samba.example.com-crl.crl

            Netscape Cert Type: 
                SSL Client, S/MIME
            X509v3 Key Usage: 
                Digital Signature, Non Repudiation, Key Encipherment
            Netscape Comment: 
                Smart Card Login Certificate for administrator@addom.samba.example.com
            X509v3 Subject Key Identifier: 
                30:10:6E:1F:7E:52:33:8C:C8:85:E5:92:74:5D:76:7E:E9:33:5B:36
            X509v3 Authority Key Identifier: 
                keyid:A2:3E:02:2A:A3:A7:4D:39:B4:08:4D:99:CC:0C:75:36:EA:27:C3:3E

            X509v3 Subject Alternative Name: 
                email:administrator@addom.samba.example.com, othername:<unsupported>
            X509v3 Issuer Alternative Name: 
                email:ca-samba.example.com@samba.example.com
            Netscape CA Revocation Url: 
                http://www.samba.example.com/crls/CA-samba.example.com-crl.crl
            X509v3 Extended Key Usage: 
                TLS Web Client Authentication, scardLogin
    Signature Algorithm: sha256WithRSAEncryption
         53:3e:51:d2:5d:2c:69:23:5b:dd:05:1a:23:ff:39:5d:54:63:
         e5:da:e1:4b:60:8c:09:7c:4e:8e:da:8a:bb:63:5d:bc:2d:a0:
         d4:ce:9e:d2:ce:38:d7:32:67:ba:4a:a6:d1:1d:c4:c7:50:e8:
         9a:9e:44:56:1a:9c:f4:8f:b9:8e:39:84:21:db:0f:60:8a:60:
         b4:0f:4f:3c:35:a0:d2:37:3d:88:e8:0a:18:a7:a7:2d:19:e3:
         aa:d3:8e:18:8f:35:ef:3e:4a:95:c4:d3:9b:f4:cf:89:c2:70:
         b9:8c:5c:ef:8a:9e:7a:56:73:13:eb:8b:b7:d9:e1:88:5b:c4:
         62:47:42:45:8d:7b:2d:cf:71:83:1b:48:9d:84:8f:65:66:97:
         61:fc:f6:30:34:e8:88:2a:34:91:48:dc:7a:b7:65:bc:9c:98:
         00:4c:e7:49:fe:4d:a9:56:ea:87:d6:6c:46:39:f2:98:5b:56:
         14:82:f2:9e:b8:ad:fd:89:36:48:87:4e:5c:ef:3f:e0:35:ff:
         72:5f:5b:e1:c2:fd:d9:6e:40:2b:35:ad:50:08:74:94:87:89:
         c4:cd:c7:ab:a7:19:4e:ba:f2:1d:83:0f:b0:cf:9c:e6:df:73:
         36:88:cf:42:9c:a3:72:27:0f:f7:bf:5b:cc:6b:e5:20:03:b5:
         4a:1c:f3:7d:ae:92:43:aa:bb:13:07:a4:3a:77:3d:34:01:00:
         f1:89:aa:e8:1b:09:7b:b8:b0:e1:54:03:ff:3d:8d:be:35:b9:
         13:b2:59:58:32:48:93:f8:e7:d7:3d:49:70:01:44:e6:2b:21:
         b3:75:49:ae:44:7a:50:15:b8:65:f3:c3:48:96:df:c8:d9:2a:
         f7:c5:2a:7e:2c:68:77:af:2d:78:1b:fc:1a:d8:f4:8b:a6:86:
         35:d2:f0:87:e9:d6:30:0a:76:65:f8:71:e9:80:0d:1f:16:86:
         89:92:81:34:d9:be:9b:41:25:ec:65:a9:0a:56:b2:03:91:54:
         02:21:97:99:74:61:8c:4a:2e:f4:d0:b1:8b:f1:e6:26:52:bc:
         f6:f2:e0:bd:96:66:22:c3:4e:51:2f:c3:c4:65:65:c7:97:b5:
         1b:29:23:7a:c0:7b:fb:49:33:a0:a9:6a:b7:2f:f3:44:6b:5b:
         0c:2c:0d:75:f2:50:d5:82:ba:9a:ab:e0:89:0a:b6:b5:8a:5e:
         1a:67:ab:d9:a7:21:22:75:61:1e:d7:21:36:15:6a:da:a8:39:
         4d:95:50:2b:e6:ac:c4:f6:38:74:c9:c5:ac:ce:2f:b3:c8:d4:
         ad:18:a7:93:d4:1a:be:c2:be:9e:39:e6:a7:b1:0e:93:d0:9e:
         cf:b0:ac:53:7d:08:1f:9d:a5:98:2b:4e:f6:80:e4:df:ea:43:
         a2:f9:64:bf:84:b2:ff:1c:93:36:60:74:08:4e:5b:d6:24:9a:
         f8:ac:c7:81:f9:2a:a9:00:28:44:15:6a:31:b9:b5:08:89:c8:
         31:15:1e:8f:9d:2c:d0:e3:a8:32:2c:68:42:41:19:6c:43:8e:
         69:c0:44:01:ba:1c:c4:ea:f4:ff:c8:57:03:ba:df:3f:5e:a5:
         03:da:75:31:2e:07:67:a7:5c:02:55:c3:6f:8f:11:f5:8c:56:
         a1:f7:4b:bb:46:d0:e5:ff:68:c1:77:3d:0d:35:12:f5:40:af:
         cd:05:5c:53:74:ff:54:e0:c0:c6:10:5c:e8:33:06:0a:50:47:
         7e:71:3a:36:66:aa:f8:de:97:2a:ae:bf:8d:6d:d4:39:c4:fd:
         b3:03:1d:a5:9c:47:39:8c:c0:b3:73:f8:3a:d6:34:ac:49:4f:
         b3:87:74:11:20:8f:c0:aa:24:a7:30:20:0c:c0:d9:1c:44:ee:
         ae:c8:b8:13:63:e5:f8:5e:8f:b0:5a:46:c5:83:3d:41:62:06:
         e4:62:a6:0a:40:cc:8e:59:ad:8a:36:4e:20:e6:f2:32:04:6e:
         ee:4e:7d:97:88:dc:ea:74:90:c4:ab:a8:b5:bc:6c:81:b1:64:
         77:a6:93:34:44:e4:60:38:b1:0c:2b:29:3a:4a:f7:17:d7:3a:
         c8:42:7e:db:4d:5f:09:92:ae:6c:90:e1:7d:9f:96:9c:1a:82:
         bd:45:02:76:29:62:e5:b9:14:53:01:53:c0:5a:d5:34:53:7a:
         25:49:3e:3d:db:19:7e:29:57:80:78:67:ea:21:3e:3d:59:36:
         e0:8b:da:75:57:9b:c8:9d:a1:18:18:e2:5c:35:35:9e:62:2c:
         f5:0f:c0:8f:55:16:a5:d4:9e:cd:0e:78:87:9d:53:d3:01:e1:
         18:61:36:1c:06:c3:3a:43:f3:8a:13:e6:4e:52:32:fd:46:21:
         cd:62:18:1f:ae:f5:f2:1a:ea:7a:01:3b:a1:3f:1d:16:00:91:
         5e:94:78:f4:60:33:54:a9:fc:1c:0a:75:f9:17:aa:dd:12:91:
         66:4b:f0:d1:60:25:d4:06:d1:99:9c:c5:64:01:4b:ba:d9:66:
         ba:9c:f7:68:75:fd:11:3a:eb:6e:fb:8f:a6:17:8a:cd:bc:1a:
         59:f9:a9:cd:33:db:7d:71:26:7d:c7:be:de:eb:2e:c0:7e:db:
         29:08:0e:82:63:1e:8c:8f:e6:21:1c:b1:49:13:9e:df:78:3b:
         68:01:17:0f:df:97:96:58:32:48:1e:5c:ff:fa:db:90:b5:05:
         84:68:fd:7c:c0:a5:35:d9:75:1e:ea:cc:25:25:3f:6e
-----BEGIN CERTIFICATE-----
MIIJGzCCBQOgAwIBAgIBAzANBgkqhkiG9w0BAQsFADCBxjELMAkGA1UEBhMCVVMx
EzARBgNVBAgMClNhbWJhU3RhdGUxEjAQBgNVBAcMCVNhbWJhQ2l0eTEZMBcGA1UE
CgwQU2FtYmFTZWxmVGVzdGluZzEaMBgGA1UECwwRQ0EgQWRtaW5pc3RyYXRpb24x
IDAeBgNVBAMMF0NBIG9mIHNhbWJhLmV4YW1wbGUuY29tMTUwMwYJKoZIhvcNAQkB
FiZjYS1zYW1iYS5leGFtcGxlLmNvbUBzYW1iYS5leGFtcGxlLmNvbTAeFw0xNjAz
MTYyMzI5NDFaFw0zNjAzMTEyMzI5NDFaMIGzMQswCQYDVQQGEwJVUzETMBEGA1UE
CAwKU2FtYmFTdGF0ZTEZMBcGA1UECgwQU2FtYmFTZWxmVGVzdGluZzEOMAwGA1UE
CwwFVXNlcnMxLjAsBgNVBAMMJWFkbWluaXN0cmF0b3JAYWRkb20uc2FtYmEuZXhh
bXBsZS5jb20xNDAyBgkqhkiG9w0BCQEWJWFkbWluaXN0cmF0b3JAYWRkb20uc2Ft
YmEuZXhhbXBsZS5jb20wggEiMA0GCSqGSIb3DQEBAQUAA4IBDwAwggEKAoIBAQC+
kWTyGyvtm0C8DUYjSXcydP7LmkaGMx5Wvcja3eYqBzRhHPC4cSkkK5DzQ5lvafb/
jbm3P/M2apmQkNaVY06IWtdBiX9zE2RJx95CZQhdygSyaDpAf2oF31YwL6wbiw/D
FTw4D5BQRAC7WUD20uhbcwMN9n04XS+Zww0TD3TQnu8ekkLERnzchX7pr5FOnV+C
r1hgGKWskW7dz6cyPNL06YG+gJ4Myh8avpjE/uYlwYn+FgowkNPU5a+JJGQS0E8Z
4huG+wapY9FHEIncK1Ik3GapVsLL9Ow1EvStXvz/humx+R+zzkT7vgSvjUKbVqUC
f8XPXyNBHGnuM5d6gVCLAgMBAAGjggIjMIICHzAJBgNVHRMEAjAAME8GA1UdHwRI
MEYwRKBCoECGPmh0dHA6Ly93d3cuc2FtYmEuZXhhbXBsZS5jb20vY3Jscy9DQS1z
YW1iYS5leGFtcGxlLmNvbS1jcmwuY3JsMBEGCWCGSAGG+EIBAQQEAwIFoDALBgNV
HQ8EBAMCBeAwVQYJYIZIAYb4QgENBEgWRlNtYXJ0IENhcmQgTG9naW4gQ2VydGlm
aWNhdGUgZm9yIGFkbWluaXN0cmF0b3JAYWRkb20uc2FtYmEuZXhhbXBsZS5jb20w
HQYDVR0OBBYEFDAQbh9+UjOMyIXlknRddn7pM1s2MB8GA1UdIwQYMBaAFKI+Aiqj
p005tAhNmcwMdTbqJ8M+MGcGA1UdEQRgMF6BJWFkbWluaXN0cmF0b3JAYWRkb20u
c2FtYmEuZXhhbXBsZS5jb22gNQYKKwYBBAGCNxQCA6AnDCVhZG1pbmlzdHJhdG9y
QGFkZG9tLnNhbWJhLmV4YW1wbGUuY29tMDEGA1UdEgQqMCiBJmNhLXNhbWJhLmV4
YW1wbGUuY29tQHNhbWJhLmV4YW1wbGUuY29tME0GCWCGSAGG+EIBBARAFj5odHRw
Oi8vd3d3LnNhbWJhLmV4YW1wbGUuY29tL2NybHMvQ0Etc2FtYmEuZXhhbXBsZS5j
b20tY3JsLmNybDAfBgNVHSUEGDAWBggrBgEFBQcDAgYKKwYBBAGCNxQCAjANBgkq
hkiG9w0BAQsFAAOCBAEAUz5R0l0saSNb3QUaI/85XVRj5drhS2CMCXxOjtqKu2Nd
vC2g1M6e0s441zJnukqm0R3Ex1Domp5EVhqc9I+5jjmEIdsPYIpgtA9PPDWg0jc9
iOgKGKenLRnjqtOOGI817z5KlcTTm/TPicJwuYxc74qeelZzE+uLt9nhiFvEYkdC
RY17Lc9xgxtInYSPZWaXYfz2MDToiCo0kUjcerdlvJyYAEznSf5NqVbqh9ZsRjny
mFtWFILynrit/Yk2SIdOXO8/4DX/cl9b4cL92W5AKzWtUAh0lIeJxM3Hq6cZTrry
HYMPsM+c5t9zNojPQpyjcicP979bzGvlIAO1Shzzfa6SQ6q7EwekOnc9NAEA8Ymq
6BsJe7iw4VQD/z2NvjW5E7JZWDJIk/jn1z1JcAFE5ishs3VJrkR6UBW4ZfPDSJbf
yNkq98Uqfixod68teBv8Gtj0i6aGNdLwh+nWMAp2Zfhx6YANHxaGiZKBNNm+m0El
7GWpClayA5FUAiGXmXRhjEou9NCxi/HmJlK89vLgvZZmIsNOUS/DxGVlx5e1Gykj
esB7+0kzoKlqty/zRGtbDCwNdfJQ1YK6mqvgiQq2tYpeGmer2achInVhHtchNhVq
2qg5TZVQK+asxPY4dMnFrM4vs8jUrRink9QavsK+njnmp7EOk9Cez7CsU30IH52l
mCtO9oDk3+pDovlkv4Sy/xyTNmB0CE5b1iSa+KzHgfkqqQAoRBVqMbm1CInIMRUe
j50s0OOoMixoQkEZbEOOacBEAbocxOr0/8hXA7rfP16lA9p1MS4HZ6dcAlXDb48R
9YxWofdLu0bQ5f9owXc9DTUS9UCvzQVcU3T/VODAxhBc6DMGClBHfnE6Nmaq+N6X
Kq6/jW3UOcT9swMdpZxHOYzAs3P4OtY0rElPs4d0ESCPwKokpzAgDMDZHETursi4
E2Pl+F6PsFpGxYM9QWIG5GKmCkDMjlmtijZOIObyMgRu7k59l4jc6nSQxKuotbxs
gbFkd6aTNETkYDixDCspOkr3F9c6yEJ+201fCZKubJDhfZ+WnBqCvUUCdili5bkU
UwFTwFrVNFN6JUk+PdsZfilXgHhn6iE+PVk24IvadVebyJ2hGBjiXDU1nmIs9Q/A
j1UWpdSezQ54h51T0wHhGGE2HAbDOkPzihPmTlIy/UYhzWIYH6718hrqegE7oT8d
FgCRXpR49GAzVKn8HAp1+Req3RKRZkvw0WAl1AbRmZzFZAFLutlmupz3aHX9ETrr
bvuPpheKzbwaWfmpzTPbfXEmfce+3usuwH7bKQgOgmMejI/mIRyxSROe33g7aAEX
D9+XllgySB5c//rbkLUFhGj9fMClNdl1HurMJSU/bg==
-----END CERTIFICATE-----
