Certificate:
    Data:
        Version: 3 (0x2)
        Serial Number: 4 (0x4)
    Signature Algorithm: sha256WithRSAEncryption
        Issuer: C=US, ST=SambaState, L=SambaCity, O=SambaSelfTesting, OU=CA Administration, CN=CA of samba.example.com/emailAddress=ca-samba.example.com@samba.example.com
        Validity
            Not Before: Jun  3 19:30:29 2016 GMT
            Not After : May 29 19:30:29 2036 GMT
        Subject: C=US, ST=SambaState, O=SambaSelfTesting, OU=Users, CN=pkinit@samba.example.com/emailAddress=pkinit@samba.example.com
        Subject Public Key Info:
            Public Key Algorithm: rsaEncryption
                Public-Key: (2048 bit)
                Modulus:
                    00:dd:c4:48:44:a5:e9:6b:b4:41:03:6a:dc:34:1f:
                    d6:41:ce:f7:cb:b2:44:a7:a3:0e:89:16:ff:0d:62:
                    23:e0:8b:24:db:82:82:68:29:22:1b:57:44:12:c6:
                    ea:10:2d:6f:3a:4b:75:b1:2e:76:62:01:62:ff:ba:
                    3d:67:e1:39:0d:12:38:b0:fc:b3:e5:0e:dd:77:73:
                    2b:99:25:86:d5:15:84:08:be:b0:8b:38:d7:64:9d:
                    d6:e7:dc:4d:9a:fb:ea:17:41:bb:d1:cf:1a:b9:5b:
                    0b:8a:e5:8c:5a:b7:2d:ab:bd:f7:c3:91:ae:26:c2:
                    e3:97:27:ea:3f:be:c9:22:af:d6:76:35:45:b0:72:
                    86:f2:bd:bf:e2:d3:e3:e3:68:52:26:db:f0:a6:6a:
                    0e:63:05:9b:17:6d:13:ee:c4:15:41:96:27:06:90:
                    fd:10:b5:f9:6c:74:be:b0:a8:bb:70:f7:a2:25:da:
                    f7:f1:91:c2:69:6c:40:c4:63:e8:06:83:e0:1d:b7:
                    2b:29:d3:75:d1:df:c1:d2:90:af:b9:81:47:78:f3:
                    f1:1a:c9:20:e3:1b:6f:e4:fd:2e:0b:65:a7:6f:b1:
                    b2:a0:d3:e3:d2:2f:2b:ef:fd:01:5b:27:e7:1b:c1:
                    0e:bc:bd:f0:7b:b2:34:a9:9b:4d:2c:c8:65:33:c8:
                    33:17
                Exponent: 65537 (0x10001)
        X509v3 extensions:
            X509v3 Basic Constraints: 
                CA:FALSE
            X509v3 CRL Distribution Points: 

                Full Name:
                  URI:http://www.samba.example.com/crls/CA-samba.example.com-crl.crl

            Netscape Cert Type: 
                SSL Client, S/MIME
            X509v3 Key Usage: 
                Digital Signature, Non Repudiation, Key Encipherment
            Netscape Comment: 
                Smart Card Login Certificate for pkinit@samba.example.com
            X509v3 Subject Key Identifier: 
                E9:67:66:B8:3D:F1:39:AB:1A:4D:00:9D:EC:CE:FF:4B:50:D8:5D:A2
            X509v3 Authority Key Identifier: 
                keyid:A2:3E:02:2A:A3:A7:4D:39:B4:08:4D:99:CC:0C:75:36:EA:27:C3:3E

            X509v3 Subject Alternative Name: 
                email:pkinit@samba.example.com, othername:<unsupported>
            X509v3 Issuer Alternative Name: 
                email:ca-samba.example.com@samba.example.com
            Netscape CA Revocation Url: 
                http://www.samba.example.com/crls/CA-samba.example.com-crl.crl
            X509v3 Extended Key Usage: 
                TLS Web Client Authentication, scardLogin
    Signature Algorithm: sha256WithRSAEncryption
         88:3e:f3:98:08:ef:cd:53:3a:07:d5:1c:fd:26:7c:f1:96:2e:
         b9:06:87:f2:5b:e2:be:d1:04:6e:38:59:14:49:9d:46:ef:7e:
         6c:08:02:3e:18:09:09:61:a8:1d:a9:da:59:40:58:5f:d2:ca:
         4f:76:0e:7e:01:db:05:03:fb:78:c7:89:86:aa:1b:dc:02:bb:
         86:a5:02:7c:01:54:dd:ad:e0:43:c5:d9:ec:86:c2:47:b5:5a:
         1c:8c:06:0e:fe:11:ad:a5:57:37:f5:0a:35:65:a4:f2:27:14:
         2f:bf:53:48:66:e1:da:b9:58:95:a2:d1:95:9c:ae:0a:ca:29:
         a6:ef:7a:58:74:86:40:ea:2a:c6:18:9f:1a:d9:70:e2:a8:aa:
         8d:f1:22:bf:b6:e4:61:d4:21:ee:bf:17:e1:aa:d1:cf:0b:35:
         82:c7:3f:a1:be:d1:a5:bd:4e:04:0d:cf:11:2d:d6:0c:7e:47:
         5c:5e:84:d2:10:60:7e:97:d7:52:be:a1:cd:2d:85:da:b2:dd:
         68:88:12:a4:88:5f:16:0c:ae:6f:60:7f:da:58:5f:91:bd:8d:
         15:20:c2:74:94:0b:93:65:80:7c:77:15:a2:70:bb:98:be:41:
         1a:2e:c5:78:52:64:e7:44:03:3f:64:97:10:a9:1b:17:f3:79:
         f9:51:0c:4c:58:e7:03:e7:bb:fd:34:ff:c0:4a:ad:b1:7a:ba:
         97:3c:f8:e0:9e:30:3d:e7:5f:be:ac:6a:b3:c1:1e:50:7c:cd:
         ce:18:bd:96:73:fb:9c:90:e7:ae:e0:be:c5:65:29:9a:1c:da:
         c3:64:2a:99:dc:93:61:32:9a:70:1a:45:83:72:38:0f:57:de:
         0d:f5:64:71:97:de:b5:64:99:43:30:6d:3f:25:82:b5:3e:a1:
         ba:39:d2:fc:b8:df:7e:57:da:fc:be:c2:84:2e:99:41:52:a2:
         18:f4:99:c7:e2:b9:af:2a:84:32:5c:cb:ba:26:86:6b:8e:58:
         30:d8:4f:5b:60:34:fd:30:de:c5:a0:7a:8c:e7:34:2b:bc:81:
         6d:4c:a8:b5:ba:b5:52:b9:42:e5:d8:7e:be:31:a3:8e:b0:c3:
         f6:16:28:92:e7:9d:3f:c8:cf:a0:4a:b0:3a:ae:75:59:ab:19:
         91:e4:2e:76:57:3f:58:88:5f:2e:7b:c5:8f:11:25:0f:cd:8f:
         e3:91:80:2f:d4:7b:5a:80:c3:c9:7c:0a:aa:01:bf:5c:8c:0e:
         57:84:bf:72:ad:7b:0a:b9:95:27:0f:aa:9b:96:08:8e:bb:63:
         56:5a:1d:ad:0c:5b:1c:04:38:ae:2b:88:d4:d1:68:20:f2:a0:
         9b:77:9c:95:db:17:cb:cf:79:4a:13:66:c9:34:36:f6:c6:f9:
         8b:4b:92:5e:59:a3:5d:75:4e:fa:f2:fa:d5:d9:66:80:82:a4:
         8d:e2:d8:b6:ed:c5:a3:ca:a2:70:64:9c:b9:1c:49:b2:2f:46:
         b3:13:3b:88:a7:5a:8e:22:b7:90:f5:74:27:21:06:a4:94:bb:
         b1:cb:e7:e4:92:f0:e9:80:15:94:82:1a:97:34:d0:cf:aa:37:
         b1:27:a5:38:39:7c:8d:ba:a1:12:dd:30:48:44:90:0c:35:0f:
         cc:e6:13:e7:c9:06:36:1d:b0:c9:be:28:0f:47:1c:b0:47:a3:
         20:d1:bb:a1:85:1a:80:c2:9b:70:61:9f:a7:82:46:3c:80:28:
         0c:17:f6:fc:75:83:be:ff:5c:da:bc:be:2c:65:a6:c0:fc:c1:
         32:ae:9a:bf:d1:7c:fb:b3:26:3b:77:03:fe:a9:e9:ae:4c:72:
         58:a9:6e:ce:ad:c0:1f:30:b2:06:32:65:af:5f:db:3d:2b:ab:
         c5:46:5c:0a:df:50:b5:7e:31:c8:b0:7e:50:e2:aa:d8:01:8e:
         ea:e7:3c:8b:90:73:de:77:9f:47:ea:af:16:0d:a5:c0:89:6f:
         86:a4:84:f7:1f:03:fd:7d:f8:a8:7d:9c:9a:f1:13:c8:d5:5b:
         9c:2f:71:c1:c0:c2:17:89:39:6d:28:2d:20:31:ca:60:cf:7f:
         78:42:5c:a3:28:76:19:a8:ca:e6:07:22:6d:7f:04:b1:20:ab:
         70:40:33:e9:a3:fa:da:b5:7c:ee:70:0b:c6:a2:6a:90:1a:10:
         fe:8a:9b:56:5c:44:85:f1:b4:41:67:0b:c1:a3:68:2f:ff:b1:
         48:f3:38:4b:28:4e:52:36:0c:9b:37:aa:7e:82:63:c3:61:33:
         a9:05:b3:af:13:07:b3:9e:4d:4c:3c:c4:47:34:ce:f3:6e:55:
         69:d7:af:dc:e4:82:34:9b:fe:cc:d9:db:1f:08:3e:3c:3a:9b:
         ac:a7:7e:61:3f:5f:01:0c:d8:f3:63:31:31:07:e2:05:84:30:
         65:f4:b0:a6:cc:ad:63:fe:06:db:d7:e9:2f:9d:db:2c:64:af:
         d6:d1:cc:9e:c3:11:09:ad:7d:e2:06:6d:21:ad:a5:4f:a6:87:
         9b:ee:db:6c:e9:69:a7:6a:eb:93:67:e2:e9:6f:23:f8:2e:95:
         78:5f:a8:66:ae:7e:2c:5e:6b:07:3e:02:ad:20:af:61:9c:0e:
         1d:c6:7a:31:5a:33:bd:61:1a:67:5b:a9:42:3c:17:67:f8:dd:
         80:e3:ab:62:a0:42:53:33:1f:f7:79:ea:32:d1:26:dd:bb:c6:
         26:aa:2c:ac:16:7e:24:b4:ae:7d:ce:77:e8:5f:2d:97
-----BEGIN CERTIFICATE-----
MIII2jCCBMKgAwIBAgIBBDANBgkqhkiG9w0BAQsFADCBxjELMAkGA1UEBhMCVVMx
EzARBgNVBAgMClNhbWJhU3RhdGUxEjAQBgNVBAcMCVNhbWJhQ2l0eTEZMBcGA1UE
CgwQU2FtYmFTZWxmVGVzdGluZzEaMBgGA1UECwwRQ0EgQWRtaW5pc3RyYXRpb24x
IDAeBgNVBAMMF0NBIG9mIHNhbWJhLmV4YW1wbGUuY29tMTUwMwYJKoZIhvcNAQkB
FiZjYS1zYW1iYS5leGFtcGxlLmNvbUBzYW1iYS5leGFtcGxlLmNvbTAeFw0xNjA2
MDMxOTMwMjlaFw0zNjA1MjkxOTMwMjlaMIGZMQswCQYDVQQGEwJVUzETMBEGA1UE
CAwKU2FtYmFTdGF0ZTEZMBcGA1UECgwQU2FtYmFTZWxmVGVzdGluZzEOMAwGA1UE
CwwFVXNlcnMxITAfBgNVBAMMGHBraW5pdEBzYW1iYS5leGFtcGxlLmNvbTEnMCUG
CSqGSIb3DQEJARYYcGtpbml0QHNhbWJhLmV4YW1wbGUuY29tMIIBIjANBgkqhkiG
9w0BAQEFAAOCAQ8AMIIBCgKCAQEA3cRIRKXpa7RBA2rcNB/WQc73y7JEp6MOiRb/
DWIj4Isk24KCaCkiG1dEEsbqEC1vOkt1sS52YgFi/7o9Z+E5DRI4sPyz5Q7dd3Mr
mSWG1RWECL6wizjXZJ3W59xNmvvqF0G70c8auVsLiuWMWrctq733w5GuJsLjlyfq
P77JIq/WdjVFsHKG8r2/4tPj42hSJtvwpmoOYwWbF20T7sQVQZYnBpD9ELX5bHS+
sKi7cPeiJdr38ZHCaWxAxGPoBoPgHbcrKdN10d/B0pCvuYFHePPxGskg4xtv5P0u
C2Wnb7GyoNPj0i8r7/0BWyfnG8EOvL3we7I0qZtNLMhlM8gzFwIDAQABo4IB/DCC
AfgwCQYDVR0TBAIwADBPBgNVHR8ESDBGMESgQqBAhj5odHRwOi8vd3d3LnNhbWJh
LmV4YW1wbGUuY29tL2NybHMvQ0Etc2FtYmEuZXhhbXBsZS5jb20tY3JsLmNybDAR
BglghkgBhvhCAQEEBAMCBaAwCwYDVR0PBAQDAgXgMEgGCWCGSAGG+EIBDQQ7FjlT
bWFydCBDYXJkIExvZ2luIENlcnRpZmljYXRlIGZvciBwa2luaXRAc2FtYmEuZXhh
bXBsZS5jb20wHQYDVR0OBBYEFOlnZrg98TmrGk0AnezO/0tQ2F2iMB8GA1UdIwQY
MBaAFKI+Aiqjp005tAhNmcwMdTbqJ8M+ME0GA1UdEQRGMESBGHBraW5pdEBzYW1i
YS5leGFtcGxlLmNvbaAoBgorBgEEAYI3FAIDoBoMGHBraW5pdEBzYW1iYS5leGFt
cGxlLmNvbTAxBgNVHRIEKjAogSZjYS1zYW1iYS5leGFtcGxlLmNvbUBzYW1iYS5l
eGFtcGxlLmNvbTBNBglghkgBhvhCAQQEQBY+aHR0cDovL3d3dy5zYW1iYS5leGFt
cGxlLmNvbS9jcmxzL0NBLXNhbWJhLmV4YW1wbGUuY29tLWNybC5jcmwwHwYDVR0l
BBgwFgYIKwYBBQUHAwIGCisGAQQBgjcUAgIwDQYJKoZIhvcNAQELBQADggQBAIg+
85gI781TOgfVHP0mfPGWLrkGh/Jb4r7RBG44WRRJnUbvfmwIAj4YCQlhqB2p2llA
WF/Syk92Dn4B2wUD+3jHiYaqG9wCu4alAnwBVN2t4EPF2eyGwke1WhyMBg7+Ea2l
Vzf1CjVlpPInFC+/U0hm4dq5WJWi0ZWcrgrKKabvelh0hkDqKsYYnxrZcOKoqo3x
Ir+25GHUIe6/F+Gq0c8LNYLHP6G+0aW9TgQNzxEt1gx+R1xehNIQYH6X11K+oc0t
hdqy3WiIEqSIXxYMrm9gf9pYX5G9jRUgwnSUC5NlgHx3FaJwu5i+QRouxXhSZOdE
Az9klxCpGxfzeflRDExY5wPnu/00/8BKrbF6upc8+OCeMD3nX76sarPBHlB8zc4Y
vZZz+5yQ567gvsVlKZoc2sNkKpnck2EymnAaRYNyOA9X3g31ZHGX3rVkmUMwbT8l
grU+obo50vy4335X2vy+woQumUFSohj0mcfiua8qhDJcy7omhmuOWDDYT1tgNP0w
3sWgeoznNCu8gW1MqLW6tVK5QuXYfr4xo46ww/YWKJLnnT/Iz6BKsDqudVmrGZHk
LnZXP1iIXy57xY8RJQ/Nj+ORgC/Ue1qAw8l8CqoBv1yMDleEv3Ktewq5lScPqpuW
CI67Y1ZaHa0MWxwEOK4riNTRaCDyoJt3nJXbF8vPeUoTZsk0NvbG+YtLkl5Zo111
Tvry+tXZZoCCpI3i2LbtxaPKonBknLkcSbIvRrMTO4inWo4it5D1dCchBqSUu7HL
5+SS8OmAFZSCGpc00M+qN7EnpTg5fI26oRLdMEhEkAw1D8zmE+fJBjYdsMm+KA9H
HLBHoyDRu6GFGoDCm3Bhn6eCRjyAKAwX9vx1g77/XNq8vixlpsD8wTKumr/RfPuz
Jjt3A/6p6a5Mclipbs6twB8wsgYyZa9f2z0rq8VGXArfULV+MciwflDiqtgBjurn
PIuQc953n0fqrxYNpcCJb4akhPcfA/19+Kh9nJrxE8jVW5wvccHAwheJOW0oLSAx
ymDPf3hCXKModhmoyuYHIm1/BLEgq3BAM+mj+tq1fO5wC8aiapAaEP6Km1ZcRIXx
tEFnC8GjaC//sUjzOEsoTlI2DJs3qn6CY8NhM6kFs68TB7OeTUw8xEc0zvNuVWnX
r9zkgjSb/szZ2x8IPjw6m6ynfmE/XwEM2PNjMTEH4gWEMGX0sKbMrWP+BtvX6S+d
2yxkr9bRzJ7DEQmtfeIGbSGtpU+mh5vu22zpaadq65Nn4ulvI/gulXhfqGaufixe
awc+Aq0gr2GcDh3GejFaM71hGmdbqUI8F2f43YDjq2KgQlMzH/d56jLRJt27xiaq
LKwWfiS0rn3Od+hfLZc=
-----END CERTIFICATE-----
