Certificate:
    Data:
        Version: 3 (0x2)
        Serial Number: 6 (0x6)
    Signature Algorithm: sha256WithRSAEncryption
        Issuer: C=US, ST=SambaState, L=SambaCity, O=SambaSelfTesting, OU=CA Administration, CN=CA of samba.example.com/emailAddress=ca-samba.example.com@samba.example.com
        Validity
            Not Before: Feb 28 13:30:28 2020 GMT
            Not After : Feb 23 13:30:28 2040 GMT
        Subject: C=US, ST=SambaState, O=SambaSelfTesting, OU=Domain Controllers, CN=addcsmb1.addom2.samba.example.com/emailAddress=ca-samba.example.com@samba.example.com
        Subject Public Key Info:
            Public Key Algorithm: rsaEncryption
                Public-Key: (4096 bit)
                Modulus:
                    00:de:fe:5d:7a:30:99:bb:1e:11:56:ac:b0:d4:01:
                    50:30:83:e1:71:0f:aa:3e:1a:b4:f7:9d:ea:93:69:
                    fc:be:51:19:4c:37:f7:a3:b3:3c:90:13:62:63:14:
                    9d:b8:54:66:17:65:4a:67:8e:ce:96:7f:4d:c2:c6:
                    6e:fd:3c:ae:bb:e2:5b:6c:ee:51:7b:db:37:17:94:
                    99:02:3a:2f:a9:cb:d0:23:29:b7:43:33:08:fc:3f:
                    15:3b:ed:3c:eb:69:5b:95:45:18:1e:85:5e:aa:31:
                    b6:3e:18:c8:2f:3a:48:2d:cc:c6:69:28:b6:5c:ac:
                    24:03:b1:83:e8:e6:96:a7:06:6d:fe:73:13:04:d2:
                    18:0f:d4:72:f7:88:22:40:5b:ab:68:a4:89:e2:3d:
                    c0:ca:e5:a7:ae:b6:f8:ea:8a:8c:39:9c:6d:1b:89:
                    ab:72:2c:04:27:40:7e:f5:d3:3f:5d:d8:0d:71:67:
                    65:1d:e3:3d:65:b0:97:7f:14:ad:92:43:2f:3f:04:
                    ab:1e:31:52:07:7f:df:48:ac:9a:c0:28:d1:ab:eb:
                    f2:79:b3:d2:44:5f:e8:2d:92:d7:d8:be:03:fe:db:
                    55:2b:4b:f8:9c:b4:ce:02:78:07:72:0f:d5:32:cd:
                    01:1e:3d:b2:6e:25:29:fa:09:49:49:ab:ed:dc:2b:
                    10:c5:3d:19:3c:c4:1e:da:ee:95:c2:ff:f8:50:b4:
                    f7:47:9a:a4:7d:1c:9a:8d:77:da:b6:a2:e6:4f:cd:
                    80:b9:b1:f2:1d:dc:90:60:37:6f:39:5e:a6:03:e2:
                    8b:44:d7:a4:45:fd:7e:4f:43:14:f0:68:0d:e6:84:
                    8f:21:20:53:f6:b4:67:bd:fc:5d:f4:48:2a:95:1d:
                    7d:79:ba:a1:ee:b8:f0:83:83:7f:ab:b1:eb:38:4e:
                    3c:4b:8a:93:80:15:63:4c:43:1d:81:4b:c1:e6:d5:
                    b0:9f:6c:49:9d:04:92:66:6c:9f:7c:d3:62:50:72:
                    fc:77:65:87:39:d9:d0:ef:5e:53:49:32:4a:d3:1b:
                    4a:88:45:f0:0f:a2:5e:33:29:bd:ab:3d:6b:3d:23:
                    bc:c6:9c:9d:98:9c:9d:8d:cc:32:3e:e1:8c:98:19:
                    1c:44:ee:17:43:b3:b0:47:a5:fe:15:49:aa:5a:b7:
                    76:43:4c:df:9a:e8:33:3d:52:e8:6c:2c:dd:3e:d8:
                    a9:e9:2d:36:c2:3a:43:75:b2:bc:d5:bd:81:8b:fc:
                    63:37:61:88:24:bb:76:35:19:00:44:7a:3e:30:a8:
                    9e:8f:df:74:14:09:0b:f5:8b:c9:b0:ed:be:d0:cf:
                    c0:7f:61:41:07:f8:6c:7d:0a:05:96:4f:6e:5f:cc:
                    40:f3:f5
                Exponent: 65537 (0x10001)
        X509v3 extensions:
            X509v3 Basic Constraints: 
                CA:FALSE
            X509v3 CRL Distribution Points: 

                Full Name:
                  URI:http://www.samba.example.com/crls/CA-samba.example.com-crl.crl

            Netscape Cert Type: 
                SSL Server
            X509v3 Key Usage: 
                Digital Signature, Non Repudiation, Key Encipherment
            Netscape Comment: 
                Domain Controller Certificate addcsmb1.addom2.samba.example.com
            X509v3 Subject Key Identifier: 
                5B:85:11:27:BF:F7:A6:2B:8F:51:93:D8:29:4E:0E:A2:67:AA:9D:80
            X509v3 Authority Key Identifier: 
                keyid:A2:3E:02:2A:A3:A7:4D:39:B4:08:4D:99:CC:0C:75:36:EA:27:C3:3E

            X509v3 Subject Alternative Name: 
                DNS:addcsmb1.addom2.samba.example.com, othername:<unsupported>
            X509v3 Issuer Alternative Name: 
                email:ca-samba.example.com@samba.example.com
            Netscape CA Revocation Url: 
                http://www.samba.example.com/crls/CA-samba.example.com-crl.crl
            X509v3 Extended Key Usage: 
                TLS Web Client Authentication, TLS Web Server Authentication, msKDC
    Signature Algorithm: sha256WithRSAEncryption
         73:de:7a:35:bc:15:ac:32:44:5b:98:60:64:12:af:ea:42:46:
         7d:fb:b2:88:b3:47:61:c3:0b:6d:d1:68:92:3d:44:cd:37:86:
         da:10:d2:18:db:19:29:03:31:1a:26:cd:70:d1:ec:13:ac:59:
         84:cd:be:9f:2b:c6:2d:10:aa:4b:4d:78:39:d3:6b:e1:4d:e8:
         10:a0:3e:97:d3:1c:19:11:e4:0f:26:7f:96:d7:26:17:23:02:
         d9:4b:47:0c:af:c7:ef:28:ae:1c:28:e5:d2:7a:61:46:70:3b:
         49:5e:d0:65:54:4c:ae:14:27:c0:e4:17:41:2c:1a:42:0d:86:
         6c:37:48:65:80:02:21:b3:2b:1f:4f:34:a5:ce:7b:b0:fe:06:
         a6:fe:c5:1b:ca:e5:e6:7e:d5:dc:01:d2:50:c4:f8:5e:73:6c:
         2c:56:81:d0:a4:73:bf:82:cb:d8:76:ca:7e:44:99:3a:5f:a9:
         97:89:a8:5c:5b:1b:38:0d:4d:cb:02:49:69:82:13:68:a6:be:
         4b:a3:57:a6:a6:e3:f0:dc:ad:1c:30:00:bf:ed:15:ca:c3:3d:
         5c:7b:dc:6d:e6:cb:bb:bc:a1:22:e7:32:95:e0:0f:6a:ab:40:
         0c:43:ed:f3:98:63:7c:2f:15:63:49:4e:5c:82:65:13:f2:53:
         26:d7:4c:c6:f8:7e:fa:bc:a8:22:44:f1:fb:a6:bb:27:64:ec:
         94:28:19:4a:af:09:7e:01:8e:9d:3e:43:e5:79:fd:16:ed:24:
         b4:ab:58:02:e2:9e:f8:a1:b0:45:25:6d:2f:be:bb:88:90:c7:
         d8:45:31:48:65:26:33:86:cc:46:69:53:6b:f1:d6:35:df:b1:
         39:ed:81:e1:23:f1:01:de:99:10:11:f0:3f:4d:5d:d3:8a:0c:
         44:78:f6:27:4a:32:1d:ab:0c:63:d0:71:25:62:67:f5:0c:7e:
         2c:7c:a4:ec:8d:de:00:6d:5f:69:5d:bf:e6:c7:59:75:87:5e:
         2c:12:dc:a5:1b:dd:c1:7a:c9:56:63:6a:3b:c6:9a:b7:fc:15:
         01:53:4d:c8:ca:c7:c8:81:50:a0:65:43:33:fb:aa:55:64:a0:
         c3:2e:e2:f9:08:64:e5:75:ab:98:b3:38:ba:8d:53:e8:08:47:
         ef:cf:a9:f2:16:25:1b:20:78:2d:6f:f5:83:ee:35:d4:b5:c5:
         d6:d7:81:17:bf:9c:45:43:d1:88:74:22:1a:32:b2:45:73:a2:
         28:d4:da:ff:85:f9:75:1c:4f:84:6a:a5:1a:41:eb:8b:e0:1d:
         49:69:07:2f:5b:5e:e3:7b:00:f8:4b:67:5b:42:d7:51:de:1c:
         18:89:2f:f8:36:e7:b5:a3:6c:39:e3:88:dc:5d:7f:2f:d9:52:
         b6:6b:9c:e9:1d:df:d0:18:68:25:70:7e:71:fb:b3:40:28:75:
         e9:24:38:6f:70:5b:1a:f9:bf:e9:43:bd:4b:51:e3:df:e3:25:
         11:ae:30:4e:7e:55:58:43:b3:65:05:11:2d:0e:a4:3c:b8:8a:
         0c:f9:93:ab:27:28:c0:b2:17:76:52:9b:18:82:b7:fd:a6:4f:
         6e:a1:74:2b:19:59:ac:b1:d8:5e:fb:f3:69:37:16:59:01:4c:
         fa:a9:57:52:04:d4:45:8f:10:08:8a:ab:88:aa:96:46:9a:aa:
         94:b5:c6:bf:e9:9e:9a:cd:40:f3:2a:ed:23:ff:a6:f7:9b:18:
         02:d9:ab:76:96:ac:15:6f:04:5d:92:d2:49:4c:4b:62:da:3d:
         2a:a4:59:22:1a:75:cd:6e:fb:62:50:da:ae:9d:28:7d:4d:32:
         2f:d8:cd:37:67:f9:1d:c1:d5:76:40:ba:34:f6:8c:92:5b:c0:
         65:f6:3c:90:6c:5b:67:09:0d:d3:14:90:38:03:82:06:c3:b7:
         85:74:7f:15:f4:5b:de:66:5f:71:a9:f1:ed:15:9b:a0:72:ee:
         05:d7:b3:92:30:65:2e:82:90:21:fe:f0:07:34:11:d3:87:41:
         f4:35:04:0c:b4:28:f5:73:b8:d5:0e:e3:2a:53:ab:9a:3f:4d:
         59:f9:18:68:f0:31:90:1d:d6:25:c6:8b:33:e8:dc:06:93:7b:
         cb:01:de:8b:1e:87:5a:26:a0:0d:5e:f6:6a:36:43:54:53:6d:
         87:10:ca:a8:15:1a:4a:37:95:a5:67:93:74:ba:c3:59:9b:f8:
         b5:ab:10:98:fc:ff:d6:d2:61:17:5d:90:7e:b1:2a:16:ec:d5:
         da:80:67:02:13:41:d7:bc:a2:af:0b:54:08:b3:2e:1b:05:50:
         80:f6:c7:9a:8c:ac:89:49:4a:f4:4b:71:73:bc:e7:8c:6f:0c:
         70:62:73:3d:ed:07:14:35:f0:15:0c:bb:d8:c3:f6:19:43:b7:
         45:a5:33:80:17:1f:c3:39:28:3d:6a:7c:d6:e0:37:66:58:bd:
         e8:64:2c:ad:b7:e0:25:f5:41:ac:ae:cb:ca:c1:eb:5b:8b:e1:
         3d:1e:cc:09:63:d6:6c:c8:eb:b8:ae:6f:4b:02:98:4a:2a:1a:
         94:26:e7:a3:23:7c:e9:e5:02:e0:1f:f5:88:f9:14:74:81:01:
         1d:cd:7e:46:35:7c:1d:e3:64:60:88:a4:ed:86:06:0e:af:3a:
         2b:1d:f8:45:fe:53:8e:56:89:95:98:ff:2c:8a:fb:3a:7a:0c:
         46:6a:3d:32:78:ad:58:69:ba:3b:d5:95:51:55:f3:72
-----BEGIN CERTIFICATE-----
MIIKAzCCBeugAwIBAgIBBjANBgkqhkiG9w0BAQsFADCBxjELMAkGA1UEBhMCVVMx
EzARBgNVBAgMClNhbWJhU3RhdGUxEjAQBgNVBAcMCVNhbWJhQ2l0eTEZMBcGA1UE
CgwQU2FtYmFTZWxmVGVzdGluZzEaMBgGA1UECwwRQ0EgQWRtaW5pc3RyYXRpb24x
IDAeBgNVBAMMF0NBIG9mIHNhbWJhLmV4YW1wbGUuY29tMTUwMwYJKoZIhvcNAQkB
FiZjYS1zYW1iYS5leGFtcGxlLmNvbUBzYW1iYS5leGFtcGxlLmNvbTAeFw0yMDAy
MjgxMzMwMjhaFw00MDAyMjMxMzMwMjhaMIG9MQswCQYDVQQGEwJVUzETMBEGA1UE
CAwKU2FtYmFTdGF0ZTEZMBcGA1UECgwQU2FtYmFTZWxmVGVzdGluZzEbMBkGA1UE
CwwSRG9tYWluIENvbnRyb2xsZXJzMSowKAYDVQQDDCFhZGRjc21iMS5hZGRvbTIu
c2FtYmEuZXhhbXBsZS5jb20xNTAzBgkqhkiG9w0BCQEWJmNhLXNhbWJhLmV4YW1w
bGUuY29tQHNhbWJhLmV4YW1wbGUuY29tMIICIjANBgkqhkiG9w0BAQEFAAOCAg8A
MIICCgKCAgEA3v5dejCZux4RVqyw1AFQMIPhcQ+qPhq0953qk2n8vlEZTDf3o7M8
kBNiYxSduFRmF2VKZ47Oln9NwsZu/Tyuu+JbbO5Re9s3F5SZAjovqcvQIym3QzMI
/D8VO+0862lblUUYHoVeqjG2PhjILzpILczGaSi2XKwkA7GD6OaWpwZt/nMTBNIY
D9Ry94giQFuraKSJ4j3AyuWnrrb46oqMOZxtG4mrciwEJ0B+9dM/XdgNcWdlHeM9
ZbCXfxStkkMvPwSrHjFSB3/fSKyawCjRq+vyebPSRF/oLZLX2L4D/ttVK0v4nLTO
AngHcg/VMs0BHj2ybiUp+glJSavt3CsQxT0ZPMQe2u6Vwv/4ULT3R5qkfRyajXfa
tqLmT82AubHyHdyQYDdvOV6mA+KLRNekRf1+T0MU8GgN5oSPISBT9rRnvfxd9Egq
lR19ebqh7rjwg4N/q7HrOE48S4qTgBVjTEMdgUvB5tWwn2xJnQSSZmyffNNiUHL8
d2WHOdnQ715TSTJK0xtKiEXwD6JeMym9qz1rPSO8xpydmJydjcwyPuGMmBkcRO4X
Q7OwR6X+FUmqWrd2Q0zfmugzPVLobCzdPtip6S02wjpDdbK81b2Bi/xjN2GIJLt2
NRkARHo+MKiej990FAkL9YvJsO2+0M/Af2FBB/hsfQoFlk9uX8xA8/UCAwEAAaOC
AgEwggH9MAkGA1UdEwQCMAAwTwYDVR0fBEgwRjBEoEKgQIY+aHR0cDovL3d3dy5z
YW1iYS5leGFtcGxlLmNvbS9jcmxzL0NBLXNhbWJhLmV4YW1wbGUuY29tLWNybC5j
cmwwEQYJYIZIAYb4QgEBBAQDAgZAMAsGA1UdDwQEAwIF4DBOBglghkgBhvhCAQ0E
QRY/RG9tYWluIENvbnRyb2xsZXIgQ2VydGlmaWNhdGUgYWRkY3NtYjEuYWRkb20y
LnNhbWJhLmV4YW1wbGUuY29tMB0GA1UdDgQWBBRbhREnv/emK49Rk9gpTg6iZ6qd
gDAfBgNVHSMEGDAWgBSiPgIqo6dNObQITZnMDHU26ifDPjBFBgNVHREEPjA8giFh
ZGRjc21iMS5hZGRvbTIuc2FtYmEuZXhhbXBsZS5jb22gFwYJKwYBBAGCNxkBoAoE
CAEjRWeJq83vMDEGA1UdEgQqMCiBJmNhLXNhbWJhLmV4YW1wbGUuY29tQHNhbWJh
LmV4YW1wbGUuY29tME0GCWCGSAGG+EIBBARAFj5odHRwOi8vd3d3LnNhbWJhLmV4
YW1wbGUuY29tL2NybHMvQ0Etc2FtYmEuZXhhbXBsZS5jb20tY3JsLmNybDAmBgNV
HSUEHzAdBggrBgEFBQcDAgYIKwYBBQUHAwEGBysGAQUCAwUwDQYJKoZIhvcNAQEL
BQADggQBAHPeejW8FawyRFuYYGQSr+pCRn37soizR2HDC23RaJI9RM03htoQ0hjb
GSkDMRomzXDR7BOsWYTNvp8rxi0QqktNeDnTa+FN6BCgPpfTHBkR5A8mf5bXJhcj
AtlLRwyvx+8orhwo5dJ6YUZwO0le0GVUTK4UJ8DkF0EsGkINhmw3SGWAAiGzKx9P
NKXOe7D+Bqb+xRvK5eZ+1dwB0lDE+F5zbCxWgdCkc7+Cy9h2yn5EmTpfqZeJqFxb
GzgNTcsCSWmCE2imvkujV6am4/DcrRwwAL/tFcrDPVx73G3my7u8oSLnMpXgD2qr
QAxD7fOYY3wvFWNJTlyCZRPyUybXTMb4fvq8qCJE8fumuydk7JQoGUqvCX4Bjp0+
Q+V5/RbtJLSrWALinvihsEUlbS++u4iQx9hFMUhlJjOGzEZpU2vx1jXfsTntgeEj
8QHemRAR8D9NXdOKDER49idKMh2rDGPQcSViZ/UMfix8pOyN3gBtX2ldv+bHWXWH
XiwS3KUb3cF6yVZjajvGmrf8FQFTTcjKx8iBUKBlQzP7qlVkoMMu4vkIZOV1q5iz
OLqNU+gIR+/PqfIWJRsgeC1v9YPuNdS1xdbXgRe/nEVD0Yh0IhoyskVzoijU2v+F
+XUcT4RqpRpB64vgHUlpBy9bXuN7APhLZ1tC11HeHBiJL/g257WjbDnjiNxdfy/Z
UrZrnOkd39AYaCVwfnH7s0AodekkOG9wWxr5v+lDvUtR49/jJRGuME5+VVhDs2UF
ES0OpDy4igz5k6snKMCyF3ZSmxiCt/2mT26hdCsZWayx2F7782k3FlkBTPqpV1IE
1EWPEAiKq4iqlkaaqpS1xr/pnprNQPMq7SP/pvebGALZq3aWrBVvBF2S0klMS2La
PSqkWSIadc1u+2JQ2q6dKH1NMi/YzTdn+R3B1XZAujT2jJJbwGX2PJBsW2cJDdMU
kDgDggbDt4V0fxX0W95mX3Gp8e0Vm6By7gXXs5IwZS6CkCH+8Ac0EdOHQfQ1BAy0
KPVzuNUO4ypTq5o/TVn5GGjwMZAd1iXGizPo3AaTe8sB3oseh1omoA1e9mo2Q1RT
bYcQyqgVGko3laVnk3S6w1mb+LWrEJj8/9bSYRddkH6xKhbs1dqAZwITQde8oq8L
VAizLhsFUID2x5qMrIlJSvRLcXO854xvDHBicz3tBxQ18BUMu9jD9hlDt0WlM4AX
H8M5KD1qfNbgN2ZYvehkLK234CX1Qayuy8rB61uL4T0ezAlj1mzI67iub0sCmEoq
GpQm56MjfOnlAuAf9Yj5FHSBAR3NfkY1fB3jZGCIpO2GBg6vOisd+EX+U45WiZWY
/yyK+zp6DEZqPTJ4rVhpujvVlVFV83I=
-----END CERTIFICATE-----
