Certificate:
    Data:
        Version: 3 (0x2)
        Serial Number: 7 (0x7)
    Signature Algorithm: sha256WithRSAEncryption
        Issuer: C=US, ST=SambaState, L=SambaCity, O=SambaSelfTesting, OU=CA Administration, CN=CA of samba.example.com/emailAddress=ca-samba.example.com@samba.example.com
        Validity
            Not Before: Feb 28 13:31:01 2020 GMT
            Not After : Feb 23 13:31:01 2040 GMT
        Subject: C=US, ST=SambaState, O=SambaSelfTesting, OU=Users, CN=administrator@addom2.samba.example.com/emailAddress=administrator@addom2.samba.example.com
        Subject Public Key Info:
            Public Key Algorithm: rsaEncryption
                Public-Key: (2048 bit)
                Modulus:
                    00:eb:0e:b0:1d:53:4f:3c:0f:f8:90:d6:33:64:68:
                    7e:ed:7c:46:96:c6:77:9c:0a:07:ed:8c:13:da:e7:
                    bb:b3:79:63:4b:ec:5a:2a:59:57:7c:38:69:50:c0:
                    a1:b4:ba:f8:1d:56:78:77:95:b3:44:13:12:83:df:
                    20:95:12:01:e5:1e:1a:5b:38:69:48:86:e8:a6:0a:
                    32:f4:38:36:f8:84:bd:5b:a9:70:48:c5:49:25:79:
                    70:98:23:a7:58:3e:09:97:6d:67:b1:95:fa:08:86:
                    2d:d6:b7:c5:d2:06:aa:5b:b8:f5:93:e6:c5:20:9a:
                    9b:0c:90:2b:c7:2e:20:2f:e8:07:45:03:f3:4d:2c:
                    d9:eb:9c:91:d2:68:cc:fe:57:78:5c:2e:57:5b:a6:
                    0e:10:6a:b8:05:ce:ab:12:31:49:e8:34:7c:3f:91:
                    63:ce:3e:a6:ff:c0:7b:1b:95:b7:9b:99:a9:c7:ec:
                    d6:45:b7:9e:24:ee:c0:2b:a3:4c:a2:f9:04:5b:18:
                    2f:0e:8b:2b:16:89:5d:cc:92:fa:49:dd:09:92:72:
                    14:ba:8f:48:bd:6e:9b:88:14:98:6f:bc:0c:e3:bb:
                    a9:d1:0a:a8:93:6b:75:70:98:f9:a8:d8:0f:c5:e6:
                    a9:a4:e5:b3:72:81:76:07:73:c9:3e:d2:43:62:fe:
                    1a:3b
                Exponent: 65537 (0x10001)
        X509v3 extensions:
            X509v3 Basic Constraints: 
                CA:FALSE
            X509v3 CRL Distribution Points: 

                Full Name:
                  URI:http://www.samba.example.com/crls/CA-samba.example.com-crl.crl

            Netscape Cert Type: 
                SSL Client, S/MIME
            X509v3 Key Usage: 
                Digital Signature, Non Repudiation, Key Encipherment
            Netscape Comment: 
                Smart Card Login Certificate for administrator@addom2.samba.example.com
            X509v3 Subject Key Identifier: 
                54:FB:DA:B4:F9:26:58:9A:8F:C2:D2:0A:95:B0:95:F6:D2:F6:1B:AE
            X509v3 Authority Key Identifier: 
                keyid:A2:3E:02:2A:A3:A7:4D:39:B4:08:4D:99:CC:0C:75:36:EA:27:C3:3E

            X509v3 Subject Alternative Name: 
                email:administrator@addom2.samba.example.com, othername:<unsupported>
            X509v3 Issuer Alternative Name: 
                email:ca-samba.example.com@samba.example.com
            Netscape CA Revocation Url: 
                http://www.samba.example.com/crls/CA-samba.example.com-crl.crl
            X509v3 Extended Key Usage: 
                TLS Web Client Authentication, scardLogin
    Signature Algorithm: sha256WithRSAEncryption
         a3:8d:f9:4e:77:ba:67:28:63:6e:3e:70:91:64:3f:51:b3:69:
         ab:ff:10:04:e4:39:d1:98:bf:7e:c7:da:d3:4e:d5:29:f7:ae:
         ca:e2:b1:f7:ea:67:38:7e:bb:a8:55:33:c1:de:79:6a:49:56:
         6a:48:8c:3b:43:8b:03:f4:30:11:ac:ee:88:28:ed:11:6c:37:
         33:13:7f:25:aa:d6:71:99:d2:f8:fb:4f:7a:44:c7:20:78:b2:
         22:44:17:d8:56:10:a2:4c:48:1c:3a:ad:bf:82:d7:e5:e0:66:
         e9:ac:a1:11:23:b3:f8:f7:a7:84:5f:b7:d2:30:89:b7:bc:3f:
         9c:61:d8:12:bb:a4:fe:af:53:f9:f7:26:8e:be:9a:79:53:47:
         b6:2b:d3:31:60:e1:39:11:11:c3:32:b8:32:d2:e2:6d:8a:05:
         ae:f5:7e:f7:03:33:1c:6c:07:8e:81:a4:26:f2:0d:22:af:fe:
         48:12:48:a8:09:e2:98:4e:b9:c5:07:16:5d:a3:b2:73:7c:4c:
         a7:3e:24:e9:d8:cc:72:a3:87:dd:c7:69:8d:58:dd:2e:27:69:
         72:b4:fb:62:cf:66:c4:7a:8b:8b:c4:03:16:b6:9d:7f:7b:f5:
         44:c2:04:a7:17:80:9c:f7:32:ba:3a:05:e1:71:28:16:88:6a:
         9c:f8:0e:5e:c9:0b:81:eb:2c:05:3c:4c:ff:ba:72:10:da:99:
         95:e1:ef:d2:dd:95:7d:d0:24:f6:8f:e0:1c:75:25:64:80:0e:
         16:9f:c1:d7:76:7e:45:85:27:a8:85:80:c3:62:40:58:1b:75:
         c3:8e:40:0c:d9:f1:5b:a0:6b:1e:47:99:4f:00:11:68:19:93:
         77:4b:1b:56:94:79:95:f6:b8:92:49:14:e0:8f:2b:40:4c:82:
         4c:5b:a0:e2:0f:d4:f3:d1:3c:f3:e6:4c:c4:3d:2a:4c:e8:ca:
         10:c0:39:81:64:db:68:80:12:07:3f:92:7c:e0:09:aa:42:77:
         51:1e:ee:ad:33:c8:8f:f4:f2:35:2b:c7:b7:57:7c:2e:c8:27:
         71:c8:5b:1a:f2:83:fa:4f:85:13:ea:ce:0b:2f:b7:76:86:77:
         00:82:46:2f:bf:1c:b2:de:5d:52:40:64:41:54:0b:9f:8c:84:
         d9:dd:08:02:51:d0:06:d0:07:6f:a1:ef:74:f4:d9:f5:30:9c:
         15:c3:d6:89:b7:f5:81:5a:c0:44:3d:99:54:e8:25:56:1f:63:
         be:5c:f7:be:f1:9c:24:e0:55:46:c4:a5:7e:3f:82:20:b9:4a:
         d6:14:82:45:14:d8:91:75:33:c5:df:86:9c:19:17:a4:31:4a:
         37:a2:9e:b9:11:84:ab:df:bc:21:2b:9b:96:83:b7:1b:13:78:
         07:b2:c5:5f:97:48:3b:7e:43:10:34:68:e8:25:bd:51:a0:ae:
         17:52:62:47:3c:c9:f0:b5:55:95:cd:68:d3:5f:aa:85:be:ea:
         fb:2a:8a:e4:50:3d:96:5b:b3:a9:e5:45:e4:2d:da:da:8d:f0:
         ae:c0:98:47:8e:ca:46:c2:21:68:a6:f9:17:41:a2:c6:21:b9:
         bc:73:a7:c3:84:a9:31:b7:54:04:33:2a:fb:57:32:47:93:e1:
         b2:ff:58:5b:f3:19:66:bc:65:8e:00:29:9d:56:60:7d:28:b2:
         6d:a5:a9:eb:04:7c:d3:e7:d7:af:2d:fe:df:1e:9c:3b:a9:bb:
         a0:14:e4:02:7f:e6:e7:0a:b2:37:bd:fd:67:32:82:4f:c0:41:
         89:96:9a:f2:9a:04:eb:82:ee:81:8a:00:15:5e:b2:d0:e1:72:
         74:47:2f:97:fb:33:f1:8c:b9:25:8f:02:71:75:b7:21:10:74:
         4f:5f:5f:61:51:4a:69:d1:03:6b:7a:51:e4:08:03:1f:c2:a7:
         2c:c2:10:b8:27:9f:aa:01:15:61:71:72:d6:ca:23:7f:d7:60:
         b8:65:51:ca:65:8e:ef:74:2e:fc:89:23:0b:55:b5:83:d7:0b:
         8c:16:ab:1a:be:3a:79:62:b3:6e:64:d1:c2:48:af:81:0e:d4:
         1f:2e:2f:c7:47:16:79:a9:b9:cc:08:29:2e:da:d5:75:96:53:
         b1:be:2c:5a:5a:9c:6b:40:16:e5:92:63:49:64:99:44:c1:bc:
         2a:40:fc:3c:50:c3:dd:07:31:ee:1d:46:38:1b:c8:12:a0:16:
         9d:1c:f6:0e:a7:66:8a:b0:2f:11:19:03:1d:66:6f:fe:cc:3a:
         6c:99:ce:60:b7:f1:e9:56:40:4d:fc:ac:eb:a5:04:de:85:7c:
         19:c7:16:c1:e1:26:43:03:da:f3:50:25:16:99:e0:fa:cd:59:
         c7:8b:52:cf:fc:20:d0:68:50:b9:83:36:bb:44:7b:1f:92:5f:
         f6:19:5b:91:de:33:2c:f9:80:25:b9:30:4c:fa:92:5b:6d:c2:
         65:10:98:1c:c6:61:51:9e:d0:c9:49:1b:c5:c5:8a:89:72:d0:
         b7:ff:db:03:f9:95:f2:a0:de:d9:dc:32:c6:20:02:e1:7c:89:
         2d:6e:72:12:12:c3:97:56:eb:7c:58:88:1f:9d:ad:4c:b4:6a:
         97:4b:0c:87:f3:41:bb:2a:ff:a6:bf:90:70:91:9b:b7:b1:e1:
         cc:0f:c6:33:a5:05:03:db:f9:fb:79:5c:20:78:f9:1c:88:d4:
         84:bd:2f:9b:12:30:02:36:cd:8a:f3:42:4a:9c:dc:c3
-----BEGIN CERTIFICATE-----
MIIJIDCCBQigAwIBAgIBBzANBgkqhkiG9w0BAQsFADCBxjELMAkGA1UEBhMCVVMx
EzARBgNVBAgMClNhbWJhU3RhdGUxEjAQBgNVBAcMCVNhbWJhQ2l0eTEZMBcGA1UE
CgwQU2FtYmFTZWxmVGVzdGluZzEaMBgGA1UECwwRQ0EgQWRtaW5pc3RyYXRpb24x
IDAeBgNVBAMMF0NBIG9mIHNhbWJhLmV4YW1wbGUuY29tMTUwMwYJKoZIhvcNAQkB
FiZjYS1zYW1iYS5leGFtcGxlLmNvbUBzYW1iYS5leGFtcGxlLmNvbTAeFw0yMDAy
MjgxMzMxMDFaFw00MDAyMjMxMzMxMDFaMIG1MQswCQYDVQQGEwJVUzETMBEGA1UE
CAwKU2FtYmFTdGF0ZTEZMBcGA1UECgwQU2FtYmFTZWxmVGVzdGluZzEOMAwGA1UE
CwwFVXNlcnMxLzAtBgNVBAMMJmFkbWluaXN0cmF0b3JAYWRkb20yLnNhbWJhLmV4
YW1wbGUuY29tMTUwMwYJKoZIhvcNAQkBFiZhZG1pbmlzdHJhdG9yQGFkZG9tMi5z
YW1iYS5leGFtcGxlLmNvbTCCASIwDQYJKoZIhvcNAQEBBQADggEPADCCAQoCggEB
AOsOsB1TTzwP+JDWM2Rofu18RpbGd5wKB+2ME9rnu7N5Y0vsWipZV3w4aVDAobS6
+B1WeHeVs0QTEoPfIJUSAeUeGls4aUiG6KYKMvQ4NviEvVupcEjFSSV5cJgjp1g+
CZdtZ7GV+giGLda3xdIGqlu49ZPmxSCamwyQK8cuIC/oB0UD800s2euckdJozP5X
eFwuV1umDhBquAXOqxIxSeg0fD+RY84+pv/AexuVt5uZqcfs1kW3niTuwCujTKL5
BFsYLw6LKxaJXcyS+kndCZJyFLqPSL1um4gUmG+8DOO7qdEKqJNrdXCY+ajYD8Xm
qaTls3KBdgdzyT7SQ2L+GjsCAwEAAaOCAiYwggIiMAkGA1UdEwQCMAAwTwYDVR0f
BEgwRjBEoEKgQIY+aHR0cDovL3d3dy5zYW1iYS5leGFtcGxlLmNvbS9jcmxzL0NB
LXNhbWJhLmV4YW1wbGUuY29tLWNybC5jcmwwEQYJYIZIAYb4QgEBBAQDAgWgMAsG
A1UdDwQEAwIF4DBWBglghkgBhvhCAQ0ESRZHU21hcnQgQ2FyZCBMb2dpbiBDZXJ0
aWZpY2F0ZSBmb3IgYWRtaW5pc3RyYXRvckBhZGRvbTIuc2FtYmEuZXhhbXBsZS5j
b20wHQYDVR0OBBYEFFT72rT5Jliaj8LSCpWwlfbS9huuMB8GA1UdIwQYMBaAFKI+
Aiqjp005tAhNmcwMdTbqJ8M+MGkGA1UdEQRiMGCBJmFkbWluaXN0cmF0b3JAYWRk
b20yLnNhbWJhLmV4YW1wbGUuY29toDYGCisGAQQBgjcUAgOgKAwmYWRtaW5pc3Ry
YXRvckBhZGRvbTIuc2FtYmEuZXhhbXBsZS5jb20wMQYDVR0SBCowKIEmY2Etc2Ft
YmEuZXhhbXBsZS5jb21Ac2FtYmEuZXhhbXBsZS5jb20wTQYJYIZIAYb4QgEEBEAW
Pmh0dHA6Ly93d3cuc2FtYmEuZXhhbXBsZS5jb20vY3Jscy9DQS1zYW1iYS5leGFt
cGxlLmNvbS1jcmwuY3JsMB8GA1UdJQQYMBYGCCsGAQUFBwMCBgorBgEEAYI3FAIC
MA0GCSqGSIb3DQEBCwUAA4IEAQCjjflOd7pnKGNuPnCRZD9Rs2mr/xAE5DnRmL9+
x9rTTtUp967K4rH36mc4fruoVTPB3nlqSVZqSIw7Q4sD9DARrO6IKO0RbDczE38l
qtZxmdL4+096RMcgeLIiRBfYVhCiTEgcOq2/gtfl4GbprKERI7P496eEX7fSMIm3
vD+cYdgSu6T+r1P59yaOvpp5U0e2K9MxYOE5ERHDMrgy0uJtigWu9X73AzMcbAeO
gaQm8g0ir/5IEkioCeKYTrnFBxZdo7JzfEynPiTp2Mxyo4fdx2mNWN0uJ2lytPti
z2bEeouLxAMWtp1/e/VEwgSnF4Cc9zK6OgXhcSgWiGqc+A5eyQuB6ywFPEz/unIQ
2pmV4e/S3ZV90CT2j+AcdSVkgA4Wn8HXdn5FhSeohYDDYkBYG3XDjkAM2fFboGse
R5lPABFoGZN3SxtWlHmV9riSSRTgjytATIJMW6DiD9Tz0Tzz5kzEPSpM6MoQwDmB
ZNtogBIHP5J84AmqQndRHu6tM8iP9PI1K8e3V3wuyCdxyFsa8oP6T4UT6s4LL7d2
hncAgkYvvxyy3l1SQGRBVAufjITZ3QgCUdAG0Advoe909Nn1MJwVw9aJt/WBWsBE
PZlU6CVWH2O+XPe+8Zwk4FVGxKV+P4IguUrWFIJFFNiRdTPF34acGRekMUo3op65
EYSr37whK5uWg7cbE3gHssVfl0g7fkMQNGjoJb1RoK4XUmJHPMnwtVWVzWjTX6qF
vur7KorkUD2WW7Op5UXkLdrajfCuwJhHjspGwiFopvkXQaLGIbm8c6fDhKkxt1QE
Myr7VzJHk+Gy/1hb8xlmvGWOACmdVmB9KLJtpanrBHzT59evLf7fHpw7qbugFOQC
f+bnCrI3vf1nMoJPwEGJlprymgTrgu6BigAVXrLQ4XJ0Ry+X+zPxjLkljwJxdbch
EHRPX19hUUpp0QNrelHkCAMfwqcswhC4J5+qARVhcXLWyiN/12C4ZVHKZY7vdC78
iSMLVbWD1wuMFqsavjp5YrNuZNHCSK+BDtQfLi/HRxZ5qbnMCCku2tV1llOxvixa
WpxrQBblkmNJZJlEwbwqQPw8UMPdBzHuHUY4G8gSoBadHPYOp2aKsC8RGQMdZm/+
zDpsmc5gt/HpVkBN/KzrpQTehXwZxxbB4SZDA9rzUCUWmeD6zVnHi1LP/CDQaFC5
gza7RHsfkl/2GVuR3jMs+YAluTBM+pJbbcJlEJgcxmFRntDJSRvFxYqJctC3/9sD
+ZXyoN7Z3DLGIALhfIktbnISEsOXVut8WIgfna1MtGqXSwyH80G7Kv+mv5BwkZu3
seHMD8YzpQUD2/n7eVwgePkciNSEvS+bEjACNs2K80JKnNzD
-----END CERTIFICATE-----
