Certificate:
    Data:
        Version: 3 (0x2)
        Serial Number: 8 (0x8)
    Signature Algorithm: sha1WithRSAEncryption
        Issuer: CN=hx509 Test Root CA, C=SE
        Validity
            Not Before: Mar 22 22:25:09 2019 GMT
            Not After : Nov 21 22:25:09 2518 GMT
        Subject: C=SE, CN=kdc
        Subject Public Key Info:
            Public Key Algorithm: rsaEncryption
                Public-Key: (4096 bit)
                Modulus:
                    00:d1:73:ec:58:67:7a:65:30:ab:19:15:a1:bf:1e:
                    de:db:e5:4a:92:f0:99:8a:eb:02:6d:e4:31:1a:c7:
                    4d:07:57:b1:82:9e:d2:d2:c7:f3:0b:b2:82:61:5c:
                    ba:38:c3:54:e9:e1:be:6b:5f:0d:22:62:2b:cb:d5:
                    34:0e:63:0b:50:8a:8b:b3:be:6a:e1:85:dc:b1:28:
                    13:ee:dd:6e:40:d5:48:1d:eb:aa:04:0b:e7:c8:1c:
                    6d:60:54:b6:cc:be:52:5a:88:22:ce:07:2d:3f:cb:
                    fc:00:ab:8b:a5:e7:32:8e:b1:8b:03:d8:81:a2:69:
                    d4:9f:3a:ff:da:b5:e3:0d:e3:21:54:29:cb:61:ba:
                    16:13:94:97:1b:72:24:6d:da:d7:d9:35:b1:57:f1:
                    3b:9d:ee:90:76:4e:58:1f:4e:76:12:c6:89:2a:54:
                    bf:e8:53:5a:de:05:79:93:0b:41:2c:03:c5:30:58:
                    a8:e6:57:08:f9:47:7c:c0:3a:5c:eb:1b:33:68:52:
                    02:19:08:e6:35:48:05:a7:51:22:89:1c:1e:c8:0b:
                    55:73:b2:c9:75:f9:74:aa:de:5e:3a:54:f8:96:47:
                    cf:25:2d:75:e7:71:74:31:91:17:85:44:89:8a:16:
                    88:ca:12:dd:0e:36:4d:e5:af:b3:db:d3:7c:53:8d:
                    7a:08:69:92:72:81:c8:13:c7:71:96:8f:2d:54:98:
                    c9:63:10:26:be:59:8f:db:82:47:c1:29:c6:28:7f:
                    a0:16:bf:85:a2:eb:2f:2f:46:86:6b:77:1f:31:30:
                    d4:52:35:32:09:16:cd:48:ec:3c:4c:2c:03:e5:b9:
                    90:e9:f7:b4:7d:97:91:31:27:4e:df:b6:bd:b6:ec:
                    ca:47:16:00:58:e9:87:4f:20:af:ef:4c:34:42:5b:
                    3e:28:aa:cd:39:75:3b:6f:7c:b9:7b:50:76:67:25:
                    31:46:f5:34:aa:c6:5a:22:77:b5:9d:6d:88:4d:f1:
                    e6:e7:ca:d2:d8:70:10:58:39:58:0f:ce:8d:b3:4d:
                    e4:f4:80:ca:31:75:3c:38:61:6c:d9:17:d2:aa:72:
                    f9:e0:ac:86:ab:33:16:84:e8:c8:de:58:9d:78:ac:
                    f1:2a:64:b8:e3:f2:cb:20:42:dd:f9:bd:2e:c2:84:
                    6e:11:34:76:a5:c5:54:c5:51:9b:cb:85:d1:05:82:
                    1c:33:d5:95:18:ad:4c:94:d2:7b:4f:72:23:ff:c1:
                    4b:a2:ea:1a:3a:18:c2:f5:c8:08:76:00:12:25:e5:
                    ee:30:b9:8d:2f:0f:95:3d:70:ac:6a:eb:d8:c5:71:
                    9a:cf:a9:a6:6a:ce:45:07:a4:41:de:85:fb:ad:e0:
                    39:0b:6f
                Exponent: 65537 (0x10001)
        X509v3 extensions:
            X509v3 Basic Constraints: 
                CA:FALSE
            X509v3 Key Usage: 
                Digital Signature, Non Repudiation, Key Encipherment
            X509v3 Extended Key Usage: 
                Signing KDC Response
            X509v3 Subject Key Identifier: 
                62:AF:D5:17:E4:9F:2A:8D:8A:CA:2B:05:E1:25:66:BB:61:03:77:EA
            X509v3 Subject Alternative Name: 
                othername:<unsupported>
    Signature Algorithm: sha1WithRSAEncryption
         41:29:9f:70:6b:36:28:cc:86:e1:4d:ae:25:34:b1:24:ab:f8:
         03:de:28:da:d1:13:8e:03:d3:5a:57:72:69:f9:04:1c:e0:1d:
         14:91:c7:a0:8b:ab:c7:61:6e:4e:86:2a:2a:40:22:10:10:58:
         0c:18:95:eb:d2:15:18:35:3c:fc:42:25:1a:dc:03:cb:ba:f3:
         81:80:d2:45:4e:c6:90:11:2f:e9:db:76:9a:e3:1d:0c:04:dc:
         fb:d9:ec:bd:48:38:66:78:d6:52:c2:bc:ae:20:9b:1d:87:28:
         9f:38:fa:db:8f:17:1f:3e:29:85:17:a0:95:bd:72:88:0c:93:
         88:ba:8e:31:67:2b:03:b0:bf:3a:7e:e4:e2:82:f7:6c:36:1a:
         d1:8e:7c:87:63:17:e4:68:7f:4b:e7:dc:40:b5:02:5a:62:be:
         54:ee:11:30:39:80:2a:c0:3e:8f:3b:67:cb:9d:9f:ee:c1:ea:
         f1:4c:e8:55:24:6a:73:84:ef:82:ca:99:ec:84:05:5e:82:a1:
         52:40:5e:71:10:c9:c3:9b:18:ce:7f:50:db:8a:49:d4:b6:b9:
         5e:ef:13:4c:e8:be:76:2b:cc:f9:eb:9e:9b:4b:29:8e:ee:1c:
         e5:bd:08:f0:50:63:e2:c3:94:20:2f:fe:cb:6a:ed:2b:2a:e2:
         51:44:3d:06:d1:b4:43:26:43:07:4d:c9:e1:4f:9d:3d:0f:a6:
         74:93:ff:51:74:c8:aa:2d:76:ab:93:6f:84:47:2d:70:37:d2:
         21:f0:cb:4d:a5:8b:df:91:4b:95:f0:ba:fe:d9:fc:f2:ed:b5:
         e7:91:03:5a:ad:12:43:f3:ba:c8:a7:51:34:9b:40:bd:71:39:
         af:b1:9f:e4:9f:3f:1b:27:a5:84:43:a2:c3:3f:52:63:a8:bf:
         8b:59:82:53:b5:26:64:16:73:90:f8:7b:7d:ce:f6:41:b6:8b:
         81:56:90:c2:ff:46:46:8f:63:3d:95:d9:f0:49:73:37:d9:14:
         2b:26:95:ac:19:29:1d:cb:c2:03:d7:36:4e:4a:39:3e:51:02:
         de:aa:dc:6b:77:a8:57:ba:50:21:0e:8e:b7:48:bc:44:fa:45:
         db:c9:bb:72:ea:e4:2a:7a:35:75:3c:68:29:5d:b9:57:0b:d3:
         2e:2c:4f:01:1b:f0:21:0c:fc:95:17:b7:40:be:aa:0c:f9:04:
         60:6a:d1:54:0d:b9:68:d7:e9:7a:f4:96:ad:f1:a0:15:15:c2:
         51:61:44:5f:0e:bb:98:d1:81:9f:c1:81:d6:e2:26:d5:11:56:
         d2:cd:0f:9c:6b:69:f0:78:24:ff:bf:df:02:2b:0d:d1:83:5b:
         14:4d:c0:e2:80:47:65:2b
-----BEGIN CERTIFICATE-----
MIIFWzCCA0OgAwIBAgIBCDANBgkqhkiG9w0BAQUFADAqMRswGQYDVQQDDBJoeDUw
OSBUZXN0IFJvb3QgQ0ExCzAJBgNVBAYTAlNFMCAXDTE5MDMyMjIyMjUwOVoYDzI1
MTgxMTIxMjIyNTA5WjAbMQswCQYDVQQGEwJTRTEMMAoGA1UEAwwDa2RjMIICIjAN
BgkqhkiG9w0BAQEFAAOCAg8AMIICCgKCAgEA0XPsWGd6ZTCrGRWhvx7e2+VKkvCZ
iusCbeQxGsdNB1exgp7S0sfzC7KCYVy6OMNU6eG+a18NImIry9U0DmMLUIqLs75q
4YXcsSgT7t1uQNVIHeuqBAvnyBxtYFS2zL5SWogizgctP8v8AKuLpecyjrGLA9iB
omnUnzr/2rXjDeMhVCnLYboWE5SXG3IkbdrX2TWxV/E7ne6Qdk5YH052EsaJKlS/
6FNa3gV5kwtBLAPFMFio5lcI+Ud8wDpc6xszaFICGQjmNUgFp1EiiRweyAtVc7LJ
dfl0qt5eOlT4lkfPJS1153F0MZEXhUSJihaIyhLdDjZN5a+z29N8U416CGmScoHI
E8dxlo8tVJjJYxAmvlmP24JHwSnGKH+gFr+FousvL0aGa3cfMTDUUjUyCRbNSOw8
TCwD5bmQ6fe0fZeRMSdO37a9tuzKRxYAWOmHTyCv70w0Qls+KKrNOXU7b3y5e1B2
ZyUxRvU0qsZaIne1nW2ITfHm58rS2HAQWDlYD86Ns03k9IDKMXU8OGFs2RfSqnL5
4KyGqzMWhOjI3lideKzxKmS44/LLIELd+b0uwoRuETR2pcVUxVGby4XRBYIcM9WV
GK1MlNJ7T3Ij/8FLouoaOhjC9cgIdgASJeXuMLmNLw+VPXCsauvYxXGaz6mmas5F
B6RB3oX7reA5C28CAwEAAaOBmDCBlTAJBgNVHRMEAjAAMAsGA1UdDwQEAwIF4DAS
BgNVHSUECzAJBgcrBgEFAgMFMB0GA1UdDgQWBBRir9UX5J8qjYrKKwXhJWa7YQN3
6jBIBgNVHREEQTA/oD0GBisGAQUCAqAzMDGgDRsLVEVTVC5INUwuU0WhIDAeoAMC
AQGhFzAVGwZrcmJ0Z3QbC1RFU1QuSDVMLlNFMA0GCSqGSIb3DQEBBQUAA4ICAQBB
KZ9wazYozIbhTa4lNLEkq/gD3ija0ROOA9NaV3Jp+QQc4B0Ukcegi6vHYW5Ohioq
QCIQEFgMGJXr0hUYNTz8QiUa3APLuvOBgNJFTsaQES/p23aa4x0MBNz72ey9SDhm
eNZSwryuIJsdhyifOPrbjxcfPimFF6CVvXKIDJOIuo4xZysDsL86fuTigvdsNhrR
jnyHYxfkaH9L59xAtQJaYr5U7hEwOYAqwD6PO2fLnZ/uwerxTOhVJGpzhO+Cypns
hAVegqFSQF5xEMnDmxjOf1DbiknUtrle7xNM6L52K8z5656bSymO7hzlvQjwUGPi
w5QgL/7Lau0rKuJRRD0G0bRDJkMHTcnhT509D6Z0k/9RdMiqLXark2+ERy1wN9Ih
8MtNpYvfkUuV8Lr+2fzy7bXnkQNarRJD87rIp1E0m0C9cTmvsZ/knz8bJ6WEQ6LD
P1JjqL+LWYJTtSZkFnOQ+Ht9zvZBtouBVpDC/0ZGj2M9ldnwSXM32RQrJpWsGSkd
y8ID1zZOSjk+UQLeqtxrd6hXulAhDo63SLxE+kXbybty6uQqejV1PGgpXblXC9Mu
LE8BG/AhDPyVF7dAvqoM+QRgatFUDblo1+l69Jat8aAVFcJRYURfDruY0YGfwYHW
4ibVEVbSzQ+ca2nweCT/v98CKw3Rg1sUTcDigEdlKw==
-----END CERTIFICATE-----
