Certificate:
    Data:
        Version: 3 (0x2)
        Serial Number: 1 (0x1)
    Signature Algorithm: sha1WithRSAEncryption
        Issuer: CN=hx509 Test Root CA, C=SE
        Validity
            Not Before: Mar 22 22:25:01 2019 GMT
            Not After : Nov 21 22:25:01 2518 GMT
        Subject: C=SE, CN=OCSP responder
        Subject Public Key Info:
            Public Key Algorithm: rsaEncryption
                Public-Key: (4096 bit)
                Modulus:
                    00:b1:21:1d:c9:2b:44:9e:62:fe:13:94:ea:a1:e1:
                    cd:17:0e:bb:4d:1c:62:27:ee:d3:f7:61:c8:26:c1:
                    0f:45:fc:10:d8:39:c3:da:86:a0:00:30:d7:ad:86:
                    ff:c6:36:6c:f5:e2:26:8c:f6:76:1b:d0:09:b6:a5:
                    f8:cb:d5:88:fc:ca:ca:28:49:ed:64:2b:f3:88:4e:
                    8e:ec:7c:63:b8:75:6a:cc:73:b6:66:6c:c3:7c:e4:
                    d7:50:95:88:12:84:e7:5c:50:87:db:4c:bf:91:98:
                    b1:3a:44:57:0b:1a:7a:f1:93:e3:4c:69:8b:9f:d7:
                    b9:20:8d:0e:cb:ff:de:38:6f:6a:91:55:1a:6f:a6:
                    82:1d:05:f6:fc:46:8c:83:8b:ab:6e:3f:6a:6f:c5:
                    0c:cc:ff:3c:78:74:d4:f8:56:be:59:60:d5:3f:4d:
                    3e:e4:e1:4b:2d:c5:2a:d1:6a:7a:21:b9:6e:61:10:
                    03:79:88:5b:74:f4:29:0d:56:d3:6b:d5:7d:8c:59:
                    5d:4e:89:0d:a3:a6:8b:43:28:e8:e2:f1:bb:d5:eb:
                    65:9b:c2:d6:62:aa:df:66:d5:92:dd:84:6c:29:28:
                    1a:e8:29:b3:09:d1:45:14:44:cb:30:03:73:3a:94:
                    a3:a3:24:89:15:fb:ca:e0:a6:62:35:48:f8:92:50:
                    3a:ff:17:d8:4a:1e:a0:9c:d9:68:cc:21:e1:c9:36:
                    d1:47:bc:f1:56:3e:87:18:10:0d:f5:56:9a:c9:79:
                    16:c0:08:a0:59:65:b2:00:dd:9a:e9:97:e7:8f:85:
                    ee:cd:0d:20:5e:2d:58:ff:8e:e3:ce:4f:36:65:c3:
                    f1:88:39:dd:34:29:db:8c:ed:6e:c8:7b:30:ad:49:
                    58:e6:f9:5b:85:46:0a:04:0f:9e:ea:ca:a8:2a:35:
                    0d:66:f3:48:b6:e3:c7:e0:e8:a3:ed:6c:f3:e4:cd:
                    1d:45:f3:e2:2c:6c:5b:91:b8:26:dd:49:d4:78:d3:
                    4e:57:3a:b5:af:cd:3a:05:d5:89:63:f5:bc:73:1f:
                    26:cc:2c:4b:2d:81:b3:5d:49:28:04:46:f8:24:5a:
                    68:1d:06:1b:2d:be:56:f9:b3:f4:d1:50:2f:95:9b:
                    9f:45:c7:62:35:bc:46:a9:df:c6:45:21:e9:1c:7d:
                    a8:2e:b1:87:91:0b:7c:fb:97:52:31:f9:41:73:ba:
                    83:22:4a:80:f9:ff:f1:95:74:79:f7:20:95:f0:17:
                    20:7d:ac:55:e8:b0:c6:b2:a6:56:c6:c0:cf:3d:78:
                    d5:9e:37:41:b4:78:aa:30:f0:2d:59:7c:6a:c8:68:
                    cc:91:09:13:f8:9f:04:e3:a9:86:c2:74:ba:f6:32:
                    44:0d:bd
                Exponent: 65537 (0x10001)
        X509v3 extensions:
            X509v3 Basic Constraints: 
                CA:FALSE
            X509v3 Key Usage: 
                Digital Signature, Non Repudiation, Key Encipherment
            X509v3 Extended Key Usage: 
                OCSP No Check, OCSP Signing
            X509v3 Subject Key Identifier: 
                D0:3C:E8:05:07:BB:9A:96:36:88:44:AA:9A:4F:62:9E:9F:33:5B:03
    Signature Algorithm: sha1WithRSAEncryption
         c0:72:d2:af:26:74:de:f8:7c:96:bf:ab:d2:ed:95:d9:bb:0b:
         07:31:8a:4b:21:f0:b5:7e:ab:b4:50:b0:af:bf:96:64:ce:38:
         99:3d:f3:26:02:4d:5a:da:71:ad:6d:a6:f7:fc:5e:46:16:3d:
         9e:cf:95:a3:5d:0c:4a:64:a1:84:88:b0:31:0e:eb:54:cb:99:
         42:45:09:92:ea:b7:74:f5:fb:ff:c6:91:31:27:bd:54:55:9f:
         6c:bb:e2:45:4a:33:ed:00:a5:4e:e2:7b:2c:98:f1:3b:bc:f2:
         87:33:e5:22:d8:fc:a8:4c:90:e2:df:ce:48:c8:3c:56:43:6c:
         ac:f1:f6:e0:75:c2:a7:f9:33:87:4e:75:a6:22:17:78:32:88:
         aa:f9:2a:40:4c:e0:25:6c:4c:0c:cb:6f:1a:7b:13:0d:35:a6:
         23:86:42:75:3c:c1:69:c1:c5:79:77:51:4b:19:14:e7:4b:f9:
         df:0b:30:aa:c4:97:84:6e:57:7b:00:b3:a5:31:c6:9f:17:f1:
         b0:4c:81:f7:e6:df:e8:c0:d2:91:03:c2:e3:dd:94:c4:f0:ee:
         1c:73:1c:33:ae:91:60:fe:cf:48:08:0a:95:c1:95:28:af:31:
         23:a6:2a:1c:d1:6c:7f:68:e8:a9:a4:27:8f:6f:29:33:a9:48:
         0c:03:8f:fa:b5:ef:2a:9a:ce:ed:ba:74:39:88:ef:3b:d9:93:
         77:34:30:d1:a3:5c:9d:f1:3c:30:19:c2:ca:2e:41:5b:23:bb:
         6a:67:35:e3:e2:c6:6e:a0:3e:76:50:db:6b:ee:02:98:81:bf:
         75:ac:3a:78:4f:f4:fb:d1:7a:1f:85:1a:24:cd:b8:06:7e:95:
         28:85:2a:c6:41:23:35:08:31:59:ce:ad:a3:23:1a:7a:11:26:
         d9:45:57:bf:ea:e0:72:3a:f8:48:e0:c1:5c:b3:20:93:b5:1a:
         93:75:ef:f3:19:9d:ed:5d:9f:81:73:21:02:96:fa:ee:c9:4c:
         c7:95:1b:aa:65:b9:69:15:3c:ef:b3:f6:e1:f5:89:78:05:50:
         d3:54:c4:c9:40:e5:5f:3e:bd:36:d2:0e:27:99:5e:83:e5:4b:
         bf:72:84:13:64:8d:d9:db:69:8b:04:37:e8:db:22:46:29:84:
         08:83:40:34:d8:e0:bf:cc:5c:7c:b2:bd:c5:38:7d:59:e6:9d:
         8a:78:87:08:13:6f:a5:7d:2f:88:80:ce:e5:86:38:6f:53:b8:
         99:ba:f5:21:9e:8f:5f:aa:3a:07:73:9b:02:f1:97:1f:8b:52:
         53:5e:24:af:d7:b9:a4:3f:4e:64:c8:62:26:b3:c0:44:dd:bb:
         29:8c:b5:66:05:5d:fd:f7
-----BEGIN CERTIFICATE-----
MIIFJjCCAw6gAwIBAgIBATANBgkqhkiG9w0BAQUFADAqMRswGQYDVQQDDBJoeDUw
OSBUZXN0IFJvb3QgQ0ExCzAJBgNVBAYTAlNFMCAXDTE5MDMyMjIyMjUwMVoYDzI1
MTgxMTIxMjIyNTAxWjAmMQswCQYDVQQGEwJTRTEXMBUGA1UEAwwOT0NTUCByZXNw
b25kZXIwggIiMA0GCSqGSIb3DQEBAQUAA4ICDwAwggIKAoICAQCxIR3JK0SeYv4T
lOqh4c0XDrtNHGIn7tP3YcgmwQ9F/BDYOcPahqAAMNethv/GNmz14iaM9nYb0Am2
pfjL1Yj8ysooSe1kK/OITo7sfGO4dWrMc7ZmbMN85NdQlYgShOdcUIfbTL+RmLE6
RFcLGnrxk+NMaYuf17kgjQ7L/944b2qRVRpvpoIdBfb8RoyDi6tuP2pvxQzM/zx4
dNT4Vr5ZYNU/TT7k4UstxSrRanohuW5hEAN5iFt09CkNVtNr1X2MWV1OiQ2jpotD
KOji8bvV62WbwtZiqt9m1ZLdhGwpKBroKbMJ0UUURMswA3M6lKOjJIkV+8rgpmI1
SPiSUDr/F9hKHqCc2WjMIeHJNtFHvPFWPocYEA31VprJeRbACKBZZbIA3Zrpl+eP
he7NDSBeLVj/juPOTzZlw/GIOd00KduM7W7IezCtSVjm+VuFRgoED57qyqgqNQ1m
80i248fg6KPtbPPkzR1F8+IsbFuRuCbdSdR4005XOrWvzToF1Ylj9bxzHybMLEst
gbNdSSgERvgkWmgdBhstvlb5s/TRUC+Vm59Fx2I1vEap38ZFIekcfagusYeRC3z7
l1Ix+UFzuoMiSoD5//GVdHn3IJXwFyB9rFXosMayplbGwM89eNWeN0G0eKow8C1Z
fGrIaMyRCRP4nwTjqYbCdLr2MkQNvQIDAQABo1kwVzAJBgNVHRMEAjAAMAsGA1Ud
DwQEAwIF4DAeBgNVHSUEFzAVBgkrBgEFBQcwAQUGCCsGAQUFBwMJMB0GA1UdDgQW
BBTQPOgFB7ualjaIRKqaT2KenzNbAzANBgkqhkiG9w0BAQUFAAOCAgEAwHLSryZ0
3vh8lr+r0u2V2bsLBzGKSyHwtX6rtFCwr7+WZM44mT3zJgJNWtpxrW2m9/xeRhY9
ns+Vo10MSmShhIiwMQ7rVMuZQkUJkuq3dPX7/8aRMSe9VFWfbLviRUoz7QClTuJ7
LJjxO7zyhzPlItj8qEyQ4t/OSMg8VkNsrPH24HXCp/kzh051piIXeDKIqvkqQEzg
JWxMDMtvGnsTDTWmI4ZCdTzBacHFeXdRSxkU50v53wswqsSXhG5XewCzpTHGnxfx
sEyB9+bf6MDSkQPC492UxPDuHHMcM66RYP7PSAgKlcGVKK8xI6YqHNFsf2joqaQn
j28pM6lIDAOP+rXvKprO7bp0OYjvO9mTdzQw0aNcnfE8MBnCyi5BWyO7amc14+LG
bqA+dlDba+4CmIG/daw6eE/0+9F6H4UaJM24Bn6VKIUqxkEjNQgxWc6toyMaehEm
2UVXv+rgcjr4SODBXLMgk7Uak3Xv8xmd7V2fgXMhApb67slMx5UbqmW5aRU877P2
4fWJeAVQ01TEyUDlXz69NtIOJ5leg+VLv3KEE2SN2dtpiwQ36NsiRimECINANNjg
v8xcfLK9xTh9WeadiniHCBNvpX0viIDO5YY4b1O4mbr1IZ6PX6o6B3ObAvGXH4tS
U14kr9e5pD9OZMhiJrPARN27KYy1ZgVd/fc=
-----END CERTIFICATE-----
