Certificate:
    Data:
        Version: 3 (0x2)
        Serial Number: 10 (0xa)
    Signature Algorithm: sha1WithRSAEncryption
        Issuer: CN=hx509 Test Root CA, C=SE
        Validity
            Not Before: Mar 22 22:25:10 2019 GMT
            Not After : Nov 21 22:25:10 2518 GMT
        Subject: C=SE, CN=Sub CA
        Subject Public Key Info:
            Public Key Algorithm: rsaEncryption
                Public-Key: (4096 bit)
                Modulus:
                    00:c7:18:39:67:2a:c4:6b:c6:1a:64:23:bb:ba:4c:
                    47:22:35:91:b7:c9:eb:57:b9:8b:8f:83:62:be:0a:
                    56:49:cc:ed:de:7e:f9:44:db:8f:f9:f9:ec:db:a2:
                    4a:d3:fa:b1:36:c0:93:e9:2b:d0:9a:64:65:43:52:
                    64:0e:af:3c:0a:23:57:d9:66:44:0c:ef:a6:73:7e:
                    4d:71:94:76:5d:d2:2e:9c:02:1e:44:4b:67:0d:61:
                    05:ff:f1:cc:29:94:93:ab:f7:b6:d7:33:d0:9e:b4:
                    02:1a:7b:03:bb:9c:52:00:21:43:97:ff:59:f3:b1:
                    eb:16:67:b1:5a:66:26:99:04:12:28:bb:68:97:38:
                    66:cf:d3:cc:da:41:d8:4f:e2:f9:59:48:da:ca:55:
                    b9:2a:63:43:6b:0d:c5:58:75:8e:6e:55:d2:77:cd:
                    df:8a:14:82:a2:72:f3:e8:93:a1:e4:72:f3:c0:93:
                    b3:0b:72:98:ad:53:93:53:86:fc:b0:3b:77:1c:aa:
                    f5:64:77:ce:92:0c:07:82:60:39:e9:d6:bc:df:dc:
                    ad:f9:4f:42:d2:db:42:76:6e:0b:f5:fa:58:05:7f:
                    3c:d9:cf:eb:d2:c0:9a:26:2c:e8:90:73:0a:3c:42:
                    e5:f9:0b:cd:53:2d:16:14:75:f8:47:2e:04:1a:47:
                    d8:a6:20:0f:ec:96:fe:14:30:87:30:84:04:74:42:
                    45:b3:3b:c1:48:84:54:4e:69:9b:f5:cb:7a:da:75:
                    1e:26:93:87:5e:a2:c6:8f:fd:0f:96:84:76:2d:18:
                    86:f7:87:1e:95:47:10:45:b5:45:ea:38:b7:e0:22:
                    28:c6:98:42:5f:ed:69:d6:73:a3:d4:72:de:74:f7:
                    2a:d2:90:5d:66:86:a1:b5:a4:fb:c7:37:94:65:82:
                    80:d7:88:84:be:d6:5f:fd:25:88:0b:ee:6b:bb:4b:
                    94:c6:e1:39:95:74:93:44:44:8e:3f:7e:13:33:49:
                    8e:e3:f4:a0:43:e7:2d:15:f7:02:e9:bf:a8:94:65:
                    71:df:45:35:f7:cc:03:b6:e4:d6:32:d2:98:66:ba:
                    d6:da:76:35:e0:81:76:25:0a:94:3f:6c:a6:53:49:
                    52:c5:38:44:4d:ea:b4:fd:50:ee:63:e1:1b:51:ef:
                    62:64:0e:39:cb:10:73:9d:fd:b0:2e:15:5a:cb:90:
                    1c:9f:e9:88:37:14:92:32:7b:7a:00:fd:35:b4:d3:
                    8c:99:90:74:95:7d:bf:25:41:04:68:56:38:3e:f1:
                    f5:97:b5:f3:cc:b8:16:99:40:1f:9d:eb:51:88:46:
                    2a:62:b9:a5:bd:ad:97:db:58:5a:d4:6c:ed:32:db:
                    b4:5a:f5
                Exponent: 65537 (0x10001)
        X509v3 extensions:
            X509v3 Subject Key Identifier: 
                63:34:08:C8:42:04:47:74:99:65:DD:4F:EA:C5:0F:05:D9:F8:CE:47
            X509v3 Authority Key Identifier: 
                keyid:53:B8:CC:09:C6:9F:42:EA:D5:E4:74:20:B4:65:ED:68:F8:9D:B5:05
                DirName:/CN=hx509 Test Root CA/C=SE
                serial:8D:F8:0A:D8:C1:70:91:C4

            X509v3 Basic Constraints: 
                CA:TRUE
            X509v3 Key Usage: 
                Digital Signature, Non Repudiation, Key Encipherment, Certificate Sign, CRL Sign
    Signature Algorithm: sha1WithRSAEncryption
         77:0b:fc:11:37:04:49:92:2b:97:e1:ee:b6:94:33:11:be:bb:
         db:8b:6e:ce:42:11:39:b2:be:61:03:a2:ef:d4:06:1f:63:d2:
         af:1f:c5:43:80:67:1d:10:a0:3d:93:d1:7f:bd:be:9e:21:48:
         d0:a8:ea:8c:32:0a:f7:eb:b0:c7:0f:ac:a7:8b:c6:1a:18:10:
         51:88:fd:1a:53:4b:1b:7b:94:5e:59:02:92:72:6c:df:32:3a:
         9c:f5:87:c9:fd:a2:f8:d3:df:34:be:75:7e:51:15:eb:b0:df:
         87:1b:15:df:fc:97:1e:06:f9:6e:8b:79:45:3d:c4:76:d2:1d:
         8e:04:8f:72:d6:b0:7c:09:79:23:47:7a:9a:41:76:7e:c3:3d:
         2d:46:26:db:72:64:a8:1d:ca:94:fe:d8:69:e7:24:1f:dc:c8:
         7b:4f:2f:89:7b:a3:8c:33:7f:0f:54:16:f4:45:60:e1:df:68:
         f5:5b:3a:ce:1c:63:e6:81:ca:a6:aa:e4:a2:c1:07:e3:ec:ef:
         ef:ad:cc:ac:5a:e1:57:40:15:09:b3:0f:f1:58:b2:2a:45:eb:
         5e:16:03:9c:2c:c1:ce:22:48:67:06:5e:0a:fd:fd:d5:76:8e:
         a8:db:2c:38:15:b4:c1:e4:0f:12:98:0a:43:19:e6:74:b9:8b:
         e3:7a:92:2e:2a:30:1d:b7:85:39:d5:29:2f:54:16:7d:b0:f6:
         f9:17:e2:95:07:ff:0f:e6:16:55:6d:97:c8:41:c6:5f:8f:a9:
         3c:3a:19:8d:66:29:13:f3:00:6d:31:f3:f1:14:a5:e8:c7:2c:
         c0:18:4b:5e:15:88:eb:59:44:97:91:1c:78:d7:a0:4d:a1:bf:
         bf:b0:67:4f:68:df:d3:d0:c4:6e:b8:1d:36:bd:a8:c8:b4:67:
         34:c0:b2:28:8a:e9:1a:30:14:b3:be:d5:a3:a0:57:4f:b7:ff:
         a0:9e:c0:28:58:90:43:57:e7:7c:d0:81:90:41:54:85:56:4b:
         cd:f4:a3:63:3b:1a:8f:82:0d:2c:9d:79:58:40:f4:f6:37:a0:
         fc:77:db:82:ab:de:fa:0c:7f:c2:ce:35:80:4e:f7:d8:0d:8b:
         cd:5b:8c:a9:82:ec:a3:a1:ca:b8:4e:29:fd:35:79:dc:4d:f3:
         bf:ee:41:a0:88:63:b9:65:22:bb:0d:27:e8:91:d4:20:51:06:
         f9:e7:9a:e9:7c:4c:4a:64:b5:4f:22:79:36:ad:79:e8:b8:6a:
         6f:f8:e8:39:48:7b:3f:87:14:9a:22:ec:7d:33:94:35:42:29:
         56:11:de:15:bd:4c:c2:5d:ff:9f:82:72:a2:00:b3:e9:68:38:
         5b:ab:dd:0d:90:73:cd:80
-----BEGIN CERTIFICATE-----
MIIFXzCCA0egAwIBAgIBCjANBgkqhkiG9w0BAQUFADAqMRswGQYDVQQDDBJoeDUw
OSBUZXN0IFJvb3QgQ0ExCzAJBgNVBAYTAlNFMCAXDTE5MDMyMjIyMjUxMFoYDzI1
MTgxMTIxMjIyNTEwWjAeMQswCQYDVQQGEwJTRTEPMA0GA1UEAwwGU3ViIENBMIIC
IjANBgkqhkiG9w0BAQEFAAOCAg8AMIICCgKCAgEAxxg5ZyrEa8YaZCO7ukxHIjWR
t8nrV7mLj4NivgpWSczt3n75RNuP+fns26JK0/qxNsCT6SvQmmRlQ1JkDq88CiNX
2WZEDO+mc35NcZR2XdIunAIeREtnDWEF//HMKZSTq/e21zPQnrQCGnsDu5xSACFD
l/9Z87HrFmexWmYmmQQSKLtolzhmz9PM2kHYT+L5WUjaylW5KmNDaw3FWHWOblXS
d83fihSConLz6JOh5HLzwJOzC3KYrVOTU4b8sDt3HKr1ZHfOkgwHgmA56da839yt
+U9C0ttCdm4L9fpYBX882c/r0sCaJizokHMKPELl+QvNUy0WFHX4Ry4EGkfYpiAP
7Jb+FDCHMIQEdEJFszvBSIRUTmmb9ct62nUeJpOHXqLGj/0PloR2LRiG94celUcQ
RbVF6ji34CIoxphCX+1p1nOj1HLedPcq0pBdZoahtaT7xzeUZYKA14iEvtZf/SWI
C+5ru0uUxuE5lXSTRESOP34TM0mO4/SgQ+ctFfcC6b+olGVx30U198wDtuTWMtKY
ZrrW2nY14IF2JQqUP2ymU0lSxThETeq0/VDuY+EbUe9iZA45yxBznf2wLhVay5Ac
n+mINxSSMnt6AP01tNOMmZB0lX2/JUEEaFY4PvH1l7XzzLgWmUAfnetRiEYqYrml
va2X21ha1GztMtu0WvUCAwEAAaOBmTCBljAdBgNVHQ4EFgQUYzQIyEIER3SZZd1P
6sUPBdn4zkcwWgYDVR0jBFMwUYAUU7jMCcafQurV5HQgtGXtaPidtQWhLqQsMCox
GzAZBgNVBAMMEmh4NTA5IFRlc3QgUm9vdCBDQTELMAkGA1UEBhMCU0WCCQCN+ArY
wXCRxDAMBgNVHRMEBTADAQH/MAsGA1UdDwQEAwIB5jANBgkqhkiG9w0BAQUFAAOC
AgEAdwv8ETcESZIrl+HutpQzEb6724tuzkIRObK+YQOi79QGH2PSrx/FQ4BnHRCg
PZPRf72+niFI0KjqjDIK9+uwxw+sp4vGGhgQUYj9GlNLG3uUXlkCknJs3zI6nPWH
yf2i+NPfNL51flEV67DfhxsV3/yXHgb5bot5RT3EdtIdjgSPctawfAl5I0d6mkF2
fsM9LUYm23JkqB3KlP7YaeckH9zIe08viXujjDN/D1QW9EVg4d9o9Vs6zhxj5oHK
pqrkosEH4+zv763MrFrhV0AVCbMP8ViyKkXrXhYDnCzBziJIZwZeCv391XaOqNss
OBW0weQPEpgKQxnmdLmL43qSLiowHbeFOdUpL1QWfbD2+RfilQf/D+YWVW2XyEHG
X4+pPDoZjWYpE/MAbTHz8RSl6McswBhLXhWI61lEl5EceNegTaG/v7BnT2jf09DE
brgdNr2oyLRnNMCyKIrpGjAUs77Vo6BXT7f/oJ7AKFiQQ1fnfNCBkEFUhVZLzfSj
Yzsaj4INLJ15WED09jeg/Hfbgqve+gx/ws41gE732A2LzVuMqYLso6HKuE4p/TV5
3E3zv+5BoIhjuWUiuw0n6JHUIFEG+eea6XxMSmS1TyJ5Nq156Lhqb/joOUh7P4cU
miLsfTOUNUIpVhHeFb1Mwl3/n4JyogCz6Wg4W6vdDZBzzYA=
-----END CERTIFICATE-----
