Certificate:
    Data:
        Version: 3 (0x2)
        Serial Number: 2 (0x2)
    Signature Algorithm: sha1WithRSAEncryption
        Issuer: CN=hx509 Test Root CA, C=SE
        Validity
            Not Before: Mar 22 22:25:02 2019 GMT
            Not After : Nov 21 22:25:02 2518 GMT
        Subject: C=SE, CN=Test cert
        Subject Public Key Info:
            Public Key Algorithm: rsaEncryption
                Public-Key: (4096 bit)
                Modulus:
                    00:da:1d:4d:ca:51:9d:f1:9f:d7:a4:7a:45:f8:75:
                    98:66:b2:c5:7d:53:de:42:35:74:81:cd:1e:9f:f3:
                    43:d7:a7:83:7f:fb:a2:ce:3c:44:37:80:4f:21:36:
                    a6:f6:c9:51:74:9e:e2:9b:bf:ad:e4:eb:72:11:64:
                    36:88:b3:a9:91:63:c7:ee:38:c4:f5:8c:06:71:e5:
                    09:b7:eb:57:5d:bf:db:5b:72:07:c5:29:e8:6f:33:
                    b3:a2:27:ef:1f:50:f0:55:33:63:41:23:e0:b2:f7:
                    21:77:4b:ab:9d:73:2a:bb:b6:4e:88:7f:7c:e5:c6:
                    37:3e:b6:20:c1:57:3e:6d:57:78:ef:0d:47:e9:41:
                    e7:fa:b6:2d:32:3f:42:05:8d:56:af:f5:c4:b8:6e:
                    99:1a:e7:07:d5:a1:3f:29:7d:ce:b2:39:a6:ab:06:
                    7a:e2:26:39:d8:96:9e:3b:c8:af:79:3e:9a:24:4e:
                    4b:b2:af:e4:07:0e:71:dc:2f:70:27:97:3c:a2:fa:
                    69:9b:57:4b:c5:53:5e:28:0c:b0:c7:57:1f:a2:b2:
                    26:0f:5f:bf:d3:45:78:90:5a:2c:fc:6a:67:33:b6:
                    c1:7e:cd:17:c0:58:9e:ba:85:c5:15:5a:5a:67:db:
                    bf:2f:05:cd:38:d9:94:c9:95:7f:9b:68:b0:62:ff:
                    37:92:cf:d8:77:be:cb:72:3d:0f:b9:80:44:57:c0:
                    c9:10:01:fd:07:25:30:eb:d8:48:05:af:98:fa:c4:
                    64:6d:59:a6:6a:8d:1b:d4:4b:f3:07:98:68:e3:bb:
                    59:c9:21:f8:11:b4:a2:82:1b:0d:e8:8c:e0:a5:e1:
                    1c:71:ca:c3:2d:90:43:c3:ee:99:2c:7d:41:48:39:
                    c8:00:72:0d:80:39:23:a1:3a:27:ed:07:ca:32:8f:
                    34:ca:bb:9d:67:13:7d:31:ed:4a:db:35:7a:ce:b3:
                    89:e3:64:9d:3e:47:4e:d3:b7:bd:ab:12:16:10:bb:
                    66:e8:1a:77:4c:2a:e0:b9:16:69:66:14:83:4e:4a:
                    f3:6f:ab:85:6a:70:c6:9b:ce:93:ab:75:36:a3:a5:
                    aa:9f:45:d6:a2:7f:17:c7:6f:f9:f5:e7:35:51:a5:
                    75:c5:07:be:26:ce:7b:3f:29:3a:74:6b:17:79:4e:
                    cf:4c:0a:69:75:58:db:eb:a8:dd:f1:e6:cc:a3:18:
                    53:a5:c5:a5:5a:a1:cf:37:6a:b1:9f:d3:d4:eb:0f:
                    02:40:d2:ae:68:ce:bc:c5:46:e3:ee:f8:97:88:ee:
                    c8:a7:01:7a:a1:23:af:f3:31:2c:2a:6f:12:77:dc:
                    3c:51:9d:40:f4:9a:2a:7b:85:29:1f:3e:c3:d5:37:
                    8e:6e:09
                Exponent: 65537 (0x10001)
        X509v3 extensions:
            X509v3 Basic Constraints: 
                CA:FALSE
            X509v3 Key Usage: 
                Digital Signature, Non Repudiation, Key Encipherment
            X509v3 Subject Key Identifier: 
                1B:F4:EC:34:42:BA:8B:67:AC:55:F2:37:5D:B4:68:A9:D8:5E:58:7B
    Signature Algorithm: sha1WithRSAEncryption
         95:f7:1c:99:72:42:4f:d3:bd:ba:3f:7a:75:bb:01:3a:ad:ce:
         6b:7b:b7:3d:5d:3b:46:51:ea:9a:36:94:70:36:1c:3b:fc:ba:
         9d:8b:0d:44:36:08:ad:a6:73:82:bc:23:ed:f9:5a:09:8f:9d:
         62:11:c1:94:7c:61:66:1f:8b:b9:0a:dc:3a:b5:eb:22:54:de:
         a3:e5:8a:94:10:1f:84:52:6d:fe:27:c8:e5:cb:a5:8e:a9:83:
         16:95:0d:6c:3e:57:85:e1:ec:82:05:47:6d:28:ad:0d:84:fa:
         40:a0:96:f4:84:aa:d1:e1:0b:b7:91:e2:47:4f:05:97:f8:10:
         a0:e8:57:bd:ed:48:65:55:75:da:e5:34:e8:f1:20:95:d6:40:
         8c:42:bf:b4:d9:55:c8:30:e8:d5:ce:d8:1d:30:65:90:39:eb:
         e2:83:ed:11:03:cd:07:c0:e1:c4:91:84:a0:97:8e:6d:22:e6:
         75:77:21:7c:32:8b:48:ed:d6:b2:19:2e:af:26:ad:7d:6c:ce:
         09:e1:78:b6:72:61:60:22:92:b8:df:42:6b:34:6b:5f:35:ef:
         f1:d3:c6:7f:92:05:3c:d0:08:77:01:66:f7:57:b8:65:de:d3:
         d2:b1:bf:93:b1:8c:a3:27:e6:d4:e2:2b:9b:cd:9d:be:31:82:
         5b:53:dd:5a:bd:39:05:5f:8c:56:f2:7f:9b:b7:ef:e6:07:96:
         bf:8a:d9:8d:bb:62:98:86:de:aa:91:c3:fe:e7:bb:a7:1f:f0:
         fd:1f:6c:a6:04:04:f0:c2:51:a1:91:8c:9a:ee:f9:87:42:37:
         7e:9c:27:72:59:dc:60:a8:8e:d1:81:97:f1:15:c3:d8:a9:4e:
         9a:09:e9:81:76:39:36:b3:08:a1:e5:5e:97:37:ba:43:8f:06:
         1a:70:69:3b:fe:79:a6:5e:2d:26:04:e9:bc:5f:57:c9:d0:80:
         c2:0d:4b:c7:0e:dd:04:e5:15:49:9d:d7:ff:ee:a3:1c:04:56:
         7d:e2:a0:d3:39:1a:59:bd:85:b0:eb:54:ea:81:8b:e1:17:94:
         a5:fe:e3:0c:d0:74:42:ee:4a:f4:66:90:49:4b:64:bc:47:35:
         f5:b2:60:8e:74:05:d0:a6:d2:94:b4:e0:0f:4b:3f:35:ea:2a:
         e0:24:58:c1:6e:d0:65:6e:58:f7:e1:90:02:ae:40:23:25:e9:
         80:9a:d2:a7:ea:5d:fc:6d:f8:45:0f:db:53:91:55:32:46:e3:
         6a:c0:54:0a:5a:4c:e8:1a:1e:a6:33:3e:fe:ed:b6:ad:cf:6a:
         3c:2f:b2:6c:47:75:f1:29:43:31:69:c3:0c:42:56:5b:d9:b8:
         99:7b:ff:2b:50:87:34:2e
-----BEGIN CERTIFICATE-----
MIIFATCCAumgAwIBAgIBAjANBgkqhkiG9w0BAQUFADAqMRswGQYDVQQDDBJoeDUw
OSBUZXN0IFJvb3QgQ0ExCzAJBgNVBAYTAlNFMCAXDTE5MDMyMjIyMjUwMloYDzI1
MTgxMTIxMjIyNTAyWjAhMQswCQYDVQQGEwJTRTESMBAGA1UEAwwJVGVzdCBjZXJ0
MIICIjANBgkqhkiG9w0BAQEFAAOCAg8AMIICCgKCAgEA2h1NylGd8Z/XpHpF+HWY
ZrLFfVPeQjV0gc0en/ND16eDf/uizjxEN4BPITam9slRdJ7im7+t5OtyEWQ2iLOp
kWPH7jjE9YwGceUJt+tXXb/bW3IHxSnobzOzoifvH1DwVTNjQSPgsvchd0urnXMq
u7ZOiH985cY3PrYgwVc+bVd47w1H6UHn+rYtMj9CBY1Wr/XEuG6ZGucH1aE/KX3O
sjmmqwZ64iY52JaeO8iveT6aJE5Lsq/kBw5x3C9wJ5c8ovppm1dLxVNeKAywx1cf
orImD1+/00V4kFos/GpnM7bBfs0XwFieuoXFFVpaZ9u/LwXNONmUyZV/m2iwYv83
ks/Yd77Lcj0PuYBEV8DJEAH9ByUw69hIBa+Y+sRkbVmmao0b1EvzB5ho47tZySH4
EbSighsN6IzgpeEcccrDLZBDw+6ZLH1BSDnIAHINgDkjoTon7QfKMo80yrudZxN9
Me1K2zV6zrOJ42SdPkdO07e9qxIWELtm6Bp3TCrguRZpZhSDTkrzb6uFanDGm86T
q3U2o6Wqn0XWon8Xx2/59ec1UaV1xQe+Js57Pyk6dGsXeU7PTAppdVjb66jd8ebM
oxhTpcWlWqHPN2qxn9PU6w8CQNKuaM68xUbj7viXiO7IpwF6oSOv8zEsKm8Sd9w8
UZ1A9Joqe4UpHz7D1TeObgkCAwEAAaM5MDcwCQYDVR0TBAIwADALBgNVHQ8EBAMC
BeAwHQYDVR0OBBYEFBv07DRCuotnrFXyN120aKnYXlh7MA0GCSqGSIb3DQEBBQUA
A4ICAQCV9xyZckJP0726P3p1uwE6rc5re7c9XTtGUeqaNpRwNhw7/Lqdiw1ENgit
pnOCvCPt+VoJj51iEcGUfGFmH4u5Ctw6tesiVN6j5YqUEB+EUm3+J8jly6WOqYMW
lQ1sPleF4eyCBUdtKK0NhPpAoJb0hKrR4Qu3keJHTwWX+BCg6Fe97UhlVXXa5TTo
8SCV1kCMQr+02VXIMOjVztgdMGWQOevig+0RA80HwOHEkYSgl45tIuZ1dyF8MotI
7dayGS6vJq19bM4J4Xi2cmFgIpK430JrNGtfNe/x08Z/kgU80Ah3AWb3V7hl3tPS
sb+TsYyjJ+bU4iubzZ2+MYJbU91avTkFX4xW8n+bt+/mB5a/itmNu2KYht6qkcP+
57unH/D9H2ymBATwwlGhkYya7vmHQjd+nCdyWdxgqI7RgZfxFcPYqU6aCemBdjk2
swih5V6XN7pDjwYacGk7/nmmXi0mBOm8X1fJ0IDCDUvHDt0E5RVJndf/7qMcBFZ9
4qDTORpZvYWw61TqgYvhF5Sl/uMM0HRC7kr0ZpBJS2S8RzX1smCOdAXQptKUtOAP
Sz816irgJFjBbtBlblj34ZACrkAjJemAmtKn6l38bfhFD9tTkVUyRuNqwFQKWkzo
Gh6mMz7+7batz2o8L7JsR3XxKUMxacMMQlZb2biZe/8rUIc0Lg==
-----END CERTIFICATE-----
-----BEGIN PRIVATE KEY-----
MIIJQQIBADANBgkqhkiG9w0BAQEFAASCCSswggknAgEAAoICAQDaHU3KUZ3xn9ek
ekX4dZhmssV9U95CNXSBzR6f80PXp4N/+6LOPEQ3gE8hNqb2yVF0nuKbv63k63IR
ZDaIs6mRY8fuOMT1jAZx5Qm361ddv9tbcgfFKehvM7OiJ+8fUPBVM2NBI+Cy9yF3
S6udcyq7tk6If3zlxjc+tiDBVz5tV3jvDUfpQef6ti0yP0IFjVav9cS4bpka5wfV
oT8pfc6yOaarBnriJjnYlp47yK95PpokTkuyr+QHDnHcL3Anlzyi+mmbV0vFU14o
DLDHVx+isiYPX7/TRXiQWiz8amcztsF+zRfAWJ66hcUVWlpn278vBc042ZTJlX+b
aLBi/zeSz9h3vstyPQ+5gERXwMkQAf0HJTDr2EgFr5j6xGRtWaZqjRvUS/MHmGjj
u1nJIfgRtKKCGw3ojOCl4RxxysMtkEPD7pksfUFIOcgAcg2AOSOhOiftB8oyjzTK
u51nE30x7UrbNXrOs4njZJ0+R07Tt72rEhYQu2boGndMKuC5FmlmFINOSvNvq4Vq
cMabzpOrdTajpaqfRdaifxfHb/n15zVRpXXFB74mzns/KTp0axd5Ts9MCml1WNvr
qN3x5syjGFOlxaVaoc83arGf09TrDwJA0q5ozrzFRuPu+JeI7sinAXqhI6/zMSwq
bxJ33DxRnUD0mip7hSkfPsPVN45uCQIDAQABAoICAQDC4zgktLSJtyb5Yf+vN3PL
H6VyjEOlqRnG+T6J8NUHljfbXT5lRFg3tz/9D1Y0YEGWEHmubKC2UOIFRCOuFcpH
jH6SDst+E3WWwu3iFjhkHg+kL8ldlEqJQgsZstDojGuR1W60P5iAkGyoqUZYUxU1
0HlvYWp57JhkQlwWJRw0mtoFzzoX47mhvLG5megmCdoRM2po2PmYniHT8lX7ftv3
R6fyXMHj3AAH1Nzh0jln/lXAZu0gZiU7YN6/vOtblLirb1B5apDbadhRtLUoCGLN
/pwfVJCT+Bj38nsLtw8rl/pgkGTOiuCZDPnCUI9DCYhUPbzXNSLK0/fHJs2kRyKh
Nv+skWwmHdkCnzIliutxMlzehRHvRINoQ+/U/mNTE1FaNYnNEnSxpUSMKnPYUyTD
YBhjFjtwkRpRDzbbcMBQk7Tbj2aISvFiAz/KOtRBDmBx70IxzxvqZ/5s94lyHZ5H
fozf6LgBfJ5dmboNqHA18oBTAQDO2UBrIxyPSYExWdJ4o0vpTqwpmk8RTwgBsYfU
EfDj3UqO5KJHTJAqdqdhXhz2c5J6EAyxDDItNg10rEVQVQbGbTPLtI8spjWfwJ6g
P5L0j/cJx+nxNQvhrIMQgJfCrZS92PL6Yt0OqTS44m8mJgmt4z9OqZUtoT21fmcS
uIOMYOY/NZBc+wMJ27UoeQKCAQEA8w6aZ+NAqmdDfEi/37XsbadsxDppPZ+/Ss2b
aWOYwNU8P65rt3+EWjLrwMugiKOH1063QmZYcj74C4iaAhLblBiQH24YtiJi9tYs
JCcFLWp01ZEqcxqBqI2kaHd9tuIaANGM+nKZH2MwTkzZ5IX1eAqZ0qgkC7Dx0JvO
x1fXuhRTuFwTSkKZM3w4ba5G4DgczmKQr2SXm19PsMF61YX0n7HFuss85Z6xkONH
gF6yokmPT7k/Ly4PLXZ9kycNx2EI5s1B79iAjaJAK8ifaEfUNNIi/xBf97oX6+hy
AhO8aiC7snt6Tf2DNaJCZR1IKeO0M+5pkN6DZfV0hbQ9ulhD6wKCAQEA5bqt2VJJ
9Vuuu8jcRlHfc4Cbubu+bMt9gbVp33ckAtRtQGQM4tHoHdd2hv4q8lV/f/K3m6Ps
EMGeQ6QBuCWtkqD659eI5hvkchKjF+YGx/jt7k6EUlVUU1bfKXCgQv6W2VmrckzG
ULsedOBLeT0Keppgw4kHqx+o/5DB9G3pZnVBITqGUP471q5X+c3BbAwN+9q8yRyY
BimYJZKx0qgmpHSZ+4l3L6eLlcQiHev7TxGw1sGkpt3OF8NmR5PEzXUYC8qoi8na
neLwTs9NKyb6hmOwTNJiWR5PNxWJeURxfl6GIfoxyUjptIrc5dve6k+ESxGgsSI1
vyXgRUeiMlP82wKCAQEAuqx2jl+NZNLWk/fT1d+FbFpwQO2Tso6kfrEXMYQa589d
7JLrjA1V+2ishHBgJVFjnUuJmGe+elA+da0+i2UsW7vZxSnrtMcINwga8tE9OrpO
bVCGx8yN1ISkxs8vMGzLB+HpYtjtHZwyl5CSsN7pvn510cLtnEUUE+H2mEexGetO
uYOOFTS9MTuwoxx8tuyhwykUcoDRp7U2IU0YKDIvxQ7mDCbX6ItPWTYVzlPs4pOY
i+R80KGRaptcqs4N2Rl/mrP+dlVTtnPs0TPOqmqwYrkZw8gxzLOSd88Y8NtzlBb7
0YLgVlHkmia606n/qJyH5HKxhWBAjuhLy/y4hAwSbQKB/1xtv4SwlxEg0iy7o+Sn
DEBsfjs8TmF3fgex9ebzCIoa7dn6ZzTbP4jCJ+4oVR8rRyEzhqwYR+J2BDcyxX5R
qoRUQJ8HGQ18K226EeSLqC7M+O3oqVR3AHaHfUIvDkvmIstQSKq0ORZCMv7TP4qI
BK9PbZ8+gtdW5aftlhvCHSYcBxhXc7MilvDJNJxNLIVMVFQArfQ8jO3tzklPvDwF
a4a/YzTRGiMSRhb70r43M+WcOIovXw/ELidhdsVVrtj7Q7F62FVl4Y+kvwr2XRX/
mMx5T3WZL/irOTPwdl9UKlWtskn5YA6cR2tcc4QH8qhTVebeMMkT+ovtsU4uhBO7
twKCAQAnvazlAlCSy/OeRqucmyqKjWTMEey6c/5dYlCkirF9J5o3n1YHhOSp8DY8
iEjyl6ptsASapBhD6BpI4AwI6u92WBEwG15bleMlctVmtj7v39AFwNwSvvZtBZcZ
jJ+TWaTT0nMvP90cZe5ql2DTrp/Mp4K9+3oR5qk9+EszobSoHxpgDzLogG+Zp/k/
2NMj125uhuC0GTV5lKcrY6JquXPtqFBKOiBLr3j5sRe+iZ4UqZEjTo91nrV2E3HD
kFJSP1weCD2HQ48T74nS775yrQnR+mWAJjuLpyDW5UXIDpvYlSbnmJ08+4C5Mu/e
UK2bY3PmI10F5vBYLQpLlCYUyBDf
-----END PRIVATE KEY-----
