Certificate:
    Data:
        Version: 3 (0x2)
        Serial Number: 5 (0x5)
    Signature Algorithm: sha1WithRSAEncryption
        Issuer: CN=hx509 Test Root CA, C=SE
        Validity
            Not Before: Mar 22 22:25:05 2019 GMT
            Not After : Nov 21 22:25:05 2518 GMT
        Subject: C=SE, CN=Test cert DigitalSignature
        Subject Public Key Info:
            Public Key Algorithm: rsaEncryption
                Public-Key: (4096 bit)
                Modulus:
                    00:d2:e5:b6:27:f7:6c:c1:d0:ba:8a:4a:6a:4e:b5:
                    a6:92:2e:5b:98:d7:0c:6a:7e:f4:bf:19:30:2d:ee:
                    1c:5a:ee:28:f6:5c:a8:12:03:20:c7:e8:2b:b1:44:
                    9f:b7:54:27:6e:17:fc:c0:f6:f7:ea:38:d2:c8:77:
                    ab:6a:ae:d1:ab:9f:1e:79:df:8a:51:55:aa:6c:6a:
                    13:74:74:2f:c0:20:57:ef:f3:e1:71:da:b0:ec:62:
                    e9:8a:01:da:f6:e6:c6:5a:fe:11:61:58:5c:a0:01:
                    ec:0e:af:70:0d:72:94:a1:d4:1c:76:53:ae:39:a0:
                    cf:70:d8:d9:7c:95:18:2b:5f:36:00:2f:5c:be:a2:
                    d5:8e:0e:e3:aa:76:0c:1f:86:b3:69:fe:e4:29:0a:
                    30:b1:ca:83:1a:f2:88:fc:91:2f:58:be:a4:a0:25:
                    82:bf:16:b3:ca:70:09:7e:cf:29:f9:2e:58:0b:4a:
                    3a:3c:6d:e7:05:63:d5:53:90:ed:ee:96:9e:8e:d7:
                    a8:ef:50:8b:37:bd:dc:88:f5:12:bc:04:4e:e4:f3:
                    ec:5d:9d:e6:46:14:e1:e1:6b:15:ab:f4:52:f6:12:
                    76:ae:2d:a7:65:ec:8f:bd:90:51:52:4d:e7:cf:ba:
                    23:01:7a:85:8b:22:41:a6:98:08:e4:33:00:c1:e2:
                    82:b0:b2:c6:f4:6a:34:c6:a9:d7:b1:cc:c6:1a:0b:
                    ad:69:1f:89:af:e0:63:cd:51:c9:36:7f:08:f0:31:
                    97:ea:78:bb:ae:21:4c:aa:2d:32:de:36:03:cf:64:
                    f8:8a:c0:c5:b3:c4:f9:79:74:7a:8b:d5:ec:bf:19:
                    87:c9:25:0c:99:7d:56:a3:93:68:97:c3:cc:08:fb:
                    37:c0:2c:cb:87:f2:b4:4e:fe:ce:86:69:2b:8e:c3:
                    9e:40:a9:b6:43:6e:d6:b6:3d:08:43:24:09:58:8d:
                    af:d2:5d:1c:0e:cd:bc:e3:0b:b3:4b:a5:69:a8:3c:
                    d7:07:d0:7f:d7:78:c7:5c:a4:9f:e1:a2:bc:76:77:
                    80:25:0e:82:2b:43:1e:e4:67:49:47:d9:65:45:57:
                    ed:59:d7:6e:a1:8d:76:a0:c2:65:52:c8:c8:57:5d:
                    dd:b4:d2:4f:27:a5:08:f1:88:7e:d2:3e:5d:60:c6:
                    67:fb:c9:19:e7:78:cc:41:6d:24:11:cd:a4:e6:cf:
                    56:8c:41:4d:af:d6:e2:22:c0:a3:64:2c:4b:27:f6:
                    b3:87:9d:08:e6:2a:2f:db:c8:50:57:95:a3:cf:67:
                    77:f8:80:15:f3:45:00:47:f8:80:6e:21:b5:80:f1:
                    81:29:45:3f:a9:8a:e2:12:12:4d:c4:90:e3:da:ab:
                    08:80:bd
                Exponent: 65537 (0x10001)
        X509v3 extensions:
            X509v3 Basic Constraints: 
                CA:FALSE
            X509v3 Key Usage: 
                Digital Signature, Non Repudiation
            X509v3 Subject Key Identifier: 
                C4:44:DE:34:6C:55:F0:21:00:F4:CF:F0:55:67:92:FB:8F:B3:40:46
    Signature Algorithm: sha1WithRSAEncryption
         a3:9c:c7:b7:3d:fc:8e:3d:5b:58:98:b0:05:63:fd:a7:50:c2:
         d4:e8:c2:48:b8:b0:a8:e3:f9:c2:8b:11:47:a1:11:5e:e8:4d:
         75:c5:b8:d9:ec:af:81:95:1e:ec:d8:f6:8a:b6:17:12:ab:d4:
         30:84:cb:35:6a:c8:50:5e:1c:55:26:77:ee:84:f0:80:92:95:
         c3:37:50:b3:23:21:7a:3b:63:5a:18:e4:48:fc:de:9b:26:50:
         38:9e:2f:a3:ad:03:5f:0c:b0:a1:0e:41:0b:01:71:b9:a2:df:
         84:f6:c4:d6:9d:8b:f7:a8:ed:cc:7e:b6:8c:5c:bc:26:0c:97:
         77:15:dc:fb:66:4b:0d:01:d9:8e:58:8e:1c:bf:35:47:b8:10:
         d4:12:e5:80:09:b3:d8:4a:f4:0a:3f:6a:2f:9f:47:16:80:a7:
         92:6a:d4:3b:79:7b:25:b9:3e:14:a9:90:4e:92:6e:92:7b:6f:
         04:3a:0d:c6:63:77:82:e2:2d:e9:24:63:ce:a0:b1:8c:23:1d:
         db:79:b8:4f:77:b8:7f:d2:49:5d:b4:60:a0:78:bb:d6:d7:56:
         ff:23:c1:fa:46:cd:9a:2b:0d:87:df:b5:98:eb:7e:fd:af:6e:
         9d:03:de:d3:97:e7:19:09:20:13:ce:2e:b5:89:f0:47:ad:b2:
         3d:f1:5e:77:8b:dd:d3:6e:e2:a8:3c:cd:6a:22:a1:63:92:8c:
         2e:ca:0a:0d:aa:2c:15:98:de:27:08:e5:ee:a5:e0:e5:54:30:
         26:2f:32:ab:c3:de:e0:82:32:2a:dd:39:cb:3c:75:95:8f:9e:
         37:34:34:80:14:27:aa:c6:89:d3:8f:7a:35:19:3b:8b:c1:56:
         06:76:b3:0c:12:05:10:f4:5a:62:ff:d5:ef:e0:f8:da:aa:dc:
         2b:14:73:ad:31:c8:da:19:fe:54:51:32:0f:3b:7f:13:21:0d:
         5c:4f:33:e7:07:92:36:fd:01:04:d4:e6:4c:ba:dc:b4:75:c0:
         f6:1f:3c:5a:4a:34:40:87:3b:8c:44:60:de:11:8d:18:41:0a:
         e4:e9:d6:19:f5:7b:8f:53:3c:d8:3d:7c:4f:f4:b0:86:93:69:
         c1:f1:e0:cd:8f:df:cd:ef:33:31:a8:e1:93:cf:bd:13:13:66:
         55:ef:44:63:06:0a:11:7a:78:e7:5c:6f:d0:f9:9d:bf:90:e5:
         f4:d1:54:31:b8:0d:ed:ed:c0:e2:63:5c:13:01:ff:a8:11:c5:
         7d:42:e1:94:63:6a:63:99:0f:82:ef:49:f7:93:92:e6:72:d7:
         ed:88:d6:ab:b2:25:8c:37:8d:08:22:a0:80:9b:14:fb:a4:a2:
         4f:43:be:ff:d4:e9:7e:79
-----BEGIN CERTIFICATE-----
MIIFEjCCAvqgAwIBAgIBBTANBgkqhkiG9w0BAQUFADAqMRswGQYDVQQDDBJoeDUw
OSBUZXN0IFJvb3QgQ0ExCzAJBgNVBAYTAlNFMCAXDTE5MDMyMjIyMjUwNVoYDzI1
MTgxMTIxMjIyNTA1WjAyMQswCQYDVQQGEwJTRTEjMCEGA1UEAwwaVGVzdCBjZXJ0
IERpZ2l0YWxTaWduYXR1cmUwggIiMA0GCSqGSIb3DQEBAQUAA4ICDwAwggIKAoIC
AQDS5bYn92zB0LqKSmpOtaaSLluY1wxqfvS/GTAt7hxa7ij2XKgSAyDH6CuxRJ+3
VCduF/zA9vfqONLId6tqrtGrnx5534pRVapsahN0dC/AIFfv8+Fx2rDsYumKAdr2
5sZa/hFhWFygAewOr3ANcpSh1Bx2U645oM9w2Nl8lRgrXzYAL1y+otWODuOqdgwf
hrNp/uQpCjCxyoMa8oj8kS9YvqSgJYK/FrPKcAl+zyn5LlgLSjo8becFY9VTkO3u
lp6O16jvUIs3vdyI9RK8BE7k8+xdneZGFOHhaxWr9FL2EnauLadl7I+9kFFSTefP
uiMBeoWLIkGmmAjkMwDB4oKwssb0ajTGqdexzMYaC61pH4mv4GPNUck2fwjwMZfq
eLuuIUyqLTLeNgPPZPiKwMWzxPl5dHqL1ey/GYfJJQyZfVajk2iXw8wI+zfALMuH
8rRO/s6GaSuOw55AqbZDbta2PQhDJAlYja/SXRwOzbzjC7NLpWmoPNcH0H/XeMdc
pJ/horx2d4AlDoIrQx7kZ0lH2WVFV+1Z126hjXagwmVSyMhXXd200k8npQjxiH7S
Pl1gxmf7yRnneMxBbSQRzaTmz1aMQU2v1uIiwKNkLEsn9rOHnQjmKi/byFBXlaPP
Z3f4gBXzRQBH+IBuIbWA8YEpRT+piuISEk3EkOPaqwiAvQIDAQABozkwNzAJBgNV
HRMEAjAAMAsGA1UdDwQEAwIGwDAdBgNVHQ4EFgQUxETeNGxV8CEA9M/wVWeS+4+z
QEYwDQYJKoZIhvcNAQEFBQADggIBAKOcx7c9/I49W1iYsAVj/adQwtTowki4sKjj
+cKLEUehEV7oTXXFuNnsr4GVHuzY9oq2FxKr1DCEyzVqyFBeHFUmd+6E8ICSlcM3
ULMjIXo7Y1oY5Ej83psmUDieL6OtA18MsKEOQQsBcbmi34T2xNadi/eo7cx+toxc
vCYMl3cV3PtmSw0B2Y5Yjhy/NUe4ENQS5YAJs9hK9Ao/ai+fRxaAp5Jq1Dt5eyW5
PhSpkE6SbpJ7bwQ6DcZjd4LiLekkY86gsYwjHdt5uE93uH/SSV20YKB4u9bXVv8j
wfpGzZorDYfftZjrfv2vbp0D3tOX5xkJIBPOLrWJ8Eetsj3xXneL3dNu4qg8zWoi
oWOSjC7KCg2qLBWY3icI5e6l4OVUMCYvMqvD3uCCMirdOcs8dZWPnjc0NIAUJ6rG
idOPejUZO4vBVgZ2swwSBRD0WmL/1e/g+Nqq3CsUc60xyNoZ/lRRMg87fxMhDVxP
M+cHkjb9AQTU5ky63LR1wPYfPFpKNECHO4xEYN4RjRhBCuTp1hn1e49TPNg9fE/0
sIaTacHx4M2P383vMzGo4ZPPvRMTZlXvRGMGChF6eOdcb9D5nb+Q5fTRVDG4De3t
wOJjXBMB/6gRxX1C4ZRjamOZD4LvSfeTkuZy1+2I1quyJYw3jQgioICbFPukok9D
vv/U6X55
-----END CERTIFICATE-----
