Certificate:
    Data:
        Version: 3 (0x2)
        Serial Number: 4 (0x4)
    Signature Algorithm: sha1WithRSAEncryption
        Issuer: CN=hx509 Test Root CA, C=SE
        Validity
            Not Before: Mar 22 22:25:04 2019 GMT
            Not After : Nov 21 22:25:04 2518 GMT
        Subject: C=SE, CN=Test cert KeyEncipherment
        Subject Public Key Info:
            Public Key Algorithm: rsaEncryption
                Public-Key: (4096 bit)
                Modulus:
                    00:bf:5f:55:ca:c5:c6:c5:00:a6:40:17:fc:1f:a2:
                    c7:e7:41:1b:29:37:6e:ba:7c:01:19:f3:4a:d7:c4:
                    9a:83:17:4d:40:cd:30:d1:9f:fd:94:49:41:5c:7a:
                    2d:32:83:81:29:15:e3:b2:1f:06:1b:f5:f3:7f:91:
                    cf:dc:82:b1:4e:d5:a9:48:da:63:49:b8:b8:41:0d:
                    cf:eb:76:df:1a:33:5a:7b:2f:ed:13:5d:ce:77:85:
                    bc:1f:52:b4:ff:96:20:48:09:19:d7:0d:55:ed:a8:
                    9f:de:bd:26:2a:cf:2c:f4:48:d3:eb:94:f1:b4:ca:
                    5b:6d:1b:21:82:46:98:23:84:d7:be:08:90:54:f4:
                    46:ef:59:6e:8b:8c:7f:65:90:5a:c3:fb:c4:1d:97:
                    9e:1a:be:82:96:d7:86:5b:d7:1a:0e:04:1f:30:71:
                    99:70:40:28:6c:b2:16:3c:19:f1:f3:9f:54:22:9c:
                    e0:e5:2b:c9:30:a1:01:cf:7e:1f:a2:40:d7:d3:ad:
                    23:6d:fe:55:dc:ad:87:88:ee:e8:9b:81:e8:72:8d:
                    2a:25:58:ff:81:18:f0:24:9a:13:31:f9:30:7c:ed:
                    f1:d5:4b:13:ce:bf:83:48:47:9c:44:99:0d:52:e7:
                    52:4f:02:91:10:fe:77:39:f3:fc:ce:04:bf:57:4e:
                    3b:17:a3:c2:94:85:10:d6:76:a2:c0:04:45:d1:ff:
                    96:a7:c0:a8:39:bb:7a:4c:f4:96:4c:5f:2d:63:85:
                    52:6e:74:5d:70:7a:de:35:7c:92:9f:ed:e6:85:c8:
                    f0:1d:b7:be:29:54:78:5e:7c:4a:a2:b8:85:ee:b7:
                    20:2d:0c:78:a6:32:be:c0:a2:89:4f:f4:c8:e0:3c:
                    3a:4c:b3:68:a1:a7:eb:b5:c7:21:74:b9:3d:0e:07:
                    3f:ce:35:29:b5:33:1f:ac:d8:36:dd:d1:54:3d:47:
                    c9:29:c6:26:23:e8:51:8d:25:9a:8c:96:84:74:e9:
                    f0:10:d8:96:f5:ad:22:31:8f:e9:6a:a5:9b:3b:00:
                    93:5e:80:22:f1:3a:e5:2d:10:7b:c6:a8:b9:6b:8f:
                    ab:33:64:99:fe:aa:77:7a:0f:96:f9:3f:fe:15:6d:
                    8e:4a:95:a7:35:9b:f4:20:cb:a2:a1:d9:f6:62:6b:
                    a7:4e:b4:22:3d:22:73:f4:7e:0d:af:62:41:7a:d2:
                    15:ab:b9:a2:25:a8:87:e0:b5:1b:be:c0:16:d1:e4:
                    40:5b:56:a7:ab:39:d1:85:02:f5:4f:95:3f:37:dc:
                    97:e4:89:c8:20:ab:11:9f:d8:f1:77:d6:b0:60:4f:
                    ab:f9:88:37:ef:9f:bc:2a:f3:22:3d:2e:21:82:63:
                    c6:21:73
                Exponent: 65537 (0x10001)
        X509v3 extensions:
            X509v3 Basic Constraints: 
                CA:FALSE
            X509v3 Key Usage: 
                Non Repudiation, Key Encipherment
            X509v3 Subject Key Identifier: 
                FF:78:58:BD:A5:C2:4D:D1:07:04:05:DD:15:6A:A2:2C:92:EB:54:04
    Signature Algorithm: sha1WithRSAEncryption
         0d:b6:af:48:3b:0f:01:49:0b:12:d7:bc:9f:35:09:2a:42:e4:
         d2:86:d2:c5:53:65:1b:a4:d5:52:87:28:dc:01:70:97:f3:0b:
         87:35:67:bb:b7:dd:f9:80:09:d3:84:33:11:2a:fe:0b:85:75:
         4b:d1:84:0c:46:35:d3:69:b8:fe:fc:a3:5a:c7:10:8c:2b:36:
         c8:f0:ab:e7:f8:98:6c:b5:ec:1e:26:69:31:9b:07:29:03:ee:
         21:34:5c:52:1a:58:4a:c5:10:43:6b:8e:fc:9d:94:12:67:d0:
         12:40:55:14:f0:8f:d5:a7:a9:c7:d4:65:99:53:0d:3f:9a:23:
         ab:13:ed:25:eb:33:56:b8:b3:ed:f5:6d:6b:a4:26:6c:80:6d:
         4c:27:8e:e5:5f:4d:e8:83:0b:c8:ca:17:6c:de:b9:af:ff:2f:
         cb:9c:25:24:5f:09:e4:d9:62:a8:6e:de:da:c9:9e:1f:be:bf:
         19:1a:df:01:e2:dc:8c:ef:64:40:8e:b3:2a:0d:29:a9:7f:e7:
         fa:bb:4b:76:41:c4:82:e7:07:d0:21:d5:1a:88:64:27:58:1a:
         8f:9e:48:e8:cb:40:d2:f0:ff:68:06:10:1b:5a:c3:1b:9f:48:
         52:b6:a0:8a:4c:0e:be:f3:e4:ed:a1:7a:9c:52:91:38:15:fc:
         92:ff:82:55:10:bd:d7:a2:1c:bb:e4:8c:56:d5:f6:c7:77:12:
         2f:cb:61:c6:75:a2:71:9c:4e:96:b3:0f:b6:d7:85:cb:52:0f:
         96:87:4a:05:15:ba:f7:31:b0:76:54:07:b8:59:38:5e:7a:03:
         a4:87:60:e9:12:4d:aa:3a:98:d6:b9:46:a1:73:40:87:27:cf:
         aa:87:66:e8:32:37:74:0c:93:ff:a9:ef:52:3b:a2:36:1e:16:
         1c:07:45:e9:65:9f:9e:de:ff:7b:b1:c4:a8:7e:59:25:79:1f:
         da:7f:35:85:36:ea:cf:79:ff:71:96:77:28:3a:e6:af:68:f5:
         4c:c3:1a:20:7b:09:8d:66:15:b0:92:0a:4b:39:e4:f1:06:9e:
         9e:4e:f1:ca:bf:81:77:e7:00:82:79:26:0f:d1:f9:a2:4d:9a:
         c8:7a:da:f6:d0:1e:65:04:02:2b:14:0b:84:45:eb:5d:6c:68:
         04:d7:a6:98:85:8c:fb:7e:de:42:63:68:5d:cd:a1:3d:4b:85:
         5e:e5:c3:38:a6:79:f4:02:5c:d0:ea:53:c6:91:84:08:b2:eb:
         2f:02:bb:5d:3b:bc:f2:e7:8d:67:44:70:0f:96:63:25:25:1a:
         38:1a:cc:a6:72:2d:41:23:8c:cc:95:12:4b:4f:64:91:21:79:
         96:46:70:8d:68:dc:dc:d5
-----BEGIN CERTIFICATE-----
MIIFETCCAvmgAwIBAgIBBDANBgkqhkiG9w0BAQUFADAqMRswGQYDVQQDDBJoeDUw
OSBUZXN0IFJvb3QgQ0ExCzAJBgNVBAYTAlNFMCAXDTE5MDMyMjIyMjUwNFoYDzI1
MTgxMTIxMjIyNTA0WjAxMQswCQYDVQQGEwJTRTEiMCAGA1UEAwwZVGVzdCBjZXJ0
IEtleUVuY2lwaGVybWVudDCCAiIwDQYJKoZIhvcNAQEBBQADggIPADCCAgoCggIB
AL9fVcrFxsUApkAX/B+ix+dBGyk3brp8ARnzStfEmoMXTUDNMNGf/ZRJQVx6LTKD
gSkV47IfBhv183+Rz9yCsU7VqUjaY0m4uEENz+t23xozWnsv7RNdzneFvB9StP+W
IEgJGdcNVe2on969JirPLPRI0+uU8bTKW20bIYJGmCOE174IkFT0Ru9ZbouMf2WQ
WsP7xB2Xnhq+gpbXhlvXGg4EHzBxmXBAKGyyFjwZ8fOfVCKc4OUryTChAc9+H6JA
19OtI23+Vdyth4ju6JuB6HKNKiVY/4EY8CSaEzH5MHzt8dVLE86/g0hHnESZDVLn
Uk8CkRD+dznz/M4Ev1dOOxejwpSFENZ2osAERdH/lqfAqDm7ekz0lkxfLWOFUm50
XXB63jV8kp/t5oXI8B23vilUeF58SqK4he63IC0MeKYyvsCiiU/0yOA8OkyzaKGn
67XHIXS5PQ4HP841KbUzH6zYNt3RVD1HySnGJiPoUY0lmoyWhHTp8BDYlvWtIjGP
6WqlmzsAk16AIvE65S0Qe8aouWuPqzNkmf6qd3oPlvk//hVtjkqVpzWb9CDLoqHZ
9mJrp060Ij0ic/R+Da9iQXrSFau5oiWoh+C1G77AFtHkQFtWp6s50YUC9U+VPzfc
l+SJyCCrEZ/Y8XfWsGBPq/mIN++fvCrzIj0uIYJjxiFzAgMBAAGjOTA3MAkGA1Ud
EwQCMAAwCwYDVR0PBAQDAgVgMB0GA1UdDgQWBBT/eFi9pcJN0QcEBd0VaqIskutU
BDANBgkqhkiG9w0BAQUFAAOCAgEADbavSDsPAUkLEte8nzUJKkLk0obSxVNlG6TV
Uoco3AFwl/MLhzVnu7fd+YAJ04QzESr+C4V1S9GEDEY102m4/vyjWscQjCs2yPCr
5/iYbLXsHiZpMZsHKQPuITRcUhpYSsUQQ2uO/J2UEmfQEkBVFPCP1aepx9RlmVMN
P5ojqxPtJeszVriz7fVta6QmbIBtTCeO5V9N6IMLyMoXbN65r/8vy5wlJF8J5Nli
qG7e2smeH76/GRrfAeLcjO9kQI6zKg0pqX/n+rtLdkHEgucH0CHVGohkJ1gaj55I
6MtA0vD/aAYQG1rDG59IUragikwOvvPk7aF6nFKROBX8kv+CVRC916Icu+SMVtX2
x3cSL8thxnWicZxOlrMPtteFy1IPlodKBRW69zGwdlQHuFk4XnoDpIdg6RJNqjqY
1rlGoXNAhyfPqodm6DI3dAyT/6nvUjuiNh4WHAdF6WWfnt7/e7HEqH5ZJXkf2n81
hTbqz3n/cZZ3KDrmr2j1TMMaIHsJjWYVsJIKSznk8Qaenk7xyr+Bd+cAgnkmD9H5
ok2ayHra9tAeZQQCKxQLhEXrXWxoBNemmIWM+37eQmNoXc2hPUuFXuXDOKZ59AJc
0OpTxpGECLLrLwK7XTu88ueNZ0RwD5ZjJSUaOBrMpnItQSOMzJUSS09kkSF5lkZw
jWjc3NU=
-----END CERTIFICATE-----
