Certificate:
    Data:
        Version: 3 (0x2)
        Serial Number: 6 (0x6)
        Signature Algorithm: sha1WithRSAEncryption
        Issuer: CN=hx509 Test Root CA, C=SE
        Validity
            Not Before: Apr 13 20:42:53 2009 GMT
            Not After : Apr 11 20:42:53 2019 GMT
        Subject: C=SE, CN=www.test.h5l.se
        Subject Public Key Info:
            Public Key Algorithm: rsaEncryption
                Public-Key: (1024 bit)
                Modulus:
                    00:f8:f3:dc:92:08:27:32:98:a4:26:fa:a1:11:1b:
                    a3:0e:98:d8:d4:8f:c8:b5:dd:ee:49:7a:72:49:1e:
                    31:94:af:4e:e8:a2:ee:11:20:ca:8e:c6:dd:d2:0c:
                    c2:60:86:72:c4:b4:0a:fc:74:c9:80:3e:bf:c9:b7:
                    1f:bf:ee:9d:bd:5b:7d:d5:2a:74:fe:64:5a:3f:65:
                    17:9f:3a:37:21:b5:1b:4b:79:c9:8b:7b:17:c2:74:
                    a3:10:31:ab:73:3b:b3:76:95:dd:9f:c3:98:3d:e4:
                    ff:0b:f9:7a:2d:3f:d5:36:f0:fd:0f:61:09:a7:39:
                    0a:ad:34:5b:95:b5:63:20:ad
                Exponent: 65537 (0x10001)
        X509v3 extensions:
            X509v3 Basic Constraints: 
                CA:FALSE
            X509v3 Key Usage: 
                Digital Signature, Non Repudiation, Key Encipherment
            X509v3 Subject Key Identifier: 
                CE:01:38:D2:45:70:15:88:5F:CD:D8:41:12:DE:99:9B:1F:B0:51:F0
    Signature Algorithm: sha1WithRSAEncryption
        81:ce:82:e2:ef:28:3c:4d:dc:48:56:e7:c6:27:12:ba:bf:dd:
        49:cd:2b:29:04:e2:8c:d0:9a:f7:9e:28:77:1d:27:4b:a7:b9:
        f5:23:53:89:f3:06:df:33:4d:46:d8:d0:2b:3c:b9:b2:c8:34:
        11:4c:88:8d:75:e3:fd:f9:dd:85:20:c0:b1:78:f2:a0:e5:bd:
        23:55:77:98:ac:85:ca:ce:e2:2f:88:66:a9:26:b6:1c:ad:45:
        f9:28:01:05:9c:68:ea:48:42:af:d7:f3:b4:1e:f7:47:41:d6:
        96:19:98:79:64:1c:2f:21:6f:1b:8b:3e:21:7d:bd:54:39:43:
        5e:b8
-----BEGIN CERTIFICATE-----
MIICADCCAWmgAwIBAgIBBjANBgkqhkiG9w0BAQUFADAqMRswGQYDVQQDDBJoeDUw
OSBUZXN0IFJvb3QgQ0ExCzAJBgNVBAYTAlNFMB4XDTA5MDQxMzIwNDI1M1oXDTE5
MDQxMTIwNDI1M1owJzELMAkGA1UEBhMCU0UxGDAWBgNVBAMMD3d3dy50ZXN0Lmg1
bC5zZTCBnzANBgkqhkiG9w0BAQEFAAOBjQAwgYkCgYEA+PPckggnMpikJvqhERuj
DpjY1I/Itd3uSXpySR4xlK9O6KLuESDKjsbd0gzCYIZyxLQK/HTJgD6/ybcfv+6d
vVt91Sp0/mRaP2UXnzo3IbUbS3nJi3sXwnSjEDGrczuzdpXdn8OYPeT/C/l6LT/V
NvD9D2EJpzkKrTRblbVjIK0CAwEAAaM5MDcwCQYDVR0TBAIwADALBgNVHQ8EBAMC
BeAwHQYDVR0OBBYEFM4BONJFcBWIX83YQRLemZsfsFHwMA0GCSqGSIb3DQEBBQUA
A4GBAIHOguLvKDxN3EhW58YnErq/3UnNKykE4ozQmveeKHcdJ0unufUjU4nzBt8z
TUbY0Cs8ubLINBFMiI114/353YUgwLF48qDlvSNVd5ishcrO4i+IZqkmthytRfko
AQWcaOpIQq/X87Qe90dB1pYZmHlkHC8hbxuLPiF9vVQ5Q164
-----END CERTIFICATE-----
