Certificate:
    Data:
        Version: 3 (0x2)
        Serial Number: 6 (0x6)
        Signature Algorithm: sha1WithRSAEncryption
        Issuer: CN=hx509 Test Root CA, C=SE
        Validity
            Not Before: Apr 13 21:53:35 2009 GMT
            Not After : Apr 11 21:53:35 2019 GMT
        Subject: C=SE, CN=www.test.h5l.se
        Subject Public Key Info:
            Public Key Algorithm: rsaEncryption
                Public-Key: (1024 bit)
                Modulus:
                    00:bf:be:ec:be:80:40:a4:7d:ec:1b:2d:a5:63:af:
                    86:ab:ad:44:02:b5:4e:0a:62:3d:25:ee:c6:9c:a5:
                    bf:b6:86:cc:3f:7c:0a:dc:2c:a5:9d:e4:90:86:d5:
                    30:5f:81:33:ea:b6:14:0c:b3:f1:b9:c2:7d:e0:d3:
                    b5:f5:24:3f:ff:ae:05:49:1f:82:c4:d0:87:57:0b:
                    2c:32:a5:bd:94:b9:70:4e:40:79:31:6b:d1:34:5e:
                    2c:6e:53:11:84:3c:9b:ab:93:77:91:06:e6:ff:49:
                    c4:da:ac:84:80:0f:cf:43:e3:ff:a2:5b:68:a0:9b:
                    39:89:5f:cb:0a:0d:e8:8a:01
                Exponent: 65537 (0x10001)
        X509v3 extensions:
            X509v3 Basic Constraints: 
                CA:FALSE
            X509v3 Key Usage: 
                Digital Signature, Non Repudiation, Key Encipherment
            X509v3 Subject Key Identifier: 
                1A:EF:75:FF:A0:65:49:25:8F:C9:C2:B5:76:2E:72:22:2D:C1:37:54
    Signature Algorithm: sha1WithRSAEncryption
        28:55:5e:d8:48:42:6a:d5:90:40:fe:de:69:ab:65:f0:bd:67:
        a3:24:bb:9b:81:99:40:78:e3:49:13:31:7b:26:d2:08:73:0a:
        af:b6:84:18:22:5b:2a:29:b3:32:e8:99:e3:99:67:9b:85:bc:
        83:92:e9:32:19:5b:78:03:6c:70:9c:18:f9:fb:f6:19:f4:b2:
        7b:3f:20:1c:c2:bf:9b:ae:e3:6c:1b:f7:f3:bf:30:17:dd:e7:
        d8:ef:cb:10:bf:4a:69:2e:c9:68:38:a5:42:c1:28:64:4c:d3:
        0a:23:32:fb:31:68:31:bb:db:fc:b7:01:73:77:e5:09:8a:f2:
        fd:70
-----BEGIN CERTIFICATE-----
MIICADCCAWmgAwIBAgIBBjANBgkqhkiG9w0BAQUFADAqMRswGQYDVQQDDBJoeDUw
OSBUZXN0IFJvb3QgQ0ExCzAJBgNVBAYTAlNFMB4XDTA5MDQxMzIxNTMzNVoXDTE5
MDQxMTIxNTMzNVowJzELMAkGA1UEBhMCU0UxGDAWBgNVBAMMD3d3dy50ZXN0Lmg1
bC5zZTCBnzANBgkqhkiG9w0BAQEFAAOBjQAwgYkCgYEAv77svoBApH3sGy2lY6+G
q61EArVOCmI9Je7GnKW/tobMP3wK3CylneSQhtUwX4Ez6rYUDLPxucJ94NO19SQ/
/64FSR+CxNCHVwssMqW9lLlwTkB5MWvRNF4sblMRhDybq5N3kQbm/0nE2qyEgA/P
Q+P/oltooJs5iV/LCg3oigECAwEAAaM5MDcwCQYDVR0TBAIwADALBgNVHQ8EBAMC
BeAwHQYDVR0OBBYEFBrvdf+gZUklj8nCtXYuciItwTdUMA0GCSqGSIb3DQEBBQUA
A4GBAChVXthIQmrVkED+3mmrZfC9Z6Mku5uBmUB440kTMXsm0ghzCq+2hBgiWyop
szLomeOZZ5uFvIOS6TIZW3gDbHCcGPn79hn0sns/IBzCv5uu42wb9/O/MBfd59jv
yxC/SmkuyWg4pULBKGRM0wojMvsxaDG72/y3AXN35QmK8v1w
-----END CERTIFICATE-----
