Certificate:
    Data:
        Version: 3 (0x2)
        Serial Number: 9 (0x9)
        Signature Algorithm: sha1WithRSAEncryption
        Issuer: CN=hx509 Test Root CA, C=SE
        Validity
            Not Before: Feb  7 10:55:20 2009 GMT
            Not After : Feb  5 10:55:20 2019 GMT
        Subject: C=SE, CN=www.test.h5l.se
        Subject Public Key Info:
            Public Key Algorithm: rsaEncryption
            RSA Public Key: (1024 bit)
                Modulus (1024 bit):
                    00:b9:f5:b9:04:da:66:09:b6:14:24:83:8b:0d:8a:
                    2f:9d:b4:5e:69:ed:38:1f:7a:86:0f:c6:9c:e8:6e:
                    4c:7d:98:70:ee:5e:e8:be:d2:97:5e:ee:c7:ee:5b:
                    9f:9d:8c:51:9b:00:51:eb:55:e4:2d:0c:84:d4:85:
                    c6:c3:00:e0:01:bd:58:3e:fa:56:4a:98:da:50:93:
                    d4:42:8a:6c:d2:f9:56:f8:8c:00:24:ea:45:b5:05:
                    e0:79:d6:a3:66:6c:97:18:2f:e1:96:9f:47:f0:ac:
                    60:96:e6:0d:4f:dd:f9:e2:1e:3b:52:fd:70:61:1c:
                    38:f1:03:af:6f:f4:3e:37:bd
                Exponent: 65537 (0x10001)
        X509v3 extensions:
            X509v3 Basic Constraints: 
                CA:FALSE
            X509v3 Key Usage: 
                Digital Signature, Non Repudiation, Key Encipherment
            X509v3 Subject Key Identifier: 
                ED:7A:A3:C5:26:4F:F6:B9:50:EC:8B:DC:D4:26:A0:65:17:52:4A:F1
    Signature Algorithm: sha1WithRSAEncryption
        0a:0c:88:bd:bb:50:36:2a:f4:95:92:14:57:82:8a:1a:dd:6f:
        f6:38:ec:34:ca:37:bb:11:76:ec:88:ea:18:2b:8c:0c:c2:d9:
        fd:7b:c0:f0:2b:fb:11:50:62:9e:18:88:0a:35:ee:f2:22:99:
        d5:27:4d:4d:41:38:93:fe:d2:cf:fc:e2:e4:f4:72:ce:40:d8:
        1e:8b:b7:dc:05:80:3f:10:8f:95:ac:18:d2:f0:18:29:87:2b:
        e5:90:75:ce:e4:13:72:67:51:49:ee:33:66:84:8f:d7:ab:8e:
        72:6c:93:49:99:21:35:e3:14:88:82:af:2d:2b:1e:f2:b7:37:
        1c:8e
-----BEGIN CERTIFICATE-----
MIICADCCAWmgAwIBAgIBCTANBgkqhkiG9w0BAQUFADAqMRswGQYDVQQDDBJoeDUw
OSBUZXN0IFJvb3QgQ0ExCzAJBgNVBAYTAlNFMB4XDTA5MDIwNzEwNTUyMFoXDTE5
MDIwNTEwNTUyMFowJzELMAkGA1UEBhMCU0UxGDAWBgNVBAMMD3d3dy50ZXN0Lmg1
bC5zZTCBnzANBgkqhkiG9w0BAQEFAAOBjQAwgYkCgYEAufW5BNpmCbYUJIOLDYov
nbReae04H3qGD8ac6G5MfZhw7l7ovtKXXu7H7lufnYxRmwBR61XkLQyE1IXGwwDg
Ab1YPvpWSpjaUJPUQops0vlW+IwAJOpFtQXgedajZmyXGC/hlp9H8KxgluYNT935
4h47Uv1wYRw48QOvb/Q+N70CAwEAAaM5MDcwCQYDVR0TBAIwADALBgNVHQ8EBAMC
BeAwHQYDVR0OBBYEFO16o8UmT/a5UOyL3NQmoGUXUkrxMA0GCSqGSIb3DQEBBQUA
A4GBAAoMiL27UDYq9JWSFFeCihrdb/Y47DTKN7sRduyI6hgrjAzC2f17wPAr+xFQ
Yp4YiAo17vIimdUnTU1BOJP+0s/84uT0cs5A2B6Lt9wFgD8Qj5WsGNLwGCmHK+WQ
dc7kE3JnUUnuM2aEj9erjnJsk0mZITXjFIiCry0rHvK3NxyO
-----END CERTIFICATE-----
