Certificate:
    Data:
        Version: 3 (0x2)
        Serial Number: 7 (0x7)
        Signature Algorithm: sha1WithRSAEncryption
        Issuer: CN=hx509 Test Root CA, C=SE
        Validity
            Not Before: Jul 19 13:43:33 2007 GMT
            Not After : Jul 16 13:43:33 2017 GMT
        Subject: C=SE, CN=kdc
        Subject Public Key Info:
            Public Key Algorithm: rsaEncryption
            RSA Public Key: (1024 bit)
                Modulus (1024 bit):
                    00:ea:d0:0b:bb:2b:18:51:7e:ae:4e:73:85:f8:5a:
                    77:ce:e7:e1:97:5a:b5:17:b6:fe:ad:31:b6:4d:de:
                    d6:ab:52:42:1a:32:92:65:5e:db:6e:ca:9a:59:19:
                    1c:60:76:2d:44:67:2c:58:ef:23:ee:b8:df:20:2d:
                    30:8a:58:dd:fe:08:4d:0d:9a:36:6c:76:d1:a2:27:
                    7c:9d:60:e6:3e:eb:9c:88:fd:ce:c6:56:5f:e2:b5:
                    a6:41:42:c9:03:31:ce:45:77:5c:bc:7c:36:ba:8f:
                    46:3b:1f:05:de:dd:94:62:a1:97:a0:cd:de:b7:f9:
                    7e:a1:ed:d7:3b:54:c3:39:89
                Exponent: 65537 (0x10001)
        X509v3 extensions:
            X509v3 Basic Constraints: 
                CA:FALSE
            X509v3 Key Usage: 
                Digital Signature, Non Repudiation, Key Encipherment
            X509v3 Extended Key Usage: 
                pkkdcekuoid
            X509v3 Subject Key Identifier: 
                C4:07:C0:88:04:35:E4:8E:31:53:DF:12:E0:7C:4F:D6:04:B2:6D:94
            X509v3 Subject Alternative Name: 
                othername:<unsupported>
    Signature Algorithm: sha1WithRSAEncryption
        99:70:c6:87:14:05:8e:ed:9a:97:38:fe:5f:96:00:94:9e:b5:
        1d:51:cb:9c:5e:59:8c:da:1f:d5:0f:e0:ec:a2:87:e9:d2:c5:
        d5:db:7e:6b:ec:86:0b:ed:6d:a7:69:db:ec:f3:f5:d2:40:c2:
        16:c3:f2:6f:ba:a2:02:a7:08:ec:a9:d0:0c:d6:d9:59:62:09:
        21:9a:8f:69:9b:18:1d:a7:09:08:1d:4a:5c:64:0a:2a:37:0a:
        27:2a:07:a5:80:a2:d9:7b:73:6f:96:91:0d:65:15:f4:98:88:
        f3:76:e0:11:b3:55:6e:47:1f:23:53:47:09:67:af:2e:8d:6e:
        06:d0
-----BEGIN CERTIFICATE-----
MIICVDCCAb2gAwIBAgIBBzANBgkqhkiG9w0BAQUFADAqMRswGQYDVQQDDBJoeDUw
OSBUZXN0IFJvb3QgQ0ExCzAJBgNVBAYTAlNFMB4XDTA3MDcxOTEzNDMzM1oXDTE3
MDcxNjEzNDMzM1owGzELMAkGA1UEBhMCU0UxDDAKBgNVBAMMA2tkYzCBnzANBgkq
hkiG9w0BAQEFAAOBjQAwgYkCgYEA6tALuysYUX6uTnOF+Fp3zufhl1q1F7b+rTG2
Td7Wq1JCGjKSZV7bbsqaWRkcYHYtRGcsWO8j7rjfIC0wiljd/ghNDZo2bHbRoid8
nWDmPuuciP3OxlZf4rWmQULJAzHORXdcvHw2uo9GOx8F3t2UYqGXoM3et/l+oe3X
O1TDOYkCAwEAAaOBmDCBlTAJBgNVHRMEAjAAMAsGA1UdDwQEAwIF4DASBgNVHSUE
CzAJBgcrBgEFAgMFMB0GA1UdDgQWBBTEB8CIBDXkjjFT3xLgfE/WBLJtlDBIBgNV
HREEQTA/oD0GBisGAQUCAqAzMDGgDRsLVEVTVC5INUwuU0WhIDAeoAMCAQGhFzAV
GwZrcmJ0Z3QbC1RFU1QuSDVMLlNFMA0GCSqGSIb3DQEBBQUAA4GBAJlwxocUBY7t
mpc4/l+WAJSetR1Ry5xeWYzaH9UP4Oyih+nSxdXbfmvshgvtbadp2+zz9dJAwhbD
8m+6ogKnCOyp0AzW2VliCSGaj2mbGB2nCQgdSlxkCio3CicqB6WAotl7c2+WkQ1l
FfSYiPN24BGzVW5HHyNTRwlnry6NbgbQ
-----END CERTIFICATE-----
