Certificate:
    Data:
        Version: 3 (0x2)
        Serial Number: 7 (0x7)
        Signature Algorithm: sha1WithRSAEncryption
        Issuer: CN=hx509 Test Root CA, C=SE
        Validity
            Not Before: Nov 13 05:47:14 2006 GMT
            Not After : Nov 10 05:47:14 2016 GMT
        Subject: C=SE, CN=kdc
        Subject Public Key Info:
            Public Key Algorithm: rsaEncryption
            RSA Public Key: (1024 bit)
                Modulus (1024 bit):
                    00:e8:9f:70:69:30:e9:98:59:31:32:7c:05:40:d3:
                    88:ac:65:f3:bf:53:87:ea:4d:db:48:75:63:4e:c6:
                    21:ac:9b:57:66:6a:e8:8d:68:85:4d:eb:06:20:6b:
                    0e:fd:6e:35:41:62:8e:fc:e2:4a:1c:9b:04:0f:20:
                    04:ae:c7:d2:3f:f8:d0:fc:e0:85:7d:c6:0c:ba:ca:
                    8d:ad:94:71:0c:8f:6a:9e:77:d4:7d:c5:a3:01:7e:
                    8c:22:1b:d4:b8:42:95:ed:6b:cf:f9:1c:08:77:a4:
                    b9:f6:26:52:9c:a9:75:0f:c4:c4:7c:b8:8c:43:aa:
                    ee:01:e6:5b:6a:2a:8a:7e:4d
                Exponent: 65537 (0x10001)
        X509v3 extensions:
            X509v3 Basic Constraints: 
                CA:FALSE
            X509v3 Key Usage: 
                Digital Signature, Non Repudiation, Key Encipherment
            X509v3 Extended Key Usage: 
                pkkdcekuoid
            X509v3 Subject Key Identifier: 
                86:B2:FD:B3:F2:CF:76:72:85:CB:95:F3:73:E9:D4:11:8C:2A:01:FA
            X509v3 Subject Alternative Name: 
                othername:<unsupported>
    Signature Algorithm: sha1WithRSAEncryption
        7c:63:85:fe:03:88:30:6a:26:df:84:db:38:a5:60:59:75:4d:
        0b:91:35:f6:a2:56:06:4a:18:18:27:44:16:f5:02:be:aa:ac:
        0e:5a:d2:1a:bc:f6:54:7f:f3:cf:e6:82:9f:bc:53:54:76:33:
        01:6f:d1:5c:bf:96:76:3a:f1:b8:01:76:1e:ea:aa:8f:07:42:
        41:dc:9c:0e:97:78:77:49:2f:31:9d:b5:b8:15:b0:82:db:1b:
        4a:2b:00:fc:91:7e:5f:0b:db:8c:f4:9e:d8:2b:b0:82:66:f8:
        a7:c5:7d:e0:60:9e:f2:6c:db:b2:1d:3f:78:6f:73:26:d6:fd:
        bb:05
-----BEGIN CERTIFICATE-----
MIICVTCCAb6gAwIBAgIBBzANBgkqhkiG9w0BAQUFADAqMRswGQYDVQQDDBJoeDUw
OSBUZXN0IFJvb3QgQ0ExCzAJBgNVBAYTAlNFMB4XDTA2MTExMzA1NDcxNFoXDTE2
MTExMDA1NDcxNFowGzELMAkGA1UEBhMCU0UxDDAKBgNVBAMMA2tkYzCBnzANBgkq
hkiG9w0BAQEFAAOBjQAwgYkCgYEA6J9waTDpmFkxMnwFQNOIrGXzv1OH6k3bSHVj
TsYhrJtXZmrojWiFTesGIGsO/W41QWKO/OJKHJsEDyAErsfSP/jQ/OCFfcYMusqN
rZRxDI9qnnfUfcWjAX6MIhvUuEKV7WvP+RwId6S59iZSnKl1D8TEfLiMQ6ruAeZb
aiqKfk0CAwEAAaOBmTCBljAJBgNVHRMEAjAAMAsGA1UdDwQEAwIF4DASBgNVHSUE
CzAJBgcrBgEFAgMFMB0GA1UdDgQWBBSGsv2z8s92coXLlfNz6dQRjCoB+jBJBgNV
HREEQjBAoD4GBisGAQUCAqA0MDKgDRsLRVhBTVBMRS5PUkehITAfoAMCAQGhGDAW
GwZrcmJ0Z3QbDFRFU1QuSDVMLk9SRzANBgkqhkiG9w0BAQUFAAOBgQB8Y4X+A4gw
aibfhNs4pWBZdU0LkTX2olYGShgYJ0QW9QK+qqwOWtIavPZUf/PP5oKfvFNUdjMB
b9Fcv5Z2OvG4AXYe6qqPB0JB3JwOl3h3SS8xnbW4FbCC2xtKKwD8kX5fC9uM9J7Y
K7CCZvinxX3gYJ7ybNuyHT94b3Mm1v27BQ==
-----END CERTIFICATE-----
