Certificate:
    Data:
        Version: 3 (0x2)
        Serial Number: 7 (0x7)
        Signature Algorithm: sha1WithRSAEncryption
        Issuer: CN=hx509 Test Root CA, C=SE
        Validity
            Not Before: Nov 23 17:37:08 2006 GMT
            Not After : Nov 20 17:37:08 2016 GMT
        Subject: C=SE, CN=kdc
        Subject Public Key Info:
            Public Key Algorithm: rsaEncryption
            RSA Public Key: (1024 bit)
                Modulus (1024 bit):
                    00:bf:2c:78:00:23:95:74:4e:27:f3:e0:a8:09:67:
                    4c:ee:e0:2d:9c:fa:62:5c:24:b4:86:b2:a1:72:85:
                    c7:47:c5:59:98:aa:4a:f0:a7:1e:ef:b8:26:1b:fe:
                    b3:d4:01:3a:3a:a0:68:65:c3:5a:06:3e:2c:cf:47:
                    f5:e9:e0:47:5d:df:2b:05:b2:7f:93:5a:87:4b:58:
                    ed:57:7b:26:4a:ab:36:2d:ba:d3:82:b5:fa:87:67:
                    92:76:da:96:1a:14:ff:21:8c:2d:0f:bc:c8:dd:83:
                    0c:79:61:94:37:6f:19:6e:ee:76:f0:5f:fa:e1:5d:
                    c0:60:96:31:19:9e:5e:69:9b
                Exponent: 65537 (0x10001)
        X509v3 extensions:
            X509v3 Basic Constraints: 
                CA:FALSE
            X509v3 Key Usage: 
                Digital Signature, Non Repudiation, Key Encipherment
            X509v3 Extended Key Usage: 
                pkkdcekuoid
            X509v3 Subject Key Identifier: 
                ED:98:27:06:96:15:43:71:B0:DE:A7:24:C1:B0:B6:4C:3F:CA:4E:CC
            X509v3 Subject Alternative Name: 
                othername:<unsupported>
    Signature Algorithm: sha1WithRSAEncryption
        1c:1f:b8:20:d0:b4:1c:ba:09:86:c1:c8:a2:80:a4:85:10:56:
        d7:3e:ab:6b:c6:3a:38:0e:bc:f5:42:54:2f:ed:d4:af:89:74:
        1a:31:83:dc:7c:bd:bd:55:41:fc:99:64:f5:2c:67:2e:44:12:
        92:45:cc:0e:d9:81:3d:d3:e1:22:67:0d:fa:2c:03:f5:e8:d6:
        56:05:af:be:23:16:8a:8b:e9:12:10:2b:cc:ea:f6:43:c5:67:
        7d:a2:96:ca:55:86:31:c5:29:fd:08:da:34:66:c7:89:db:cc:
        f0:4c:76:49:9e:9f:9b:20:6d:8a:6f:3c:1e:be:b8:23:de:e1:
        f5:ee
-----BEGIN CERTIFICATE-----
MIICVDCCAb2gAwIBAgIBBzANBgkqhkiG9w0BAQUFADAqMRswGQYDVQQDDBJoeDUw
OSBUZXN0IFJvb3QgQ0ExCzAJBgNVBAYTAlNFMB4XDTA2MTEyMzE3MzcwOFoXDTE2
MTEyMDE3MzcwOFowGzELMAkGA1UEBhMCU0UxDDAKBgNVBAMMA2tkYzCBnzANBgkq
hkiG9w0BAQEFAAOBjQAwgYkCgYEAvyx4ACOVdE4n8+CoCWdM7uAtnPpiXCS0hrKh
coXHR8VZmKpK8Kce77gmG/6z1AE6OqBoZcNaBj4sz0f16eBHXd8rBbJ/k1qHS1jt
V3smSqs2LbrTgrX6h2eSdtqWGhT/IYwtD7zI3YMMeWGUN28Zbu528F/64V3AYJYx
GZ5eaZsCAwEAAaOBmDCBlTAJBgNVHRMEAjAAMAsGA1UdDwQEAwIF4DASBgNVHSUE
CzAJBgcrBgEFAgMFMB0GA1UdDgQWBBTtmCcGlhVDcbDepyTBsLZMP8pOzDBIBgNV
HREEQTA/oD0GBisGAQUCAqAzMDGgDRsLVEVTVC5INUwuU0WhIDAeoAMCAQGhFzAV
GwZrcmJ0Z3QbC1RFU1QuSDVMLlNFMA0GCSqGSIb3DQEBBQUAA4GBABwfuCDQtBy6
CYbByKKApIUQVtc+q2vGOjgOvPVCVC/t1K+JdBoxg9x8vb1VQfyZZPUsZy5EEpJF
zA7ZgT3T4SJnDfosA/Xo1lYFr74jFoqL6RIQK8zq9kPFZ32ilspVhjHFKf0I2jRm
x4nbzPBMdkmen5sgbYpvPB6+uCPe4fXu
-----END CERTIFICATE-----
