Certificate:
    Data:
        Version: 3 (0x2)
        Serial Number: 7 (0x7)
        Signature Algorithm: sha1WithRSAEncryption
        Issuer: CN=hx509 Test Root CA, C=SE
        Validity
            Not Before: Nov 13 08:09:53 2006 GMT
            Not After : Nov 10 08:09:53 2016 GMT
        Subject: C=SE, CN=kdc
        Subject Public Key Info:
            Public Key Algorithm: rsaEncryption
            RSA Public Key: (1024 bit)
                Modulus (1024 bit):
                    00:cb:53:18:db:04:fc:b2:e5:30:64:1d:c6:ce:85:
                    e5:90:18:7c:86:00:42:72:10:d8:4d:7a:d4:1a:34:
                    44:a6:90:48:fd:cb:b4:a7:01:19:f9:bd:6c:f6:3e:
                    ba:db:62:de:c6:2f:8b:bd:63:07:a2:03:ea:25:32:
                    2d:2c:7a:37:c4:b1:b1:a3:eb:8c:50:93:a5:6e:1a:
                    75:56:f5:35:a3:7e:5a:2f:d0:94:70:b4:2f:7d:2f:
                    c4:9c:84:a2:f3:ac:31:b1:00:b7:06:0f:f4:c8:44:
                    f4:e8:d0:fe:eb:bb:47:fb:36:b4:12:d6:8a:e2:4c:
                    80:71:29:2c:82:be:0a:0a:ef
                Exponent: 65537 (0x10001)
        X509v3 extensions:
            X509v3 Basic Constraints: 
                CA:FALSE
            X509v3 Key Usage: 
                Digital Signature, Non Repudiation, Key Encipherment
            X509v3 Extended Key Usage: 
                pkkdcekuoid
            X509v3 Subject Key Identifier: 
                90:02:2D:70:01:5F:CA:E4:8D:6D:06:2B:43:51:7C:A2:EF:32:BC:CF
            X509v3 Subject Alternative Name: 
                othername:<unsupported>
    Signature Algorithm: sha1WithRSAEncryption
        6e:95:71:73:8f:c0:9e:b1:9d:7a:6c:b7:49:b8:4e:90:4f:49:
        5c:d2:06:99:13:0e:84:8d:3a:f1:11:ef:4c:24:8c:ef:1d:7d:
        4d:59:d1:fd:94:11:bd:3c:a7:d1:ca:ec:25:87:27:c8:28:2d:
        bf:08:de:41:f0:f8:20:ed:53:4b:df:c5:ba:c2:fe:b5:f8:e7:
        71:aa:41:0d:44:ba:41:60:84:13:cf:3e:58:fc:f1:22:d3:e9:
        1c:44:95:53:6e:e6:35:26:3f:58:22:fb:30:3a:2b:63:8d:9d:
        14:18:0c:4a:93:2c:8b:45:b2:64:5f:4b:13:89:1c:98:b2:01:
        b2:4e
-----BEGIN CERTIFICATE-----
MIICVDCCAb2gAwIBAgIBBzANBgkqhkiG9w0BAQUFADAqMRswGQYDVQQDDBJoeDUw
OSBUZXN0IFJvb3QgQ0ExCzAJBgNVBAYTAlNFMB4XDTA2MTExMzA4MDk1M1oXDTE2
MTExMDA4MDk1M1owGzELMAkGA1UEBhMCU0UxDDAKBgNVBAMMA2tkYzCBnzANBgkq
hkiG9w0BAQEFAAOBjQAwgYkCgYEAy1MY2wT8suUwZB3GzoXlkBh8hgBCchDYTXrU
GjREppBI/cu0pwEZ+b1s9j6622Lexi+LvWMHogPqJTItLHo3xLGxo+uMUJOlbhp1
VvU1o35aL9CUcLQvfS/EnISi86wxsQC3Bg/0yET06ND+67tH+za0EtaK4kyAcSks
gr4KCu8CAwEAAaOBmDCBlTAJBgNVHRMEAjAAMAsGA1UdDwQEAwIF4DASBgNVHSUE
CzAJBgcrBgEFAgMFMB0GA1UdDgQWBBSQAi1wAV/K5I1tBitDUXyi7zK8zzBIBgNV
HREEQTA/oD0GBisGAQUCAqAzMDGgDRsLVEVTVC5INUwuU0WhIDAeoAMCAQGhFzAV
GwZrcmJ0Z3QbC1RFU1QuSDVMLlNFMA0GCSqGSIb3DQEBBQUAA4GBAG6VcXOPwJ6x
nXpst0m4TpBPSVzSBpkTDoSNOvER70wkjO8dfU1Z0f2UEb08p9HK7CWHJ8goLb8I
3kHw+CDtU0vfxbrC/rX453GqQQ1EukFghBPPPlj88SLT6RxElVNu5jUmP1gi+zA6
K2ONnRQYDEqTLItFsmRfSxOJHJiyAbJO
-----END CERTIFICATE-----
