Certificate:
    Data:
        Version: 3 (0x2)
        Serial Number: 7 (0x7)
        Signature Algorithm: sha1WithRSAEncryption
        Issuer: CN=hx509 Test Root CA, C=SE
        Validity
            Not Before: Apr 29 14:47:05 2006 GMT
            Not After : Apr 26 14:47:05 2016 GMT
        Subject: C=SE, CN=kdc
        Subject Public Key Info:
            Public Key Algorithm: rsaEncryption
            RSA Public Key: (1024 bit)
                Modulus (1024 bit):
                    00:ae:34:d7:af:68:72:14:52:71:31:90:5e:0f:67:
                    ff:db:08:2b:fa:9a:6f:d1:a4:38:3f:aa:0c:85:80:
                    0a:9d:b6:4f:79:57:c1:fc:90:54:6e:c8:9f:e6:bc:
                    a7:fd:9d:d0:a9:d1:9d:4b:96:82:2d:27:54:76:76:
                    9f:e3:dc:b1:82:0c:e4:8f:a6:4f:ee:1d:97:18:c1:
                    a4:39:e9:be:88:88:f7:de:ef:5c:b0:59:d2:59:e2:
                    d4:25:f4:18:ef:09:7c:d6:b6:06:c2:99:00:53:1e:
                    9b:29:59:28:91:59:33:0d:5a:9f:fa:1d:8d:c9:a0:
                    ee:b2:a5:c8:db:e5:1a:e8:5b
                Exponent: 65537 (0x10001)
        X509v3 extensions:
            X509v3 Basic Constraints: 
                CA:FALSE
            X509v3 Key Usage: 
                Digital Signature, Non Repudiation, Key Encipherment
            X509v3 Extended Key Usage: 
                pkkdcekuoid
            X509v3 Subject Key Identifier: 
                05:E2:F4:3B:FC:65:E9:DF:9A:58:29:28:05:8D:E8:7E:7E:32:B6:33
            X509v3 Subject Alternative Name: 
                othername:<unsupported>
    Signature Algorithm: sha1WithRSAEncryption
        3a:61:2b:af:dc:94:e1:8c:7a:84:a6:26:1e:59:16:18:43:09:
        57:4d:ff:5e:66:ba:7b:b2:19:22:1e:e4:4b:85:c5:b3:18:0c:
        8b:7a:95:42:cc:ba:7b:3d:e1:5f:e8:13:85:a3:a5:ad:bf:ab:
        18:a2:86:be:14:c5:23:28:69:82:0a:a6:f2:23:6b:ac:40:f7:
        2c:c1:82:76:82:e5:bc:8d:ae:ed:7d:d7:be:95:09:31:17:11:
        30:39:91:06:7e:02:ba:f8:fc:1e:89:ba:d8:ee:ed:58:c3:3d:
        4f:42:f6:62:a4:36:18:70:5a:1c:8a:7d:45:08:93:b9:44:12:
        ac:d4
-----BEGIN CERTIFICATE-----
MIICVDCCAb2gAwIBAgIBBzANBgkqhkiG9w0BAQUFADAqMRswGQYDVQQDDBJoeDUw
OSBUZXN0IFJvb3QgQ0ExCzAJBgNVBAYTAlNFMB4XDTA2MDQyOTE0NDcwNVoXDTE2
MDQyNjE0NDcwNVowGzELMAkGA1UEBhMCU0UxDDAKBgNVBAMMA2tkYzCBnzANBgkq
hkiG9w0BAQEFAAOBjQAwgYkCgYEArjTXr2hyFFJxMZBeD2f/2wgr+ppv0aQ4P6oM
hYAKnbZPeVfB/JBUbsif5ryn/Z3QqdGdS5aCLSdUdnaf49yxggzkj6ZP7h2XGMGk
Oem+iIj33u9csFnSWeLUJfQY7wl81rYGwpkAUx6bKVkokVkzDVqf+h2NyaDusqXI
2+Ua6FsCAwEAAaOBmDCBlTAJBgNVHRMEAjAAMAsGA1UdDwQEAwIF4DASBgNVHSUE
CzAJBgcrBgEFAgMFMB0GA1UdDgQWBBQF4vQ7/GXp35pYKSgFjeh+fjK2MzBIBgNV
HREEQTA/oD0GBisGAQUCAqAzMDGgDRsLRVhBTVBMRS5PUkehIDAeoAMCAQGhFzAV
GwZrcmJ0Z3QbC0VYQU1QTEUuT1JHMA0GCSqGSIb3DQEBBQUAA4GBADphK6/clOGM
eoSmJh5ZFhhDCVdN/15munuyGSIe5EuFxbMYDIt6lULMuns94V/oE4Wjpa2/qxii
hr4UxSMoaYIKpvIja6xA9yzBgnaC5byNru19176VCTEXETA5kQZ+Arr4/B6Jutju
7VjDPU9C9mKkNhhwWhyKfUUIk7lEEqzU
-----END CERTIFICATE-----
