Certificate:
    Data:
        Version: 3 (0x2)
        Serial Number: 8 (0x8)
        Signature Algorithm: sha1WithRSAEncryption
        Issuer: CN=hx509 Test Root CA, C=SE
        Validity
            Not Before: Feb  7 10:55:20 2009 GMT
            Not After : Feb  5 10:55:20 2019 GMT
        Subject: C=SE, CN=kdc
        Subject Public Key Info:
            Public Key Algorithm: rsaEncryption
            RSA Public Key: (1024 bit)
                Modulus (1024 bit):
                    00:c8:11:f4:c9:95:33:a3:c1:ae:c2:43:69:b9:d9:
                    32:2a:57:2b:24:57:7c:fd:06:7c:0c:43:5e:33:fe:
                    e9:06:bc:b1:ab:7a:27:fc:f4:14:b7:e8:b8:b3:d2:
                    ce:e3:35:ab:59:0f:13:82:6b:3a:97:07:3f:6e:83:
                    7f:12:77:41:11:6b:ec:24:14:5e:25:0e:66:17:ec:
                    eb:f7:44:6a:b0:06:f0:e3:d3:3c:c3:dd:77:fd:14:
                    2a:04:5b:97:ce:b0:01:d9:fe:81:87:5a:f3:4d:a5:
                    6d:88:ab:a1:b8:e3:17:66:ec:97:c5:ca:6e:31:17:
                    38:0f:44:21:46:07:ce:02:97
                Exponent: 65537 (0x10001)
        X509v3 extensions:
            X509v3 Basic Constraints: 
                CA:FALSE
            X509v3 Key Usage: 
                Digital Signature, Non Repudiation, Key Encipherment
            X509v3 Extended Key Usage: 
                pkkdcekuoid
            X509v3 Subject Key Identifier: 
                3A:C0:9C:7A:1A:45:7B:7A:F1:89:AB:78:0C:E6:79:BD:5C:16:4E:CE
            X509v3 Subject Alternative Name: 
                othername:<unsupported>
    Signature Algorithm: sha1WithRSAEncryption
        84:8b:49:fd:64:27:b1:c6:a0:98:cb:96:fb:9c:51:d6:24:14:
        bf:09:43:d6:45:f4:b1:08:53:cd:49:3b:5f:73:c0:74:b4:bc:
        42:1f:de:53:8b:e4:dc:0c:be:ff:36:0c:6e:1f:92:d0:57:40:
        b0:90:6e:cd:b5:6f:81:77:79:4e:09:f1:51:c6:63:a7:b7:44:
        94:d5:f4:b3:df:d0:eb:12:58:ca:bd:45:1d:40:e9:48:0a:f7:
        b0:36:36:c8:95:8f:ce:81:5b:b2:d2:7c:78:8c:4f:0f:88:73:
        15:d8:b5:90:f0:5d:d7:b9:96:6b:46:0c:78:e8:41:72:61:2f:
        bf:be
-----BEGIN CERTIFICATE-----
MIICVDCCAb2gAwIBAgIBCDANBgkqhkiG9w0BAQUFADAqMRswGQYDVQQDDBJoeDUw
OSBUZXN0IFJvb3QgQ0ExCzAJBgNVBAYTAlNFMB4XDTA5MDIwNzEwNTUyMFoXDTE5
MDIwNTEwNTUyMFowGzELMAkGA1UEBhMCU0UxDDAKBgNVBAMMA2tkYzCBnzANBgkq
hkiG9w0BAQEFAAOBjQAwgYkCgYEAyBH0yZUzo8GuwkNpudkyKlcrJFd8/QZ8DENe
M/7pBryxq3on/PQUt+i4s9LO4zWrWQ8Tgms6lwc/boN/EndBEWvsJBReJQ5mF+zr
90RqsAbw49M8w913/RQqBFuXzrAB2f6Bh1rzTaVtiKuhuOMXZuyXxcpuMRc4D0Qh
RgfOApcCAwEAAaOBmDCBlTAJBgNVHRMEAjAAMAsGA1UdDwQEAwIF4DASBgNVHSUE
CzAJBgcrBgEFAgMFMB0GA1UdDgQWBBQ6wJx6GkV7evGJq3gM5nm9XBZOzjBIBgNV
HREEQTA/oD0GBisGAQUCAqAzMDGgDRsLVEVTVC5INUwuU0WhIDAeoAMCAQGhFzAV
GwZrcmJ0Z3QbC1RFU1QuSDVMLlNFMA0GCSqGSIb3DQEBBQUAA4GBAISLSf1kJ7HG
oJjLlvucUdYkFL8JQ9ZF9LEIU81JO19zwHS0vEIf3lOL5NwMvv82DG4fktBXQLCQ
bs21b4F3eU4J8VHGY6e3RJTV9LPf0OsSWMq9RR1A6UgK97A2NsiVj86BW7LSfHiM
Tw+IcxXYtZDwXde5lmtGDHjoQXJhL7++
-----END CERTIFICATE-----
