Certificate:
    Data:
        Version: 3 (0x2)
        Serial Number: 7 (0x7)
        Signature Algorithm: sha1WithRSAEncryption
        Issuer: CN=hx509 Test Root CA, C=SE
        Validity
            Not Before: Dec 31 01:30:01 2006 GMT
            Not After : Dec 28 01:30:01 2016 GMT
        Subject: C=SE, CN=kdc
        Subject Public Key Info:
            Public Key Algorithm: rsaEncryption
            RSA Public Key: (1024 bit)
                Modulus (1024 bit):
                    00:ce:3e:01:3a:f5:a8:74:fb:0d:39:c7:1f:ca:d3:
                    21:1c:33:6e:bb:d9:46:c2:21:67:49:ff:93:eb:67:
                    17:bb:a6:2b:e2:28:4d:04:b2:c0:41:15:98:2a:21:
                    c0:ee:3a:f0:78:45:80:38:75:6c:f3:33:38:1b:f7:
                    ad:75:c8:ad:c8:e0:35:90:fc:bc:77:f6:5e:56:69:
                    c1:04:19:16:72:2f:3f:ec:63:fe:a1:ad:25:e4:bf:
                    bb:af:3d:47:f7:89:07:30:cc:d5:25:c6:fe:77:d4:
                    24:af:f5:3d:91:ed:1d:bb:ee:4d:06:0f:38:3e:7c:
                    c4:08:41:f6:9e:02:1d:4e:91
                Exponent: 65537 (0x10001)
        X509v3 extensions:
            X509v3 Basic Constraints: 
                CA:FALSE
            X509v3 Key Usage: 
                Digital Signature, Non Repudiation, Key Encipherment
            X509v3 Extended Key Usage: 
                pkkdcekuoid
            X509v3 Subject Key Identifier: 
                12:F8:75:ED:A7:BF:50:3A:D2:7C:57:4F:74:C4:23:F4:07:B6:CC:9D
            X509v3 Subject Alternative Name: 
                othername:<unsupported>
    Signature Algorithm: sha1WithRSAEncryption
        16:91:ef:99:22:f0:7a:f2:af:25:24:97:8d:67:06:87:fe:6b:
        b4:fb:2b:70:c3:86:26:6f:7f:ce:63:dc:17:7c:87:be:b8:2a:
        44:ec:78:17:e3:9b:2b:bb:e1:c3:be:a9:dc:08:e7:ec:7f:cb:
        84:97:96:a4:ef:03:74:df:78:f5:e9:a9:4e:04:ae:49:f7:87:
        4f:4a:01:40:4c:91:57:f1:90:5b:7e:08:df:68:09:e4:c9:01:
        3e:79:fc:21:fc:ac:47:92:07:12:1e:75:f5:ee:fe:24:be:fe:
        52:de:ac:9d:d6:e3:fd:20:28:95:ac:02:2d:dc:89:fc:5c:28:
        75:95
-----BEGIN CERTIFICATE-----
MIICVDCCAb2gAwIBAgIBBzANBgkqhkiG9w0BAQUFADAqMRswGQYDVQQDDBJoeDUw
OSBUZXN0IFJvb3QgQ0ExCzAJBgNVBAYTAlNFMB4XDTA2MTIzMTAxMzAwMVoXDTE2
MTIyODAxMzAwMVowGzELMAkGA1UEBhMCU0UxDDAKBgNVBAMMA2tkYzCBnzANBgkq
hkiG9w0BAQEFAAOBjQAwgYkCgYEAzj4BOvWodPsNOccfytMhHDNuu9lGwiFnSf+T
62cXu6Yr4ihNBLLAQRWYKiHA7jrweEWAOHVs8zM4G/etdcityOA1kPy8d/ZeVmnB
BBkWci8/7GP+oa0l5L+7rz1H94kHMMzVJcb+d9Qkr/U9ke0du+5NBg84PnzECEH2
ngIdTpECAwEAAaOBmDCBlTAJBgNVHRMEAjAAMAsGA1UdDwQEAwIF4DASBgNVHSUE
CzAJBgcrBgEFAgMFMB0GA1UdDgQWBBQS+HXtp79QOtJ8V090xCP0B7bMnTBIBgNV
HREEQTA/oD0GBisGAQUCAqAzMDGgDRsLVEVTVC5INUwuU0WhIDAeoAMCAQGhFzAV
GwZrcmJ0Z3QbC1RFU1QuSDVMLlNFMA0GCSqGSIb3DQEBBQUAA4GBABaR75ki8Hry
ryUkl41nBof+a7T7K3DDhiZvf85j3Bd8h764KkTseBfjmyu74cO+qdwI5+x/y4SX
lqTvA3TfePXpqU4Erkn3h09KAUBMkVfxkFt+CN9oCeTJAT55/CH8rEeSBxIedfXu
/iS+/lLerJ3W4/0gKJWsAi3cifxcKHWV
-----END CERTIFICATE-----
