Certificate:
    Data:
        Version: 3 (0x2)
        Serial Number: 1 (0x1)
        Signature Algorithm: sha1WithRSAEncryption
        Issuer: CN=hx509 Test Root CA, C=SE
        Validity
            Not Before: Nov 23 17:37:06 2006 GMT
            Not After : Nov 20 17:37:06 2016 GMT
        Subject: C=SE, CN=OCSP responder
        Subject Public Key Info:
            Public Key Algorithm: rsaEncryption
            RSA Public Key: (1024 bit)
                Modulus (1024 bit):
                    00:b4:b3:21:6c:c2:15:17:29:a0:9c:86:05:7d:4a:
                    b2:e2:7c:b6:de:0a:b8:17:a3:cc:2a:73:04:74:51:
                    25:e6:02:a7:23:f1:ca:f8:a5:49:79:ce:ef:3c:2d:
                    19:1f:f2:fd:6c:e6:b1:ac:69:e2:9d:79:e0:58:ca:
                    87:fa:3b:88:bf:bb:1d:aa:1f:05:c0:1d:18:57:d3:
                    e6:00:4c:da:a1:65:42:37:ad:77:82:ae:b2:c6:bb:
                    8a:f5:27:9e:2e:b2:15:1d:fa:d5:49:ef:ea:fd:73:
                    4f:23:be:7d:65:2f:d6:d1:a5:af:54:d1:be:71:10:
                    ef:87:22:a0:fd:29:e0:37:8f
                Exponent: 65537 (0x10001)
        X509v3 extensions:
            X509v3 Basic Constraints: 
                CA:FALSE
            X509v3 Key Usage: 
                Digital Signature, Non Repudiation, Key Encipherment
            X509v3 Extended Key Usage: 
                OCSP No Check, OCSP Signing
            X509v3 Subject Key Identifier: 
                F2:21:7D:84:9F:EA:53:2D:C3:0D:B9:24:E9:DA:8D:C2:86:BC:F7:77
    Signature Algorithm: sha1WithRSAEncryption
        a7:5f:8c:bd:95:93:5a:bc:3c:41:4a:0f:c1:96:2d:d5:27:96:
        50:94:28:59:b7:db:58:b4:45:a5:67:5b:d4:ab:fe:44:f4:8e:
        0b:92:78:19:d7:28:ed:71:d6:26:d1:40:ef:a6:0f:10:6b:cf:
        38:4a:f8:82:3f:47:98:22:c8:e8:57:70:c3:51:9a:64:04:c1:
        0f:11:55:46:ee:53:6d:d4:57:f9:bf:7a:ea:58:15:17:97:c6:
        c8:25:39:4d:77:4d:27:55:95:47:b4:fa:5c:4a:0d:0b:5f:d3:
        f4:56:d7:4e:6e:ca:6d:2b:23:b6:ea:61:5e:81:bc:3b:61:4e:
        70:47
-----BEGIN CERTIFICATE-----
MIICHzCCAYigAwIBAgIBATANBgkqhkiG9w0BAQUFADAqMRswGQYDVQQDDBJoeDUw
OSBUZXN0IFJvb3QgQ0ExCzAJBgNVBAYTAlNFMB4XDTA2MTEyMzE3MzcwNloXDTE2
MTEyMDE3MzcwNlowJjELMAkGA1UEBhMCU0UxFzAVBgNVBAMMDk9DU1AgcmVzcG9u
ZGVyMIGfMA0GCSqGSIb3DQEBAQUAA4GNADCBiQKBgQC0syFswhUXKaCchgV9SrLi
fLbeCrgXo8wqcwR0USXmAqcj8cr4pUl5zu88LRkf8v1s5rGsaeKdeeBYyof6O4i/
ux2qHwXAHRhX0+YATNqhZUI3rXeCrrLGu4r1J54ushUd+tVJ7+r9c08jvn1lL9bR
pa9U0b5xEO+HIqD9KeA3jwIDAQABo1kwVzAJBgNVHRMEAjAAMAsGA1UdDwQEAwIF
4DAeBgNVHSUEFzAVBgkrBgEFBQcwAQUGCCsGAQUFBwMJMB0GA1UdDgQWBBTyIX2E
n+pTLcMNuSTp2o3Chrz3dzANBgkqhkiG9w0BAQUFAAOBgQCnX4y9lZNavDxBSg/B
li3VJ5ZQlChZt9tYtEWlZ1vUq/5E9I4LkngZ1yjtcdYm0UDvpg8Qa884SviCP0eY
IsjoV3DDUZpkBMEPEVVG7lNt1Ff5v3rqWBUXl8bIJTlNd00nVZVHtPpcSg0LX9P0
VtdObsptKyO26mFegbw7YU5wRw==
-----END CERTIFICATE-----
