Certificate:
    Data:
        Version: 3 (0x2)
        Serial Number: 1 (0x1)
        Signature Algorithm: sha1WithRSAEncryption
        Issuer: CN=hx509 Test Root CA, C=SE
        Validity
            Not Before: Dec  7 23:40:47 2006 GMT
            Not After : Dec  4 23:40:47 2016 GMT
        Subject: C=SE, CN=OCSP responder
        Subject Public Key Info:
            Public Key Algorithm: rsaEncryption
            RSA Public Key: (1024 bit)
                Modulus (1024 bit):
                    00:f6:6d:69:f7:a2:fe:88:27:f8:e3:11:d3:46:d1:
                    96:55:aa:f1:91:9e:73:ab:2d:60:f6:eb:ab:e5:5a:
                    e2:ca:18:03:6e:a4:02:ce:b8:fe:68:c6:70:ab:b2:
                    c4:57:2e:ad:72:e0:70:e0:fa:86:fe:58:75:5e:89:
                    ad:fa:12:b3:e2:65:6f:e8:f7:7f:38:32:d9:70:f3:
                    56:23:c2:4d:b4:59:46:22:96:ca:34:df:e6:ad:dc:
                    42:19:16:e7:eb:5e:7e:be:ac:4a:d4:51:d9:d6:1b:
                    8a:56:2f:c7:65:ff:29:80:5b:d9:9f:29:da:f6:b8:
                    3a:8b:52:7a:e7:f2:ca:ec:dd
                Exponent: 65537 (0x10001)
        X509v3 extensions:
            X509v3 Basic Constraints: 
                CA:FALSE
            X509v3 Key Usage: 
                Digital Signature, Non Repudiation, Key Encipherment
            X509v3 Extended Key Usage: 
                OCSP No Check, OCSP Signing
            X509v3 Subject Key Identifier: 
                B4:1E:8D:DD:22:10:36:F3:3F:38:B1:40:E9:47:E7:BD:49:9B:07:61
    Signature Algorithm: sha1WithRSAEncryption
        78:6e:f0:0d:d9:6a:50:e2:5b:c4:8b:b3:f1:df:36:8b:f9:0b:
        63:fd:19:a1:b8:c1:f5:b3:d3:04:39:32:62:1c:70:f1:eb:34:
        55:4b:44:17:3c:1b:81:65:16:07:eb:a3:da:ea:d3:5d:13:b1:
        9f:a0:55:93:29:b2:41:7b:8f:26:ab:ba:cb:b6:83:14:b3:45:
        e4:a8:ca:41:47:10:51:38:8e:07:4c:8c:0f:b0:22:16:44:de:
        0a:4a:b6:0e:71:a0:45:16:1f:bb:34:96:ac:eb:7e:07:b4:ef:
        12:59:13:42:75:36:90:f5:7e:a9:31:a8:54:b7:54:23:fd:c8:
        c6:e9
-----BEGIN CERTIFICATE-----
MIICHzCCAYigAwIBAgIBATANBgkqhkiG9w0BAQUFADAqMRswGQYDVQQDDBJoeDUw
OSBUZXN0IFJvb3QgQ0ExCzAJBgNVBAYTAlNFMB4XDTA2MTIwNzIzNDA0N1oXDTE2
MTIwNDIzNDA0N1owJjELMAkGA1UEBhMCU0UxFzAVBgNVBAMMDk9DU1AgcmVzcG9u
ZGVyMIGfMA0GCSqGSIb3DQEBAQUAA4GNADCBiQKBgQD2bWn3ov6IJ/jjEdNG0ZZV
qvGRnnOrLWD266vlWuLKGANupALOuP5oxnCrssRXLq1y4HDg+ob+WHVeia36ErPi
ZW/o9384Mtlw81Yjwk20WUYilso03+at3EIZFufrXn6+rErUUdnWG4pWL8dl/ymA
W9mfKdr2uDqLUnrn8srs3QIDAQABo1kwVzAJBgNVHRMEAjAAMAsGA1UdDwQEAwIF
4DAeBgNVHSUEFzAVBgkrBgEFBQcwAQUGCCsGAQUFBwMJMB0GA1UdDgQWBBS0Ho3d
IhA28z84sUDpR+e9SZsHYTANBgkqhkiG9w0BAQUFAAOBgQB4bvAN2WpQ4lvEi7Px
3zaL+Qtj/RmhuMH1s9MEOTJiHHDx6zRVS0QXPBuBZRYH66Pa6tNdE7GfoFWTKbJB
e48mq7rLtoMUs0XkqMpBRxBROI4HTIwPsCIWRN4KSrYOcaBFFh+7NJas634HtO8S
WRNCdTaQ9X6pMahUt1Qj/cjG6Q==
-----END CERTIFICATE-----
