Certificate:
    Data:
        Version: 3 (0x2)
        Serial Number: 1 (0x1)
        Signature Algorithm: sha1WithRSAEncryption
        Issuer: CN=hx509 Test Root CA, C=SE
        Validity
            Not Before: Nov 13 08:09:52 2006 GMT
            Not After : Nov 10 08:09:52 2016 GMT
        Subject: C=SE, CN=OCSP responder
        Subject Public Key Info:
            Public Key Algorithm: rsaEncryption
            RSA Public Key: (1024 bit)
                Modulus (1024 bit):
                    00:b9:d9:3a:e2:6e:9c:c0:71:d9:45:17:1f:53:4d:
                    c5:92:e4:cd:d8:d9:0e:99:e7:65:f5:78:91:64:b4:
                    a4:49:8b:8d:7b:a4:12:8b:7e:18:21:20:72:96:77:
                    27:ef:f1:ed:5a:65:f9:e3:e4:31:34:96:58:47:53:
                    41:39:13:b2:cf:bc:54:c7:54:28:4c:58:35:ad:cd:
                    40:f1:5a:58:92:63:da:b0:5e:aa:ab:cc:9f:34:dc:
                    56:8d:08:a8:7f:82:17:5d:71:f5:c0:32:92:1d:79:
                    aa:2c:5a:47:80:67:42:ed:cd:b6:06:9a:6c:75:62:
                    34:12:98:66:7e:52:4f:e3:85
                Exponent: 65537 (0x10001)
        X509v3 extensions:
            X509v3 Basic Constraints: 
                CA:FALSE
            X509v3 Key Usage: 
                Digital Signature, Non Repudiation, Key Encipherment
            X509v3 Extended Key Usage: 
                OCSP No Check, OCSP Signing
            X509v3 Subject Key Identifier: 
                78:40:07:3F:6A:D9:07:D8:C4:8F:88:38:BF:18:E8:BD:BB:29:8C:99
    Signature Algorithm: sha1WithRSAEncryption
        4d:22:7d:59:a9:cf:74:61:19:ba:67:55:7e:f1:76:83:44:b5:
        39:19:d8:dd:3e:8e:5a:81:81:9d:c7:ca:43:3c:f9:67:1e:ed:
        6d:96:20:3b:ba:b5:2d:ef:28:b3:52:de:65:99:36:fd:a1:98:
        cd:82:f7:d8:9e:9d:a7:d2:4a:b6:fb:c4:0f:e8:e6:53:af:45:
        7b:27:a6:3e:26:97:10:a9:5a:bf:a0:9a:04:c0:45:6c:76:b2:
        80:13:49:c0:52:4b:94:08:0b:da:fc:08:06:0f:43:15:53:98:
        82:bd:b2:99:11:ac:e3:a4:bb:15:b5:72:cf:9b:fa:37:b2:dc:
        2f:d4
-----BEGIN CERTIFICATE-----
MIICHzCCAYigAwIBAgIBATANBgkqhkiG9w0BAQUFADAqMRswGQYDVQQDDBJoeDUw
OSBUZXN0IFJvb3QgQ0ExCzAJBgNVBAYTAlNFMB4XDTA2MTExMzA4MDk1MloXDTE2
MTExMDA4MDk1MlowJjELMAkGA1UEBhMCU0UxFzAVBgNVBAMMDk9DU1AgcmVzcG9u
ZGVyMIGfMA0GCSqGSIb3DQEBAQUAA4GNADCBiQKBgQC52TribpzAcdlFFx9TTcWS
5M3Y2Q6Z52X1eJFktKRJi417pBKLfhghIHKWdyfv8e1aZfnj5DE0llhHU0E5E7LP
vFTHVChMWDWtzUDxWliSY9qwXqqrzJ803FaNCKh/ghddcfXAMpIdeaosWkeAZ0Lt
zbYGmmx1YjQSmGZ+Uk/jhQIDAQABo1kwVzAJBgNVHRMEAjAAMAsGA1UdDwQEAwIF
4DAeBgNVHSUEFzAVBgkrBgEFBQcwAQUGCCsGAQUFBwMJMB0GA1UdDgQWBBR4QAc/
atkH2MSPiDi/GOi9uymMmTANBgkqhkiG9w0BAQUFAAOBgQBNIn1Zqc90YRm6Z1V+
8XaDRLU5GdjdPo5agYGdx8pDPPlnHu1tliA7urUt7yizUt5lmTb9oZjNgvfYnp2n
0kq2+8QP6OZTr0V7J6Y+JpcQqVq/oJoEwEVsdrKAE0nAUkuUCAva/AgGD0MVU5iC
vbKZEazjpLsVtXLPm/o3stwv1A==
-----END CERTIFICATE-----
