Certificate:
    Data:
        Version: 3 (0x2)
        Serial Number: 1 (0x1)
        Signature Algorithm: sha1WithRSAEncryption
        Issuer: CN=hx509 Test Root CA, C=SE
        Validity
            Not Before: Dec 31 01:29:59 2006 GMT
            Not After : Dec 28 01:29:59 2016 GMT
        Subject: C=SE, CN=OCSP responder
        Subject Public Key Info:
            Public Key Algorithm: rsaEncryption
            RSA Public Key: (1024 bit)
                Modulus (1024 bit):
                    00:db:57:eb:29:6e:60:d2:49:be:e3:c0:e0:d7:f8:
                    bd:e9:42:59:07:a2:65:5f:60:22:27:e9:12:7d:13:
                    08:aa:5b:2a:9b:d8:f3:0f:a6:e4:c8:c0:f6:83:30:
                    ba:20:1f:bb:10:34:12:db:34:dc:d4:3d:6e:58:b5:
                    ce:d3:cb:fc:cb:3e:b9:bc:94:35:4d:20:b1:8c:0a:
                    b7:03:f3:b3:33:e0:a7:5c:c7:b0:70:e9:09:3a:e8:
                    fb:97:31:97:2d:17:ae:7d:5d:8a:02:e9:de:3b:77:
                    ce:04:96:b5:c8:5f:d8:66:c8:9f:bb:ad:f2:89:c8:
                    29:82:1d:53:a4:32:fc:5a:47
                Exponent: 65537 (0x10001)
        X509v3 extensions:
            X509v3 Basic Constraints: 
                CA:FALSE
            X509v3 Key Usage: 
                Digital Signature, Non Repudiation, Key Encipherment
            X509v3 Extended Key Usage: 
                OCSP No Check, OCSP Signing
            X509v3 Subject Key Identifier: 
                03:EC:BD:3A:13:CF:88:2C:81:3D:7C:21:EE:BB:92:12:50:B2:DD:8A
    Signature Algorithm: sha1WithRSAEncryption
        20:77:62:09:98:6c:34:92:2a:b8:09:3c:db:7d:c7:ac:78:e7:
        da:d1:0b:91:a4:ca:48:17:6d:32:09:93:11:9c:e4:a3:56:29:
        06:4b:55:28:ad:53:1d:cf:c0:79:73:44:6f:63:3a:16:5a:9a:
        a2:4b:2a:58:e9:5f:09:a6:cd:d7:17:63:56:c6:04:74:2b:10:
        cc:0d:67:eb:4c:6f:ce:08:1a:35:44:f6:12:37:6a:de:ed:e4:
        17:eb:36:94:65:af:29:6d:da:1d:a3:66:23:19:78:3d:35:5b:
        31:8f:b0:7d:51:12:68:99:c8:64:59:6a:96:e1:0e:5a:11:ea:
        57:94
-----BEGIN CERTIFICATE-----
MIICHzCCAYigAwIBAgIBATANBgkqhkiG9w0BAQUFADAqMRswGQYDVQQDDBJoeDUw
OSBUZXN0IFJvb3QgQ0ExCzAJBgNVBAYTAlNFMB4XDTA2MTIzMTAxMjk1OVoXDTE2
MTIyODAxMjk1OVowJjELMAkGA1UEBhMCU0UxFzAVBgNVBAMMDk9DU1AgcmVzcG9u
ZGVyMIGfMA0GCSqGSIb3DQEBAQUAA4GNADCBiQKBgQDbV+spbmDSSb7jwODX+L3p
QlkHomVfYCIn6RJ9EwiqWyqb2PMPpuTIwPaDMLogH7sQNBLbNNzUPW5Ytc7Ty/zL
Prm8lDVNILGMCrcD87Mz4Kdcx7Bw6Qk66PuXMZctF659XYoC6d47d84ElrXIX9hm
yJ+7rfKJyCmCHVOkMvxaRwIDAQABo1kwVzAJBgNVHRMEAjAAMAsGA1UdDwQEAwIF
4DAeBgNVHSUEFzAVBgkrBgEFBQcwAQUGCCsGAQUFBwMJMB0GA1UdDgQWBBQD7L06
E8+ILIE9fCHuu5ISULLdijANBgkqhkiG9w0BAQUFAAOBgQAgd2IJmGw0kiq4CTzb
fceseOfa0QuRpMpIF20yCZMRnOSjVikGS1UorVMdz8B5c0RvYzoWWpqiSypY6V8J
ps3XF2NWxgR0KxDMDWfrTG/OCBo1RPYSN2re7eQX6zaUZa8pbdodo2YjGXg9NVsx
j7B9URJomchkWWqW4Q5aEepXlA==
-----END CERTIFICATE-----
