Certificate:
    Data:
        Version: 3 (0x2)
        Serial Number: 1 (0x1)
        Signature Algorithm: sha1WithRSAEncryption
        Issuer: CN=hx509 Test Root CA, C=SE
        Validity
            Not Before: Apr 26 16:09:40 2006 GMT
            Not After : Apr 23 16:09:40 2016 GMT
        Subject: C=SE, CN=OCSP responder
        Subject Public Key Info:
            Public Key Algorithm: rsaEncryption
            RSA Public Key: (1024 bit)
                Modulus (1024 bit):
                    00:df:2e:2d:ae:23:e2:f8:17:67:ed:8e:0b:c9:08:
                    5e:3e:8c:4d:fe:a5:8b:4a:9d:13:30:e5:4c:c0:43:
                    86:e2:d9:8f:07:3d:45:82:4b:7d:bb:e3:6b:f4:94:
                    a8:33:78:03:2e:5e:18:21:66:f3:57:29:de:76:84:
                    59:6f:51:ca:11:ff:62:03:ab:e4:13:19:cf:73:b8:
                    b0:d8:3c:49:40:5b:77:50:e0:10:40:84:1c:30:7f:
                    72:32:7f:ce:53:3d:f0:0f:d8:f8:be:e1:20:d8:de:
                    34:d9:0a:1b:19:5c:32:d3:fd:bb:03:3f:5d:62:6e:
                    7d:15:a8:01:08:3d:0c:46:e3
                Exponent: 65537 (0x10001)
        X509v3 extensions:
            X509v3 Basic Constraints: 
                CA:FALSE
            X509v3 Key Usage: 
                Digital Signature, Non Repudiation, Key Encipherment
            X509v3 Extended Key Usage: 
                OCSP No Check, OCSP Signing
            X509v3 Subject Key Identifier: 
                F6:27:F2:F4:2B:48:8D:3E:7F:79:F7:67:AB:1C:8D:5A:A4:7E:94:AA
    Signature Algorithm: sha1WithRSAEncryption
        9d:e7:07:c2:d6:8e:22:7c:b0:41:f6:1a:73:b1:2c:b6:6a:8a:
        1e:ba:cf:a1:73:0d:3f:28:2e:f2:a6:00:02:c7:1c:04:0c:97:
        ec:d8:21:8b:75:c3:17:ce:8b:b8:29:77:c1:e2:0f:84:ca:0a:
        cc:ef:aa:cd:cc:93:d4:0d:8f:67:51:a0:9b:ba:0c:e1:15:cd:
        0b:ed:49:01:2a:fe:82:8d:4b:8a:29:04:a3:c8:24:d0:f0:cb:
        3d:8e:91:2d:65:24:b8:17:56:d7:97:1d:1e:dc:f8:6f:66:50:
        78:77:f9:04:1a:80:34:65:a0:65:49:12:3e:b6:9f:56:e0:d2:
        0b:f2
-----BEGIN CERTIFICATE-----
MIICHzCCAYigAwIBAgIBATANBgkqhkiG9w0BAQUFADAqMRswGQYDVQQDDBJoeDUw
OSBUZXN0IFJvb3QgQ0ExCzAJBgNVBAYTAlNFMB4XDTA2MDQyNjE2MDk0MFoXDTE2
MDQyMzE2MDk0MFowJjELMAkGA1UEBhMCU0UxFzAVBgNVBAMMDk9DU1AgcmVzcG9u
ZGVyMIGfMA0GCSqGSIb3DQEBAQUAA4GNADCBiQKBgQDfLi2uI+L4F2ftjgvJCF4+
jE3+pYtKnRMw5UzAQ4bi2Y8HPUWCS32742v0lKgzeAMuXhghZvNXKd52hFlvUcoR
/2IDq+QTGc9zuLDYPElAW3dQ4BBAhBwwf3Iyf85TPfAP2Pi+4SDY3jTZChsZXDLT
/bsDP11ibn0VqAEIPQxG4wIDAQABo1kwVzAJBgNVHRMEAjAAMAsGA1UdDwQEAwIF
4DAeBgNVHSUEFzAVBgkrBgEFBQcwAQUGCCsGAQUFBwMJMB0GA1UdDgQWBBT2J/L0
K0iNPn9592erHI1apH6UqjANBgkqhkiG9w0BAQUFAAOBgQCd5wfC1o4ifLBB9hpz
sSy2aooeus+hcw0/KC7ypgACxxwEDJfs2CGLdcMXzou4KXfB4g+EygrM76rNzJPU
DY9nUaCbugzhFc0L7UkBKv6CjUuKKQSjyCTQ8Ms9jpEtZSS4F1bXlx0e3PhvZlB4
d/kEGoA0ZaBlSRI+tp9W4NIL8g==
-----END CERTIFICATE-----
