Certificate:
    Data:
        Version: 3 (0x2)
        Serial Number: 1 (0x1)
        Signature Algorithm: sha1WithRSAEncryption
        Issuer: CN=hx509 Test Root CA, C=SE
        Validity
            Not Before: Apr 13 20:42:52 2009 GMT
            Not After : Apr 11 20:42:52 2019 GMT
        Subject: C=SE, CN=OCSP responder
        Subject Public Key Info:
            Public Key Algorithm: rsaEncryption
                Public-Key: (1024 bit)
                Modulus:
                    00:a3:c3:2f:3b:23:31:19:eb:1a:23:d9:c9:a1:b3:
                    ba:ef:95:9e:8b:f2:ef:ea:39:80:bc:69:ef:82:3f:
                    50:b1:81:62:41:2a:54:bb:2d:6e:8a:b0:8c:3b:fd:
                    2a:4f:6c:3d:ca:67:58:8b:21:f9:6b:b6:e6:f2:08:
                    86:0a:48:c7:9c:74:17:68:02:3c:8d:7c:14:bd:2e:
                    4b:ea:14:d4:6d:8e:33:86:cc:61:e7:91:79:d2:d5:
                    48:38:ab:ce:26:66:62:7f:82:1e:f7:9b:a9:9e:0c:
                    09:42:6c:2f:44:c8:dc:9e:1c:dd:19:05:44:90:e4:
                    91:9d:f8:d6:18:6b:6a:cc:3b
                Exponent: 65537 (0x10001)
        X509v3 extensions:
            X509v3 Basic Constraints: 
                CA:FALSE
            X509v3 Key Usage: 
                Digital Signature, Non Repudiation, Key Encipherment
            X509v3 Extended Key Usage: 
                OCSP No Check, OCSP Signing
            X509v3 Subject Key Identifier: 
                70:E4:60:E3:81:7A:A0:E5:64:B1:FE:9D:60:5F:10:ED:5B:B7:22:3B
    Signature Algorithm: sha1WithRSAEncryption
        37:ab:d1:a1:82:19:c3:11:38:e4:e6:9b:1c:55:6b:9f:0b:60:
        94:0a:26:c9:20:7e:7d:9e:f5:8f:6a:31:66:4b:03:85:89:09:
        25:b6:d4:44:ed:11:c1:ef:0d:e9:3c:cc:05:5b:c2:c1:58:e5:
        72:23:64:46:d2:f4:c5:e5:c4:70:c6:d7:23:06:01:1b:d9:6d:
        1c:99:1c:19:fc:80:f2:3b:a3:07:da:da:35:82:44:ef:52:a2:
        ed:95:30:83:c6:e5:24:ff:18:13:8c:37:5c:17:77:89:83:ec:
        06:02:c6:09:bc:62:0d:76:db:91:78:0e:84:db:40:22:b6:e3:
        8a:46
-----BEGIN CERTIFICATE-----
MIICHzCCAYigAwIBAgIBATANBgkqhkiG9w0BAQUFADAqMRswGQYDVQQDDBJoeDUw
OSBUZXN0IFJvb3QgQ0ExCzAJBgNVBAYTAlNFMB4XDTA5MDQxMzIwNDI1MloXDTE5
MDQxMTIwNDI1MlowJjELMAkGA1UEBhMCU0UxFzAVBgNVBAMMDk9DU1AgcmVzcG9u
ZGVyMIGfMA0GCSqGSIb3DQEBAQUAA4GNADCBiQKBgQCjwy87IzEZ6xoj2cmhs7rv
lZ6L8u/qOYC8ae+CP1CxgWJBKlS7LW6KsIw7/SpPbD3KZ1iLIflrtubyCIYKSMec
dBdoAjyNfBS9LkvqFNRtjjOGzGHnkXnS1Ug4q84mZmJ/gh73m6meDAlCbC9EyNye
HN0ZBUSQ5JGd+NYYa2rMOwIDAQABo1kwVzAJBgNVHRMEAjAAMAsGA1UdDwQEAwIF
4DAeBgNVHSUEFzAVBgkrBgEFBQcwAQUGCCsGAQUFBwMJMB0GA1UdDgQWBBRw5GDj
gXqg5WSx/p1gXxDtW7ciOzANBgkqhkiG9w0BAQUFAAOBgQA3q9GhghnDETjk5psc
VWufC2CUCibJIH59nvWPajFmSwOFiQklttRE7RHB7w3pPMwFW8LBWOVyI2RG0vTF
5cRwxtcjBgEb2W0cmRwZ/IDyO6MH2to1gkTvUqLtlTCDxuUk/xgTjDdcF3eJg+wG
AsYJvGINdtuReA6E20AituOKRg==
-----END CERTIFICATE-----
