Certificate:
    Data:
        Version: 3 (0x2)
        Serial Number: 1 (0x1)
        Signature Algorithm: sha1WithRSAEncryption
        Issuer: CN=hx509 Test Root CA, C=SE
        Validity
            Not Before: Jul 19 13:43:31 2007 GMT
            Not After : Jul 16 13:43:31 2017 GMT
        Subject: C=SE, CN=OCSP responder
        Subject Public Key Info:
            Public Key Algorithm: rsaEncryption
            RSA Public Key: (1024 bit)
                Modulus (1024 bit):
                    00:bd:35:e7:a5:c4:b6:89:eb:7d:c8:c9:48:cc:91:
                    15:da:a0:c2:59:09:b5:1a:3d:9d:e3:0e:22:55:43:
                    23:9c:e7:86:57:59:8d:98:37:3f:a6:24:89:96:af:
                    12:2e:99:ad:98:d0:bb:88:2c:3c:73:ce:54:b8:57:
                    8e:eb:e3:e3:7c:55:65:b4:54:7c:72:05:e4:3f:fe:
                    b5:7f:db:61:1c:6b:ca:14:00:b8:4d:07:4d:9b:ac:
                    1f:ff:7a:7a:d1:a9:51:9a:0e:8e:b4:5e:e9:f9:98:
                    03:c0:64:cd:6c:c3:72:40:59:2c:bd:2f:9d:90:0b:
                    70:2e:ec:02:b7:f0:c8:9f:f7
                Exponent: 65537 (0x10001)
        X509v3 extensions:
            X509v3 Basic Constraints: 
                CA:FALSE
            X509v3 Key Usage: 
                Digital Signature, Non Repudiation, Key Encipherment
            X509v3 Extended Key Usage: 
                OCSP No Check, OCSP Signing
            X509v3 Subject Key Identifier: 
                7B:27:0C:67:9F:EB:61:B9:9F:CC:E5:FA:95:EB:E6:9C:20:34:58:4F
    Signature Algorithm: sha1WithRSAEncryption
        37:d1:59:13:b2:18:63:f7:52:b5:aa:43:c7:e0:d1:4d:f1:1a:
        ef:06:19:30:fb:36:34:bf:7d:1d:20:6c:57:16:b7:3d:fd:b3:
        1f:20:81:6b:bd:58:38:74:7d:96:70:22:60:aa:07:27:5c:be:
        6b:ce:fe:32:f0:d5:3d:13:c4:36:14:3c:25:2a:c5:0b:17:fb:
        f1:c1:13:91:3e:15:fe:49:50:65:e1:92:1f:06:84:30:c8:e3:
        e3:1d:5e:3f:ef:b3:64:4a:3d:1e:28:56:68:aa:ab:83:fd:1f:
        ea:ad:63:b8:d5:18:90:7c:2b:74:94:c2:d2:03:60:dc:e9:ef:
        bc:34
-----BEGIN CERTIFICATE-----
MIICHzCCAYigAwIBAgIBATANBgkqhkiG9w0BAQUFADAqMRswGQYDVQQDDBJoeDUw
OSBUZXN0IFJvb3QgQ0ExCzAJBgNVBAYTAlNFMB4XDTA3MDcxOTEzNDMzMVoXDTE3
MDcxNjEzNDMzMVowJjELMAkGA1UEBhMCU0UxFzAVBgNVBAMMDk9DU1AgcmVzcG9u
ZGVyMIGfMA0GCSqGSIb3DQEBAQUAA4GNADCBiQKBgQC9NeelxLaJ633IyUjMkRXa
oMJZCbUaPZ3jDiJVQyOc54ZXWY2YNz+mJImWrxIuma2Y0LuILDxzzlS4V47r4+N8
VWW0VHxyBeQ//rV/22Eca8oUALhNB02brB//enrRqVGaDo60Xun5mAPAZM1sw3JA
WSy9L52QC3Au7AK38Mif9wIDAQABo1kwVzAJBgNVHRMEAjAAMAsGA1UdDwQEAwIF
4DAeBgNVHSUEFzAVBgkrBgEFBQcwAQUGCCsGAQUFBwMJMB0GA1UdDgQWBBR7Jwxn
n+thuZ/M5fqV6+acIDRYTzANBgkqhkiG9w0BAQUFAAOBgQA30VkTshhj91K1qkPH
4NFN8RrvBhkw+zY0v30dIGxXFrc9/bMfIIFrvVg4dH2WcCJgqgcnXL5rzv4y8NU9
E8Q2FDwlKsULF/vxwRORPhX+SVBl4ZIfBoQwyOPjHV4/77NkSj0eKFZoqquD/R/q
rWO41RiQfCt0lMLSA2Dc6e+8NA==
-----END CERTIFICATE-----
