Certificate:
    Data:
        Version: 3 (0x2)
        Serial Number: 1 (0x1)
        Signature Algorithm: sha1WithRSAEncryption
        Issuer: CN=hx509 Test Root CA, C=SE
        Validity
            Not Before: Apr 29 14:47:01 2006 GMT
            Not After : Apr 26 14:47:01 2016 GMT
        Subject: C=SE, CN=OCSP responder
        Subject Public Key Info:
            Public Key Algorithm: rsaEncryption
            RSA Public Key: (1024 bit)
                Modulus (1024 bit):
                    00:d2:64:e3:69:b5:f8:14:26:d1:5a:ce:ce:34:3f:
                    3f:1a:8f:ef:4e:bd:9e:2d:f5:2e:04:fd:d2:f6:93:
                    0d:53:36:70:e6:b7:a4:e4:96:0c:42:98:67:dd:89:
                    ca:26:2b:06:17:d3:a4:10:39:66:1c:0c:2b:88:a6:
                    7b:9a:25:4f:2b:ac:72:b7:42:da:d2:e6:25:fb:3f:
                    17:53:09:19:00:79:6b:e9:91:0f:3d:d8:b3:12:1b:
                    6d:6d:9b:91:b1:b7:e5:09:fd:25:ad:b4:e4:b0:f8:
                    ce:5f:9d:94:a9:c9:a7:87:a7:6f:3a:9c:d5:78:db:
                    ff:84:6e:63:8a:84:4c:da:b9
                Exponent: 65537 (0x10001)
        X509v3 extensions:
            X509v3 Basic Constraints: 
                CA:FALSE
            X509v3 Key Usage: 
                Digital Signature, Non Repudiation, Key Encipherment
            X509v3 Extended Key Usage: 
                OCSP No Check, OCSP Signing
            X509v3 Subject Key Identifier: 
                FB:99:56:5D:29:FB:AD:84:7F:2F:BC:4F:1E:1A:25:20:89:FE:8D:51
    Signature Algorithm: sha1WithRSAEncryption
        30:ef:c0:9c:a9:ab:0d:44:79:b4:5b:54:9e:66:89:87:3e:88:
        ce:a2:1d:4e:3e:3e:3b:97:ae:85:ac:a4:e8:cb:50:06:5d:ac:
        bb:e3:a3:51:99:ba:cc:fe:58:a8:9a:18:53:6c:03:ec:4d:5b:
        e0:56:2f:0d:99:de:88:d1:fb:46:34:23:09:7a:88:59:79:b8:
        fb:8e:13:e7:fd:34:70:e8:cd:87:9e:73:18:f3:52:a0:6d:3e:
        01:f9:f6:bf:57:04:a2:99:c2:7f:0a:3b:af:fe:7e:ca:e2:0b:
        da:44:64:39:a8:0f:6e:9c:5d:e7:55:9f:13:8f:21:70:f3:31:
        5a:3e
-----BEGIN CERTIFICATE-----
MIICHzCCAYigAwIBAgIBATANBgkqhkiG9w0BAQUFADAqMRswGQYDVQQDDBJoeDUw
OSBUZXN0IFJvb3QgQ0ExCzAJBgNVBAYTAlNFMB4XDTA2MDQyOTE0NDcwMVoXDTE2
MDQyNjE0NDcwMVowJjELMAkGA1UEBhMCU0UxFzAVBgNVBAMMDk9DU1AgcmVzcG9u
ZGVyMIGfMA0GCSqGSIb3DQEBAQUAA4GNADCBiQKBgQDSZONptfgUJtFazs40Pz8a
j+9OvZ4t9S4E/dL2kw1TNnDmt6TklgxCmGfdicomKwYX06QQOWYcDCuIpnuaJU8r
rHK3QtrS5iX7PxdTCRkAeWvpkQ892LMSG21tm5Gxt+UJ/SWttOSw+M5fnZSpyaeH
p286nNV42/+EbmOKhEzauQIDAQABo1kwVzAJBgNVHRMEAjAAMAsGA1UdDwQEAwIF
4DAeBgNVHSUEFzAVBgkrBgEFBQcwAQUGCCsGAQUFBwMJMB0GA1UdDgQWBBT7mVZd
KfuthH8vvE8eGiUgif6NUTANBgkqhkiG9w0BAQUFAAOBgQAw78CcqasNRHm0W1Se
ZomHPojOoh1OPj47l66FrKToy1AGXay746NRmbrM/liomhhTbAPsTVvgVi8Nmd6I
0ftGNCMJeohZebj7jhPn/TRw6M2HnnMY81KgbT4B+fa/VwSimcJ/Cjuv/n7K4gva
RGQ5qA9unF3nVZ8TjyFw8zFaPg==
-----END CERTIFICATE-----
