Certificate:
    Data:
        Version: 3 (0x2)
        Serial Number: 1 (0x1)
        Signature Algorithm: sha1WithRSAEncryption
        Issuer: CN=hx509 Test Root CA, C=SE
        Validity
            Not Before: Apr 26 16:40:05 2006 GMT
            Not After : Apr 23 16:40:05 2016 GMT
        Subject: C=SE, CN=OCSP responder
        Subject Public Key Info:
            Public Key Algorithm: rsaEncryption
            RSA Public Key: (1024 bit)
                Modulus (1024 bit):
                    00:be:87:af:e0:65:5b:8c:b7:bc:5b:7e:06:11:16:
                    a4:72:6c:58:76:cf:96:fb:7a:0e:56:e6:d5:c1:35:
                    a8:6d:1c:66:84:16:d8:47:2a:84:12:b8:ee:06:76:
                    63:51:0c:51:6c:d0:ec:61:9b:22:56:d2:a9:de:c0:
                    e2:d7:13:76:49:59:06:1f:05:54:87:27:31:88:85:
                    1b:da:86:e4:d5:a1:01:2f:1e:7b:57:0e:24:a1:10:
                    87:70:bb:0a:d4:14:2e:7b:6a:fe:42:d7:3c:ed:85:
                    26:92:ff:2e:ea:6a:bc:c7:90:fe:27:69:c3:0b:52:
                    10:8e:4b:20:35:54:18:f6:3f
                Exponent: 65537 (0x10001)
        X509v3 extensions:
            X509v3 Basic Constraints: 
                CA:FALSE
            X509v3 Key Usage: 
                Digital Signature, Non Repudiation, Key Encipherment
            X509v3 Extended Key Usage: 
                OCSP No Check, OCSP Signing
            X509v3 Subject Key Identifier: 
                94:96:38:B9:98:A2:95:A8:53:9F:F3:37:DA:0B:5E:7C:C6:60:43:4E
    Signature Algorithm: sha1WithRSAEncryption
        78:b1:57:dc:b0:77:71:7d:0c:2a:13:ca:f2:15:6b:ad:40:6f:
        0a:bd:42:77:58:8c:f4:56:23:d9:9f:5f:4b:61:b5:a8:36:97:
        60:db:ce:5c:c9:aa:e9:4c:b3:02:1f:7d:40:4e:1b:5d:3a:75:
        b3:69:5f:ec:4b:53:ee:ba:39:19:85:63:ef:40:50:e0:82:6b:
        30:da:b0:e4:8f:21:3d:49:ab:9f:47:ca:eb:b2:7d:96:73:3b:
        2d:75:08:3d:a1:42:03:6f:42:8a:a4:71:e3:8e:21:76:72:6f:
        b7:a8:ac:90:92:06:81:e7:3a:66:74:6e:67:fc:27:fe:83:77:
        d5:61
-----BEGIN CERTIFICATE-----
MIICHzCCAYigAwIBAgIBATANBgkqhkiG9w0BAQUFADAqMRswGQYDVQQDDBJoeDUw
OSBUZXN0IFJvb3QgQ0ExCzAJBgNVBAYTAlNFMB4XDTA2MDQyNjE2NDAwNVoXDTE2
MDQyMzE2NDAwNVowJjELMAkGA1UEBhMCU0UxFzAVBgNVBAMMDk9DU1AgcmVzcG9u
ZGVyMIGfMA0GCSqGSIb3DQEBAQUAA4GNADCBiQKBgQC+h6/gZVuMt7xbfgYRFqRy
bFh2z5b7eg5W5tXBNahtHGaEFthHKoQSuO4GdmNRDFFs0OxhmyJW0qnewOLXE3ZJ
WQYfBVSHJzGIhRvahuTVoQEvHntXDiShEIdwuwrUFC57av5C1zzthSaS/y7qarzH
kP4nacMLUhCOSyA1VBj2PwIDAQABo1kwVzAJBgNVHRMEAjAAMAsGA1UdDwQEAwIF
4DAeBgNVHSUEFzAVBgkrBgEFBQcwAQUGCCsGAQUFBwMJMB0GA1UdDgQWBBSUlji5
mKKVqFOf8zfaC158xmBDTjANBgkqhkiG9w0BAQUFAAOBgQB4sVfcsHdxfQwqE8ry
FWutQG8KvUJ3WIz0ViPZn19LYbWoNpdg285cyarpTLMCH31AThtdOnWzaV/sS1Pu
ujkZhWPvQFDggmsw2rDkjyE9SaufR8rrsn2WczstdQg9oUIDb0KKpHHjjiF2cm+3
qKyQkgaB5zpmdG5n/Cf+g3fVYQ==
-----END CERTIFICATE-----
