Certificate:
    Data:
        Version: 3 (0x2)
        Serial Number: 1 (0x1)
        Signature Algorithm: sha1WithRSAEncryption
        Issuer: CN=hx509 Test Root CA, C=SE
        Validity
            Not Before: Feb  7 10:55:20 2009 GMT
            Not After : Feb  5 10:55:20 2019 GMT
        Subject: C=SE, CN=OCSP responder
        Subject Public Key Info:
            Public Key Algorithm: rsaEncryption
            RSA Public Key: (1024 bit)
                Modulus (1024 bit):
                    00:b9:f2:ca:db:e0:ba:3d:09:5f:cc:46:51:7b:ab:
                    68:b2:e6:cc:08:f1:3d:c7:0c:93:4e:c2:a6:34:e5:
                    d4:83:df:31:ed:e2:d3:1a:7a:4c:10:fe:81:38:71:
                    a5:96:09:ec:d2:91:31:01:ec:e4:4c:99:03:8d:aa:
                    de:e3:02:fa:6b:fc:8b:47:6a:dd:bc:c0:36:85:f6:
                    1d:7e:ff:29:c2:ba:d2:88:04:29:d0:af:d9:9d:84:
                    71:52:5b:a4:16:84:4d:a7:a2:04:ec:cf:be:8d:4a:
                    0c:be:29:0c:6b:7b:a0:75:3f:d6:e1:60:fd:39:05:
                    83:ed:76:4b:d1:01:2d:f1:31
                Exponent: 65537 (0x10001)
        X509v3 extensions:
            X509v3 Basic Constraints: 
                CA:FALSE
            X509v3 Key Usage: 
                Digital Signature, Non Repudiation, Key Encipherment
            X509v3 Extended Key Usage: 
                OCSP No Check, OCSP Signing
            X509v3 Subject Key Identifier: 
                EC:DD:D2:6E:E4:9F:4E:49:8C:AF:E0:15:41:B6:7B:E9:14:9D:46:81
    Signature Algorithm: sha1WithRSAEncryption
        7b:a8:dc:c7:e1:af:4c:1d:19:89:47:4a:61:60:d6:80:8d:06:
        d4:cc:f8:6b:3e:ba:b7:5b:88:8d:ea:09:33:9c:57:1e:52:4a:
        4e:7e:b1:f1:46:ae:d9:e5:90:1e:37:13:84:1c:0d:5c:1e:79:
        f0:3b:82:f8:b7:11:87:2a:1b:57:13:19:1e:01:29:aa:0f:25:
        b3:67:9d:19:58:68:3f:8b:41:9c:7e:46:33:60:89:b2:fa:d9:
        c0:e4:d1:44:0f:cd:82:1e:59:df:aa:2e:44:83:f7:ed:aa:64:
        57:03:43:8d:b0:7d:e1:a6:b5:b8:33:84:7f:b7:b6:a9:10:00:
        62:20
-----BEGIN CERTIFICATE-----
MIICHzCCAYigAwIBAgIBATANBgkqhkiG9w0BAQUFADAqMRswGQYDVQQDDBJoeDUw
OSBUZXN0IFJvb3QgQ0ExCzAJBgNVBAYTAlNFMB4XDTA5MDIwNzEwNTUyMFoXDTE5
MDIwNTEwNTUyMFowJjELMAkGA1UEBhMCU0UxFzAVBgNVBAMMDk9DU1AgcmVzcG9u
ZGVyMIGfMA0GCSqGSIb3DQEBAQUAA4GNADCBiQKBgQC58srb4Lo9CV/MRlF7q2iy
5swI8T3HDJNOwqY05dSD3zHt4tMaekwQ/oE4caWWCezSkTEB7ORMmQONqt7jAvpr
/ItHat28wDaF9h1+/ynCutKIBCnQr9mdhHFSW6QWhE2nogTsz76NSgy+KQxre6B1
P9bhYP05BYPtdkvRAS3xMQIDAQABo1kwVzAJBgNVHRMEAjAAMAsGA1UdDwQEAwIF
4DAeBgNVHSUEFzAVBgkrBgEFBQcwAQUGCCsGAQUFBwMJMB0GA1UdDgQWBBTs3dJu
5J9OSYyv4BVBtnvpFJ1GgTANBgkqhkiG9w0BAQUFAAOBgQB7qNzH4a9MHRmJR0ph
YNaAjQbUzPhrPrq3W4iN6gkznFceUkpOfrHxRq7Z5ZAeNxOEHA1cHnnwO4L4txGH
KhtXExkeASmqDyWzZ50ZWGg/i0GcfkYzYImy+tnA5NFED82CHlnfqi5Eg/ftqmRX
A0ONsH3hprW4M4R/t7apEABiIA==
-----END CERTIFICATE-----
