Certificate:
    Data:
        Version: 3 (0x2)
        Serial Number: 1 (0x1)
        Signature Algorithm: sha1WithRSAEncryption
        Issuer: CN=hx509 Test Root CA, C=SE
        Validity
            Not Before: Apr 13 21:53:34 2009 GMT
            Not After : Apr 11 21:53:34 2019 GMT
        Subject: C=SE, CN=OCSP responder
        Subject Public Key Info:
            Public Key Algorithm: rsaEncryption
                Public-Key: (1024 bit)
                Modulus:
                    00:c0:19:81:a4:65:cb:94:02:71:90:2b:e8:2a:aa:
                    bf:c3:54:68:e6:f3:2f:24:c5:de:bb:21:01:44:05:
                    33:5b:d5:fa:91:90:13:18:09:f6:18:f4:58:f5:db:
                    d7:ee:a3:d9:80:54:09:d7:cd:0b:d0:dc:7b:8a:fe:
                    56:0f:df:f3:e3:d2:a8:12:c6:8b:aa:1d:37:78:cf:
                    88:83:da:74:57:ad:44:3a:a7:f1:cc:bb:26:99:12:
                    1b:9b:75:d3:78:46:02:7c:9c:a9:8b:11:7a:21:3f:
                    85:5d:d3:38:d0:d1:54:fd:d6:be:0d:53:95:a6:10:
                    9a:cc:f6:79:5a:25:52:2d:05
                Exponent: 65537 (0x10001)
        X509v3 extensions:
            X509v3 Basic Constraints: 
                CA:FALSE
            X509v3 Key Usage: 
                Digital Signature, Non Repudiation, Key Encipherment
            X509v3 Extended Key Usage: 
                OCSP No Check, OCSP Signing
            X509v3 Subject Key Identifier: 
                58:5F:03:EF:00:8F:12:C8:77:30:07:7C:79:FA:3B:54:2C:4C:10:1D
    Signature Algorithm: sha1WithRSAEncryption
        6b:f7:05:03:db:3a:23:01:76:21:87:5d:03:0e:cd:dc:a7:e2:
        bc:9b:0f:08:0c:d3:d4:eb:a4:c2:1a:37:13:f1:5b:77:5f:6a:
        48:bb:b8:1f:b3:ff:91:a5:bb:24:58:83:78:9b:f5:b7:53:3b:
        10:67:60:30:53:69:78:54:88:94:80:83:f8:c6:72:74:e3:66:
        e7:98:94:69:14:7f:22:f4:f6:18:a3:7c:0c:88:4b:c1:02:c7:
        2a:b9:aa:50:0e:57:45:7e:4f:6e:d7:bd:78:ef:0f:70:ba:84:
        c1:c0:23:9c:52:c1:60:b3:13:a4:58:a2:43:84:51:22:aa:2f:
        59:6f
-----BEGIN CERTIFICATE-----
MIICHzCCAYigAwIBAgIBATANBgkqhkiG9w0BAQUFADAqMRswGQYDVQQDDBJoeDUw
OSBUZXN0IFJvb3QgQ0ExCzAJBgNVBAYTAlNFMB4XDTA5MDQxMzIxNTMzNFoXDTE5
MDQxMTIxNTMzNFowJjELMAkGA1UEBhMCU0UxFzAVBgNVBAMMDk9DU1AgcmVzcG9u
ZGVyMIGfMA0GCSqGSIb3DQEBAQUAA4GNADCBiQKBgQDAGYGkZcuUAnGQK+gqqr/D
VGjm8y8kxd67IQFEBTNb1fqRkBMYCfYY9Fj129fuo9mAVAnXzQvQ3HuK/lYP3/Pj
0qgSxouqHTd4z4iD2nRXrUQ6p/HMuyaZEhubddN4RgJ8nKmLEXohP4Vd0zjQ0VT9
1r4NU5WmEJrM9nlaJVItBQIDAQABo1kwVzAJBgNVHRMEAjAAMAsGA1UdDwQEAwIF
4DAeBgNVHSUEFzAVBgkrBgEFBQcwAQUGCCsGAQUFBwMJMB0GA1UdDgQWBBRYXwPv
AI8SyHcwB3x5+jtULEwQHTANBgkqhkiG9w0BAQUFAAOBgQBr9wUD2zojAXYhh10D
Ds3cp+K8mw8IDNPU66TCGjcT8Vt3X2pIu7gfs/+RpbskWIN4m/W3UzsQZ2AwU2l4
VIiUgIP4xnJ042bnmJRpFH8i9PYYo3wMiEvBAscquapQDldFfk9u17147w9wuoTB
wCOcUsFgsxOkWKJDhFEiqi9Zbw==
-----END CERTIFICATE-----
