Certificate:
    Data:
        Version: 3 (0x2)
        Serial Number: 1 (0x1)
        Signature Algorithm: sha1WithRSAEncryption
        Issuer: CN=hx509 Test Root CA, C=SE
        Validity
            Not Before: Apr 13 21:48:00 2009 GMT
            Not After : Apr 11 21:48:00 2019 GMT
        Subject: C=SE, CN=OCSP responder
        Subject Public Key Info:
            Public Key Algorithm: rsaEncryption
            RSA Public Key: (1024 bit)
                Modulus (1024 bit):
                    00:cd:59:73:92:2f:01:61:d0:7d:25:c5:41:33:45:
                    2f:99:0d:3c:04:82:c0:74:b5:7b:aa:d1:7c:78:e7:
                    19:03:7e:22:d0:67:a9:e2:7e:33:6c:e3:fa:a0:22:
                    6d:1b:e2:f4:e7:d8:9e:bf:c1:77:d2:a6:f3:7e:3b:
                    33:06:bb:c8:89:ba:33:5a:7d:53:98:ae:98:48:2b:
                    11:bf:b0:3b:47:21:1d:b9:0e:49:1b:fc:90:3f:e0:
                    94:42:40:dd:14:7a:57:96:27:02:26:1d:8f:2e:ce:
                    5b:1b:62:26:cd:70:b7:d7:8f:6e:24:8b:a9:a8:6f:
                    07:26:c4:d5:40:a2:8d:dd:13
                Exponent: 65537 (0x10001)
        X509v3 extensions:
            X509v3 Basic Constraints: 
                CA:FALSE
            X509v3 Key Usage: 
                Digital Signature, Non Repudiation, Key Encipherment
            X509v3 Extended Key Usage: 
                OCSP No Check, OCSP Signing
            X509v3 Subject Key Identifier: 
                4B:13:19:BC:43:E6:09:6F:BD:EF:B4:C0:92:D9:9C:52:86:A1:B7:B7
    Signature Algorithm: sha1WithRSAEncryption
        84:f4:14:8a:8f:56:2c:30:4c:9d:47:19:91:a0:60:a1:5f:81:
        12:c5:f9:5b:c2:41:5e:bc:34:43:6c:2d:ed:9f:2a:19:4e:62:
        5f:3f:f7:c3:f6:88:8b:2f:a3:8e:cc:92:90:85:2c:5b:25:cb:
        09:c7:d2:83:2e:d3:3d:1b:3a:92:78:ad:24:02:66:2b:cf:cd:
        73:71:e1:2f:a0:c9:b1:2c:a0:66:03:e3:1d:80:f3:07:95:b2:
        4d:c8:0a:59:44:75:07:ce:96:ff:f6:22:04:9f:66:96:a3:a1:
        8d:7a:a1:a6:ea:cd:28:19:57:9a:d8:b4:da:66:79:7f:c5:a4:
        17:0d
-----BEGIN CERTIFICATE-----
MIICHzCCAYigAwIBAgIBATANBgkqhkiG9w0BAQUFADAqMRswGQYDVQQDDBJoeDUw
OSBUZXN0IFJvb3QgQ0ExCzAJBgNVBAYTAlNFMB4XDTA5MDQxMzIxNDgwMFoXDTE5
MDQxMTIxNDgwMFowJjELMAkGA1UEBhMCU0UxFzAVBgNVBAMMDk9DU1AgcmVzcG9u
ZGVyMIGfMA0GCSqGSIb3DQEBAQUAA4GNADCBiQKBgQDNWXOSLwFh0H0lxUEzRS+Z
DTwEgsB0tXuq0Xx45xkDfiLQZ6nifjNs4/qgIm0b4vTn2J6/wXfSpvN+OzMGu8iJ
ujNafVOYrphIKxG/sDtHIR25Dkkb/JA/4JRCQN0UeleWJwImHY8uzlsbYibNcLfX
j24ki6mobwcmxNVAoo3dEwIDAQABo1kwVzAJBgNVHRMEAjAAMAsGA1UdDwQEAwIF
4DAeBgNVHSUEFzAVBgkrBgEFBQcwAQUGCCsGAQUFBwMJMB0GA1UdDgQWBBRLExm8
Q+YJb73vtMCS2ZxShqG3tzANBgkqhkiG9w0BAQUFAAOBgQCE9BSKj1YsMEydRxmR
oGChX4ESxflbwkFevDRDbC3tnyoZTmJfP/fD9oiLL6OOzJKQhSxbJcsJx9KDLtM9
GzqSeK0kAmYrz81zceEvoMmxLKBmA+MdgPMHlbJNyApZRHUHzpb/9iIEn2aWo6GN
eqGm6s0oGVea2LTaZnl/xaQXDQ==
-----END CERTIFICATE-----
