Certificate:
    Data:
        Version: 3 (0x2)
        Serial Number: 1 (0x1)
        Signature Algorithm: sha1WithRSAEncryption
        Issuer: CN=hx509 Test Root CA, C=SE
        Validity
            Not Before: Nov 13 05:47:12 2006 GMT
            Not After : Nov 10 05:47:12 2016 GMT
        Subject: C=SE, CN=OCSP responder
        Subject Public Key Info:
            Public Key Algorithm: rsaEncryption
            RSA Public Key: (1024 bit)
                Modulus (1024 bit):
                    00:e8:9b:2b:e9:e5:b9:8b:d9:90:f7:47:49:29:c3:
                    9e:85:c0:51:ac:19:9d:74:50:c9:c3:6b:c5:6b:b8:
                    29:59:2b:07:08:7b:5e:d3:38:61:99:b2:ea:95:78:
                    ce:a9:0e:8b:45:23:80:2e:80:07:be:47:e8:8e:16:
                    22:bb:db:c5:91:b0:8e:f3:cd:7a:d0:32:1d:98:bd:
                    d5:4f:d3:1b:7f:1d:ae:3a:84:a6:70:4d:1f:10:7d:
                    f3:62:24:d6:dd:d9:be:c4:34:dd:a2:96:b7:e5:2b:
                    2e:51:95:33:a9:00:91:cb:e0:b0:15:ee:30:70:dc:
                    5c:ff:a4:4a:dc:4d:cf:06:1f
                Exponent: 65537 (0x10001)
        X509v3 extensions:
            X509v3 Basic Constraints: 
                CA:FALSE
            X509v3 Key Usage: 
                Digital Signature, Non Repudiation, Key Encipherment
            X509v3 Extended Key Usage: 
                OCSP No Check, OCSP Signing
            X509v3 Subject Key Identifier: 
                28:2E:BB:BA:D9:16:F5:4B:ED:51:88:E5:9D:74:69:37:C9:DB:9B:3F
    Signature Algorithm: sha1WithRSAEncryption
        03:6e:5f:c3:52:36:7b:af:01:0f:41:ef:1c:26:7e:1c:c2:96:
        11:17:06:42:b1:2e:17:8b:f6:c3:20:c2:62:9a:3c:d4:0c:f3:
        1c:53:41:3c:1b:f1:78:38:b0:e4:26:6b:47:df:ed:41:aa:0f:
        cd:b2:28:14:ee:20:3d:a2:86:80:56:76:98:93:c9:ba:b6:b3:
        04:bf:7e:37:55:a1:e8:8f:82:a1:bd:22:6f:2d:63:0d:f0:d7:
        49:b0:d9:4a:c3:ea:f8:4d:a7:15:42:cf:51:d9:1a:b9:62:69:
        96:be:19:4e:fe:1c:a2:e6:88:cb:55:24:f2:70:ad:e9:3b:83:
        37:99
-----BEGIN CERTIFICATE-----
MIICHzCCAYigAwIBAgIBATANBgkqhkiG9w0BAQUFADAqMRswGQYDVQQDDBJoeDUw
OSBUZXN0IFJvb3QgQ0ExCzAJBgNVBAYTAlNFMB4XDTA2MTExMzA1NDcxMloXDTE2
MTExMDA1NDcxMlowJjELMAkGA1UEBhMCU0UxFzAVBgNVBAMMDk9DU1AgcmVzcG9u
ZGVyMIGfMA0GCSqGSIb3DQEBAQUAA4GNADCBiQKBgQDomyvp5bmL2ZD3R0kpw56F
wFGsGZ10UMnDa8VruClZKwcIe17TOGGZsuqVeM6pDotFI4AugAe+R+iOFiK728WR
sI7zzXrQMh2YvdVP0xt/Ha46hKZwTR8QffNiJNbd2b7ENN2ilrflKy5RlTOpAJHL
4LAV7jBw3Fz/pErcTc8GHwIDAQABo1kwVzAJBgNVHRMEAjAAMAsGA1UdDwQEAwIF
4DAeBgNVHSUEFzAVBgkrBgEFBQcwAQUGCCsGAQUFBwMJMB0GA1UdDgQWBBQoLru6
2Rb1S+1RiOWddGk3ydubPzANBgkqhkiG9w0BAQUFAAOBgQADbl/DUjZ7rwEPQe8c
Jn4cwpYRFwZCsS4Xi/bDIMJimjzUDPMcU0E8G/F4OLDkJmtH3+1Bqg/NsigU7iA9
ooaAVnaYk8m6trMEv343VaHoj4KhvSJvLWMN8NdJsNlKw+r4TacVQs9R2Rq5YmmW
vhlO/hyi5ojLVSTycK3pO4M3mQ==
-----END CERTIFICATE-----
