Certificate:
    Data:
        Version: 3 (0x2)
        Serial Number: 1 (0x1)
        Signature Algorithm: sha1WithRSAEncryption
        Issuer: CN=hx509 Test Root CA, C=SE
        Validity
            Not Before: Dec  8 02:17:58 2006 GMT
            Not After : Dec  5 02:17:58 2016 GMT
        Subject: C=SE, CN=OCSP responder
        Subject Public Key Info:
            Public Key Algorithm: rsaEncryption
            RSA Public Key: (1024 bit)
                Modulus (1024 bit):
                    00:bd:bc:0b:24:b8:af:d7:6c:38:e8:b8:1b:fd:35:
                    99:78:26:3e:4f:37:df:61:02:43:3f:b9:ef:73:31:
                    34:23:f7:14:55:4b:78:21:67:fa:84:1c:9a:81:4c:
                    f6:db:ea:46:14:a4:9c:5d:54:34:7a:e4:c7:39:a2:
                    98:99:98:9c:78:f9:82:1f:11:7a:ca:39:c3:d9:d3:
                    8b:89:c2:15:ac:a6:6d:64:f3:03:d5:d4:6b:8a:ae:
                    de:43:2c:0a:a1:95:79:32:23:aa:04:70:86:18:24:
                    32:2b:85:6b:73:87:29:11:8e:90:3b:ba:de:ed:c3:
                    48:8c:fb:ae:74:89:3c:d4:a7
                Exponent: 65537 (0x10001)
        X509v3 extensions:
            X509v3 Basic Constraints: 
                CA:FALSE
            X509v3 Key Usage: 
                Digital Signature, Non Repudiation, Key Encipherment
            X509v3 Extended Key Usage: 
                OCSP No Check, OCSP Signing
            X509v3 Subject Key Identifier: 
                90:D4:F6:67:6F:BE:DC:8A:70:88:5B:C0:8A:45:45:C7:91:F6:15:55
    Signature Algorithm: sha1WithRSAEncryption
        9e:2a:6e:7e:9c:31:78:35:77:12:5c:5f:d9:9c:a3:cd:fa:72:
        da:20:24:87:80:8e:d9:76:fc:f9:56:2e:8f:f0:fe:41:26:d7:
        7e:70:9d:be:70:62:43:41:e0:8d:ce:d7:a9:b3:c9:6e:8f:8a:
        59:34:b1:9a:f0:49:e3:e4:15:cb:8f:33:58:54:c9:e2:f5:db:
        c2:93:84:85:de:7e:7a:44:74:81:1b:01:5b:0a:95:f2:51:ca:
        aa:a8:00:8d:80:b9:ad:8f:4d:e7:05:8b:d4:21:c0:6d:ca:02:
        0a:4d:4a:35:ce:dd:d6:89:67:94:91:83:f2:85:68:6b:db:80:
        ec:e6
-----BEGIN CERTIFICATE-----
MIICHzCCAYigAwIBAgIBATANBgkqhkiG9w0BAQUFADAqMRswGQYDVQQDDBJoeDUw
OSBUZXN0IFJvb3QgQ0ExCzAJBgNVBAYTAlNFMB4XDTA2MTIwODAyMTc1OFoXDTE2
MTIwNTAyMTc1OFowJjELMAkGA1UEBhMCU0UxFzAVBgNVBAMMDk9DU1AgcmVzcG9u
ZGVyMIGfMA0GCSqGSIb3DQEBAQUAA4GNADCBiQKBgQC9vAskuK/XbDjouBv9NZl4
Jj5PN99hAkM/ue9zMTQj9xRVS3ghZ/qEHJqBTPbb6kYUpJxdVDR65Mc5opiZmJx4
+YIfEXrKOcPZ04uJwhWspm1k8wPV1GuKrt5DLAqhlXkyI6oEcIYYJDIrhWtzhykR
jpA7ut7tw0iM+650iTzUpwIDAQABo1kwVzAJBgNVHRMEAjAAMAsGA1UdDwQEAwIF
4DAeBgNVHSUEFzAVBgkrBgEFBQcwAQUGCCsGAQUFBwMJMB0GA1UdDgQWBBSQ1PZn
b77cinCIW8CKRUXHkfYVVTANBgkqhkiG9w0BAQUFAAOBgQCeKm5+nDF4NXcSXF/Z
nKPN+nLaICSHgI7Zdvz5Vi6P8P5BJtd+cJ2+cGJDQeCNzteps8luj4pZNLGa8Enj
5BXLjzNYVMni9dvCk4SF3n56RHSBGwFbCpXyUcqqqACNgLmtj03nBYvUIcBtygIK
TUo1zt3WiWeUkYPyhWhr24Ds5g==
-----END CERTIFICATE-----
