-----BEGIN CERTIFICATE-----
MIICMTCCAZqgAwIBAgIJAJWfAgX+rDGuMA0GCSqGSIb3DQEBBQUAMB4xCzAJBgNV
BAYTAlNFMQ8wDQYDVQQDDAZwa2luaXQwHhcNMDcwNzE5MTM0MzMzWhcNMTcwNzE2
MTM0MzMzWjA1MQswCQYDVQQGEwJTRTEPMA0GA1UEAwwGcGtpbml0MRUwEwYDVQQD
DAxwa2luaXQtcHJveHkwgZ8wDQYJKoZIhvcNAQEBBQADgY0AMIGJAoGBANZMh1zS
/m5eQejrNJcGH52jTQ7lhzOwHKK3vFj5EWlcD557UaUoKjq3RXHRHXehjiAQxkEa
Vu5uuDL4Xr0Cx+45M5t1L5gryaCaok6iSW02d/h+GicMUi29iT97S8ApklVbvUVy
7zWaZvzoOyy4mqeQ4rJM7b+//Jzqq1kuzbppAgMBAAGjYDBeMAkGA1UdEwQCMAAw
CwYDVR0PBAQDAgXgMB0GA1UdDgQWBBTSuZcZeTxeWu1NJRrgNVyzCQ2OjDAlBggr
BgEFBQcBDgEB/wQWMBQCAQAwDwYIKwYBBQUHFQAEA2ZvbzANBgkqhkiG9w0BAQUF
AAOBgQBwH4DP8s4m50ht/lw/N7XU2wB4bS5SY2fWKSOFAwibltyGYHbE1orEPkcR
sDehXjeknKJLDzH1AZCs4s9qAfJXCDUAmtuJkbimYRxIb6eE+Fe6+5FUuO4YlR8p
DkDV3L9R2jnJsI0z2IqY0tnY9n4Rln6taLK5EiVB4RLAjTSFmA==
-----END CERTIFICATE-----
Certificate:
    Data:
        Version: 3 (0x2)
        Serial Number: 6 (0x6)
        Signature Algorithm: sha1WithRSAEncryption
        Issuer: CN=hx509 Test Root CA, C=SE
        Validity
            Not Before: Jul 19 13:43:33 2007 GMT
            Not After : Jul 16 13:43:33 2017 GMT
        Subject: C=SE, CN=pkinit
        Subject Public Key Info:
            Public Key Algorithm: rsaEncryption
            RSA Public Key: (1024 bit)
                Modulus (1024 bit):
                    00:c7:62:a9:0a:93:f9:a2:07:c1:bc:40:92:40:b4:
                    60:5f:e5:b4:95:5f:d0:85:82:72:65:3a:82:cd:d6:
                    1f:91:67:d5:c6:b7:40:13:32:c0:1f:db:16:5f:91:
                    4a:3a:ce:3f:fd:09:c2:1f:95:f0:80:c6:16:7c:04:
                    d3:eb:24:a5:ec:e6:5c:df:fd:aa:88:df:cf:b4:ae:
                    85:13:ce:bb:dd:5e:31:16:a0:6a:96:4e:49:b6:3b:
                    99:a0:fd:47:52:34:4f:77:e2:94:05:e3:85:c7:0c:
                    9b:4b:7d:ed:06:6b:41:e5:3c:94:37:14:e2:cc:1d:
                    99:38:ae:2b:e2:29:4f:9a:1f
                Exponent: 65537 (0x10001)
        X509v3 extensions:
            X509v3 Basic Constraints: 
                CA:FALSE
            X509v3 Key Usage: 
                Digital Signature, Non Repudiation, Key Encipherment
            X509v3 Subject Key Identifier: 
                1B:31:9C:DF:3E:A7:1D:71:E9:84:92:1D:F9:26:18:48:5D:6E:06:E1
            X509v3 Subject Alternative Name: 
                othername:<unsupported>
    Signature Algorithm: sha1WithRSAEncryption
        68:45:8f:99:b6:30:56:5f:cb:74:77:80:10:3e:84:33:2d:6c:
        43:b0:07:d2:f9:82:1f:9a:60:9b:dd:d7:54:fe:b1:5a:e4:b6:
        ba:09:32:6f:1f:51:f3:83:ac:c2:7d:da:9a:eb:11:3c:cc:cc:
        52:3f:4f:5b:4f:42:8d:9b:12:66:46:68:dc:cf:3d:37:59:78:
        14:a0:81:a9:26:4c:55:49:26:b6:1a:c7:40:b1:23:fb:af:d4:
        8d:5d:e9:71:1d:8b:66:68:50:23:1b:b4:31:90:43:4c:be:04:
        9d:1d:95:33:bc:c3:65:1e:ce:74:dd:49:6c:5f:e3:2e:a7:3b:
        e5:6c
-----BEGIN CERTIFICATE-----
MIICMTCCAZqgAwIBAgIBBjANBgkqhkiG9w0BAQUFADAqMRswGQYDVQQDDBJoeDUw
OSBUZXN0IFJvb3QgQ0ExCzAJBgNVBAYTAlNFMB4XDTA3MDcxOTEzNDMzM1oXDTE3
MDcxNjEzNDMzM1owHjELMAkGA1UEBhMCU0UxDzANBgNVBAMMBnBraW5pdDCBnzAN
BgkqhkiG9w0BAQEFAAOBjQAwgYkCgYEAx2KpCpP5ogfBvECSQLRgX+W0lV/QhYJy
ZTqCzdYfkWfVxrdAEzLAH9sWX5FKOs4//QnCH5XwgMYWfATT6ySl7OZc3/2qiN/P
tK6FE8673V4xFqBqlk5JtjuZoP1HUjRPd+KUBeOFxwybS33tBmtB5TyUNxTizB2Z
OK4r4ilPmh8CAwEAAaNzMHEwCQYDVR0TBAIwADALBgNVHQ8EBAMCBeAwHQYDVR0O
BBYEFBsxnN8+px1x6YSSHfkmGEhdbgbhMDgGA1UdEQQxMC+gLQYGKwYBBQICoCMw
IaANGwtURVNULkg1TC5TRaEQMA6gAwIBAaEHMAUbA2JhcjANBgkqhkiG9w0BAQUF
AAOBgQBoRY+ZtjBWX8t0d4AQPoQzLWxDsAfS+YIfmmCb3ddU/rFa5La6CTJvH1Hz
g6zCfdqa6xE8zMxSP09bT0KNmxJmRmjczz03WXgUoIGpJkxVSSa2GsdAsSP7r9SN
XelxHYtmaFAjG7QxkENMvgSdHZUzvMNlHs503UlsX+MupzvlbA==
-----END CERTIFICATE-----
