Certificate:
    Data:
        Version: 3 (0x2)
        Serial Number: 6 (0x6)
        Signature Algorithm: sha1WithRSAEncryption
        Issuer: CN=hx509 Test Root CA, C=SE
        Validity
            Not Before: Nov 13 08:09:53 2006 GMT
            Not After : Nov 10 08:09:53 2016 GMT
        Subject: C=SE, CN=pkinit
        Subject Public Key Info:
            Public Key Algorithm: rsaEncryption
            RSA Public Key: (1024 bit)
                Modulus (1024 bit):
                    00:d9:09:30:07:c7:a9:36:9f:52:bc:3b:8d:93:3a:
                    0e:4f:53:2b:97:34:c5:f7:db:30:ea:a0:e3:96:2b:
                    4c:66:3a:73:60:3a:2d:f5:01:94:c7:54:2b:b4:cd:
                    7f:65:58:26:e1:d2:eb:9c:06:d2:b5:55:e7:7a:fa:
                    20:a6:c6:0c:5a:55:de:2d:2b:6d:24:9e:20:62:5e:
                    d1:7e:0d:30:96:26:cd:93:48:e4:61:9b:91:a6:4b:
                    a2:9a:73:54:b0:c7:56:99:6f:0f:4f:bb:41:2f:f3:
                    8f:dd:f7:f8:1c:3a:95:93:bd:53:73:4d:15:72:5d:
                    09:66:fa:d2:bf:c4:9b:66:23
                Exponent: 65537 (0x10001)
        X509v3 extensions:
            X509v3 Basic Constraints: 
                CA:FALSE
            X509v3 Key Usage: 
                Digital Signature, Non Repudiation, Key Encipherment
            X509v3 Subject Key Identifier: 
                24:38:64:97:1E:D6:79:CA:A8:BD:1E:3F:B4:70:6F:20:2D:A6:E9:F2
            X509v3 Subject Alternative Name: 
                othername:<unsupported>
    Signature Algorithm: sha1WithRSAEncryption
        38:26:36:9d:37:8d:07:ed:86:82:3e:d7:1c:51:cd:42:1f:28:
        35:54:dc:69:e9:0c:69:a4:53:1b:4a:e0:5a:25:c1:0a:98:0e:
        e9:c2:c3:a8:64:55:d9:67:07:d1:5f:87:43:6b:2e:24:6f:01:
        db:24:10:67:df:ab:10:1c:6f:4d:9b:50:82:90:59:43:0d:3e:
        3b:a4:e7:c4:89:b1:0b:c6:76:49:c5:3a:34:bc:88:1e:86:e1:
        06:89:17:61:34:51:e5:09:e5:0c:cf:92:60:75:4e:95:0c:13:
        07:90:c0:4e:c0:9f:e7:2a:13:8e:89:85:20:28:f3:18:a4:2b:
        0d:66
-----BEGIN CERTIFICATE-----
MIICMTCCAZqgAwIBAgIBBjANBgkqhkiG9w0BAQUFADAqMRswGQYDVQQDDBJoeDUw
OSBUZXN0IFJvb3QgQ0ExCzAJBgNVBAYTAlNFMB4XDTA2MTExMzA4MDk1M1oXDTE2
MTExMDA4MDk1M1owHjELMAkGA1UEBhMCU0UxDzANBgNVBAMMBnBraW5pdDCBnzAN
BgkqhkiG9w0BAQEFAAOBjQAwgYkCgYEA2QkwB8epNp9SvDuNkzoOT1MrlzTF99sw
6qDjlitMZjpzYDot9QGUx1QrtM1/ZVgm4dLrnAbStVXnevogpsYMWlXeLSttJJ4g
Yl7Rfg0wlibNk0jkYZuRpkuimnNUsMdWmW8PT7tBL/OP3ff4HDqVk71Tc00Vcl0J
ZvrSv8SbZiMCAwEAAaNzMHEwCQYDVR0TBAIwADALBgNVHQ8EBAMCBeAwHQYDVR0O
BBYEFCQ4ZJce1nnKqL0eP7RwbyAtpunyMDgGA1UdEQQxMC+gLQYGKwYBBQICoCMw
IaANGwtURVNULkg1TC5TRaEQMA6gAwIBAaEHMAUbA2JhcjANBgkqhkiG9w0BAQUF
AAOBgQA4JjadN40H7YaCPtccUc1CHyg1VNxp6QxppFMbSuBaJcEKmA7pwsOoZFXZ
ZwfRX4dDay4kbwHbJBBn36sQHG9Nm1CCkFlDDT47pOfEibELxnZJxTo0vIgehuEG
iRdhNFHlCeUMz5JgdU6VDBMHkMBOwJ/nKhOOiYUgKPMYpCsNZg==
-----END CERTIFICATE-----
