-----BEGIN CERTIFICATE-----
MIICMTCCAZqgAwIBAgIJANfhLfUK7EKYMA0GCSqGSIb3DQEBBQUAMB4xCzAJBgNV
BAYTAlNFMQ8wDQYDVQQDDAZwa2luaXQwHhcNMDYxMTIzMTczNzA4WhcNMTYxMTIw
MTczNzA4WjA1MQswCQYDVQQGEwJTRTEPMA0GA1UEAwwGcGtpbml0MRUwEwYDVQQD
DAxwa2luaXQtcHJveHkwgZ8wDQYJKoZIhvcNAQEBBQADgY0AMIGJAoGBANMwBGzT
MPIGpyuVFWDYBIG6THF/7NiMsbRyw2WhyjDGVag4E5fCsIAycHfbX2nKsuVbSHGR
KBZ17jZrMnTjFCwUZVDq508vD5zzsXUI6yRg8jftv2c1RyHKIczaNuRg4PafincF
rVpFLDvR7A8SMP7m4tD9Lo5oraJRzgaYe48VAgMBAAGjYDBeMAkGA1UdEwQCMAAw
CwYDVR0PBAQDAgXgMB0GA1UdDgQWBBRuAeDjisfDOb7Pue1qkVldhw3L8zAlBggr
BgEFBQcBDgEB/wQWMBQCAQEwDwYIKwYBBQUHFQAEA2ZvbzANBgkqhkiG9w0BAQUF
AAOBgQCE3PNKBjuUBh29iLSxE4DdsEOB8VkCpBlCik1Q8Lj91liBmSz1C9OM+WOt
KnOjOVUY/FYaLx6JxIlGd+rDsxSGTuaguMFV7J/zLZiwC/X5x9I7t4gOMYXYajtK
hiudYTXd3hfL4bfgYUuLAgcqV4R6PCYD2iEUaeG8ykugAVnfmQ==
-----END CERTIFICATE-----
Certificate:
    Data:
        Version: 3 (0x2)
        Serial Number: 6 (0x6)
        Signature Algorithm: sha1WithRSAEncryption
        Issuer: CN=hx509 Test Root CA, C=SE
        Validity
            Not Before: Nov 23 17:37:08 2006 GMT
            Not After : Nov 20 17:37:08 2016 GMT
        Subject: C=SE, CN=pkinit
        Subject Public Key Info:
            Public Key Algorithm: rsaEncryption
            RSA Public Key: (1024 bit)
                Modulus (1024 bit):
                    00:9b:09:f8:2a:f7:90:6a:56:07:b4:04:7f:8e:28:
                    ac:0e:f0:25:31:63:c4:08:23:65:e2:ed:6d:50:9c:
                    f9:9d:b4:42:56:ac:62:a7:a0:3f:a6:21:dc:1c:07:
                    12:b6:10:58:3e:06:13:03:df:68:78:1a:ae:71:18:
                    02:cc:26:3f:3d:38:aa:96:6b:f0:f7:26:5a:65:93:
                    21:31:50:d3:21:48:1a:91:5e:0b:f7:34:04:b8:11:
                    e5:65:8f:79:b4:0f:0b:e4:0c:f3:29:bb:aa:f4:cf:
                    ea:19:dd:2a:8b:9d:64:e5:cb:a6:dc:77:e5:3f:8e:
                    8b:28:50:71:e8:ef:66:19:81
                Exponent: 65537 (0x10001)
        X509v3 extensions:
            X509v3 Basic Constraints: 
                CA:FALSE
            X509v3 Key Usage: 
                Digital Signature, Non Repudiation, Key Encipherment
            X509v3 Subject Key Identifier: 
                76:6C:CE:6C:9D:4E:98:97:B5:58:97:7A:C8:79:7E:06:68:F8:07:EB
            X509v3 Subject Alternative Name: 
                othername:<unsupported>
    Signature Algorithm: sha1WithRSAEncryption
        4e:24:d6:f1:b3:8a:03:c8:d8:d5:ab:02:cf:01:d7:07:8d:85:
        6e:1c:cf:bb:f8:18:1d:06:6e:7f:30:89:49:73:1b:49:50:72:
        8a:fa:8c:70:ff:75:72:49:1d:25:8f:11:a8:c8:37:27:8c:d7:
        3f:ba:dd:a2:23:22:26:fc:8f:6d:20:a4:c1:a7:67:2e:64:3b:
        dd:08:8b:17:92:64:c0:31:86:9a:75:32:7f:7f:be:e7:fe:a8:
        5a:b0:25:04:73:07:60:ee:05:52:c7:b1:c1:65:df:ea:ad:19:
        21:a4:db:47:28:89:06:c8:53:c4:9d:9f:9e:6d:fb:98:55:50:
        21:62
-----BEGIN CERTIFICATE-----
MIICMTCCAZqgAwIBAgIBBjANBgkqhkiG9w0BAQUFADAqMRswGQYDVQQDDBJoeDUw
OSBUZXN0IFJvb3QgQ0ExCzAJBgNVBAYTAlNFMB4XDTA2MTEyMzE3MzcwOFoXDTE2
MTEyMDE3MzcwOFowHjELMAkGA1UEBhMCU0UxDzANBgNVBAMMBnBraW5pdDCBnzAN
BgkqhkiG9w0BAQEFAAOBjQAwgYkCgYEAmwn4KveQalYHtAR/jiisDvAlMWPECCNl
4u1tUJz5nbRCVqxip6A/piHcHAcSthBYPgYTA99oeBqucRgCzCY/PTiqlmvw9yZa
ZZMhMVDTIUgakV4L9zQEuBHlZY95tA8L5AzzKbuq9M/qGd0qi51k5cum3HflP46L
KFBx6O9mGYECAwEAAaNzMHEwCQYDVR0TBAIwADALBgNVHQ8EBAMCBeAwHQYDVR0O
BBYEFHZszmydTpiXtViXesh5fgZo+AfrMDgGA1UdEQQxMC+gLQYGKwYBBQICoCMw
IaANGwtURVNULkg1TC5TRaEQMA6gAwIBAaEHMAUbA2JhcjANBgkqhkiG9w0BAQUF
AAOBgQBOJNbxs4oDyNjVqwLPAdcHjYVuHM+7+BgdBm5/MIlJcxtJUHKK+oxw/3Vy
SR0ljxGoyDcnjNc/ut2iIyIm/I9tIKTBp2cuZDvdCIsXkmTAMYaadTJ/f77n/qha
sCUEcwdg7gVSx7HBZd/qrRkhpNtHKIkGyFPEnZ+ebfuYVVAhYg==
-----END CERTIFICATE-----
