Certificate:
    Data:
        Version: 3 (0x2)
        Serial Number: 6 (0x6)
        Signature Algorithm: sha1WithRSAEncryption
        Issuer: CN=hx509 Test Root CA, C=SE
        Validity
            Not Before: Apr 29 14:47:05 2006 GMT
            Not After : Apr 26 14:47:05 2016 GMT
        Subject: C=SE, CN=pkinit
        Subject Public Key Info:
            Public Key Algorithm: rsaEncryption
            RSA Public Key: (1024 bit)
                Modulus (1024 bit):
                    00:c2:97:3d:9f:a4:9a:54:70:c7:58:d5:aa:b8:14:
                    d7:3d:f9:b2:cc:3d:7a:9d:1d:f7:9a:0e:62:15:90:
                    34:74:9d:e0:01:7e:6f:19:f3:cc:64:e6:ee:8d:a9:
                    f3:c8:03:2c:9e:95:52:37:42:4e:60:99:1d:e9:3e:
                    3f:88:dd:d5:36:c6:12:02:4c:b2:ec:74:b1:94:51:
                    e3:43:d0:8a:fd:2a:14:e7:18:67:00:bb:62:70:da:
                    0a:93:ec:d3:13:ff:13:17:a8:b5:b1:07:41:50:2c:
                    7c:65:59:92:70:fd:7d:1e:44:d7:bc:0f:d3:24:dd:
                    99:65:a5:53:69:fd:b5:13:bb
                Exponent: 65537 (0x10001)
        X509v3 extensions:
            X509v3 Basic Constraints: 
                CA:FALSE
            X509v3 Key Usage: 
                Digital Signature, Non Repudiation, Key Encipherment
            X509v3 Subject Key Identifier: 
                3D:1B:08:54:71:8A:C9:62:52:61:6B:46:C9:A4:C6:84:CD:CA:86:03
            X509v3 Subject Alternative Name: 
                othername:<unsupported>
    Signature Algorithm: sha1WithRSAEncryption
        b8:3a:d3:29:38:05:a3:81:ca:ac:c5:b0:3b:3a:ad:90:8b:89:
        61:01:21:33:96:8a:4b:c2:06:99:ac:e4:ea:65:15:f4:25:11:
        01:cb:62:93:e1:b4:89:a7:4b:c8:4b:7e:80:7b:8c:f1:b7:72:
        68:be:1e:99:ae:2f:e2:71:64:61:ca:ca:ce:2c:ea:88:4e:34:
        a8:c5:9b:c2:9f:fc:dd:e0:ed:22:5a:ad:1d:79:02:33:c3:90:
        b2:6c:01:87:5b:f2:9f:8e:25:f2:fa:2a:e4:d2:1c:00:8e:7a:
        04:95:26:55:55:01:92:94:18:76:42:d7:92:6d:d2:2f:60:0c:
        9e:2c
-----BEGIN CERTIFICATE-----
MIICMTCCAZqgAwIBAgIBBjANBgkqhkiG9w0BAQUFADAqMRswGQYDVQQDDBJoeDUw
OSBUZXN0IFJvb3QgQ0ExCzAJBgNVBAYTAlNFMB4XDTA2MDQyOTE0NDcwNVoXDTE2
MDQyNjE0NDcwNVowHjELMAkGA1UEBhMCU0UxDzANBgNVBAMMBnBraW5pdDCBnzAN
BgkqhkiG9w0BAQEFAAOBjQAwgYkCgYEAwpc9n6SaVHDHWNWquBTXPfmyzD16nR33
mg5iFZA0dJ3gAX5vGfPMZObujanzyAMsnpVSN0JOYJkd6T4/iN3VNsYSAkyy7HSx
lFHjQ9CK/SoU5xhnALticNoKk+zTE/8TF6i1sQdBUCx8ZVmScP19HkTXvA/TJN2Z
ZaVTaf21E7sCAwEAAaNzMHEwCQYDVR0TBAIwADALBgNVHQ8EBAMCBeAwHQYDVR0O
BBYEFD0bCFRxisliUmFrRsmkxoTNyoYDMDgGA1UdEQQxMC+gLQYGKwYBBQICoCMw
IaANGwtFWEFNUExFLk9SR6EQMA6gAwIBAaEHMAUbA2JhcjANBgkqhkiG9w0BAQUF
AAOBgQC4OtMpOAWjgcqsxbA7Oq2Qi4lhASEzlopLwgaZrOTqZRX0JREBy2KT4bSJ
p0vIS36Ae4zxt3Jovh6Zri/icWRhysrOLOqITjSoxZvCn/zd4O0iWq0deQIzw5Cy
bAGHW/KfjiXy+irk0hwAjnoElSZVVQGSlBh2QteSbdIvYAyeLA==
-----END CERTIFICATE-----
