Certificate:
    Data:
        Version: 3 (0x2)
        Serial Number: 6 (0x6)
        Signature Algorithm: sha1WithRSAEncryption
        Issuer: CN=hx509 Test Root CA, C=SE
        Validity
            Not Before: Feb  7 10:55:20 2009 GMT
            Not After : Feb  5 10:55:20 2019 GMT
        Subject: C=SE, CN=pkinit
        Subject Public Key Info:
            Public Key Algorithm: rsaEncryption
            RSA Public Key: (1024 bit)
                Modulus (1024 bit):
                    00:bb:5e:b9:8e:01:ef:9d:a2:c7:7a:d5:8b:7e:2a:
                    98:2f:46:72:4c:38:bc:34:2e:94:17:73:41:19:c8:
                    bf:e9:e1:72:0f:23:46:ed:d3:5f:98:ac:72:07:e3:
                    5d:47:2e:66:ed:9b:1d:36:ca:33:bd:07:44:33:5b:
                    ae:19:89:b8:04:ec:c6:d5:2e:ba:a2:95:00:08:66:
                    cc:2a:ff:93:8f:4f:d1:b5:88:d3:7c:d0:2e:31:38:
                    74:50:d9:c3:1f:d5:d2:7c:5d:02:5a:24:cf:47:4e:
                    2c:16:39:63:ff:2f:75:a4:69:7a:77:29:5d:8b:c1:
                    a8:77:ba:c9:3d:b2:b5:8b:19
                Exponent: 65537 (0x10001)
        X509v3 extensions:
            X509v3 Basic Constraints: 
                CA:FALSE
            X509v3 Key Usage: 
                Digital Signature, Non Repudiation, Key Encipherment
            X509v3 Subject Key Identifier: 
                03:0A:83:62:73:E0:F4:CF:7C:38:4A:CE:A6:3D:64:8E:F0:13:AB:FD
            X509v3 Subject Alternative Name: 
                othername:<unsupported>
    Signature Algorithm: sha1WithRSAEncryption
        b0:b0:19:f2:c8:73:7a:40:79:8e:2f:db:65:64:df:6c:83:20:
        59:49:af:b4:1a:c8:87:e7:d4:9a:f4:9b:3c:ed:6d:c2:75:ca:
        e5:e6:cf:61:37:a3:bd:54:96:b4:82:b2:ee:9d:08:82:ea:8f:
        45:56:93:cc:4f:4d:34:e1:f5:52:b2:15:e5:2e:92:3a:6e:98:
        c2:b7:18:6f:af:41:83:ab:d5:3f:32:1a:37:d8:04:57:f3:f5:
        81:99:f2:24:63:1b:07:bb:de:58:47:c9:82:be:6c:34:73:a6:
        05:b7:4d:14:ec:3c:1f:1c:45:d9:84:ff:65:9d:ae:b5:ab:2a:
        a6:fa
-----BEGIN CERTIFICATE-----
MIICMTCCAZqgAwIBAgIBBjANBgkqhkiG9w0BAQUFADAqMRswGQYDVQQDDBJoeDUw
OSBUZXN0IFJvb3QgQ0ExCzAJBgNVBAYTAlNFMB4XDTA5MDIwNzEwNTUyMFoXDTE5
MDIwNTEwNTUyMFowHjELMAkGA1UEBhMCU0UxDzANBgNVBAMMBnBraW5pdDCBnzAN
BgkqhkiG9w0BAQEFAAOBjQAwgYkCgYEAu165jgHvnaLHetWLfiqYL0ZyTDi8NC6U
F3NBGci/6eFyDyNG7dNfmKxyB+NdRy5m7ZsdNsozvQdEM1uuGYm4BOzG1S66opUA
CGbMKv+Tj0/RtYjTfNAuMTh0UNnDH9XSfF0CWiTPR04sFjlj/y91pGl6dyldi8Go
d7rJPbK1ixkCAwEAAaNzMHEwCQYDVR0TBAIwADALBgNVHQ8EBAMCBeAwHQYDVR0O
BBYEFAMKg2Jz4PTPfDhKzqY9ZI7wE6v9MDgGA1UdEQQxMC+gLQYGKwYBBQICoCMw
IaANGwtURVNULkg1TC5TRaEQMA6gAwIBAaEHMAUbA2JhcjANBgkqhkiG9w0BAQUF
AAOBgQCwsBnyyHN6QHmOL9tlZN9sgyBZSa+0GsiH59Sa9Js87W3Cdcrl5s9hN6O9
VJa0grLunQiC6o9FVpPMT0004fVSshXlLpI6bpjCtxhvr0GDq9U/Mho32ARX8/WB
mfIkYxsHu95YR8mCvmw0c6YFt00U7DwfHEXZhP9lna61qyqm+g==
-----END CERTIFICATE-----
