Certificate:
    Data:
        Version: 3 (0x2)
        Serial Number: 6 (0x6)
        Signature Algorithm: sha1WithRSAEncryption
        Issuer: CN=hx509 Test Root CA, C=SE
        Validity
            Not Before: Dec 31 01:30:00 2006 GMT
            Not After : Dec 28 01:30:00 2016 GMT
        Subject: C=SE, CN=pkinit
        Subject Public Key Info:
            Public Key Algorithm: rsaEncryption
            RSA Public Key: (1024 bit)
                Modulus (1024 bit):
                    00:e7:2b:8e:1c:d6:e6:7b:87:2a:4d:04:29:50:e6:
                    77:46:6d:af:a0:ec:0f:8d:85:85:cf:36:4b:ec:c6:
                    dc:85:6e:eb:fc:36:fc:aa:b5:dd:e9:fd:4d:52:9f:
                    c8:fb:f0:4d:d7:f1:cb:aa:eb:27:38:a9:ce:08:34:
                    33:6b:0b:d7:22:93:3b:46:82:3f:5e:40:9f:04:78:
                    7e:46:ce:87:2e:f0:83:03:53:6e:8c:07:72:10:c9:
                    f4:a3:ac:fb:1b:82:e9:15:24:b0:b7:9a:f0:e8:21:
                    67:62:7e:3a:5b:53:22:2e:67:12:ec:16:62:f0:81:
                    b8:42:be:cb:d4:a9:29:4f:09
                Exponent: 65537 (0x10001)
        X509v3 extensions:
            X509v3 Basic Constraints: 
                CA:FALSE
            X509v3 Key Usage: 
                Digital Signature, Non Repudiation, Key Encipherment
            X509v3 Subject Key Identifier: 
                24:39:FD:ED:4B:34:DB:4C:CA:D2:10:D2:C9:8D:D7:0A:91:64:0E:AE
            X509v3 Subject Alternative Name: 
                othername:<unsupported>
    Signature Algorithm: sha1WithRSAEncryption
        00:f7:68:c5:ef:11:f3:9a:9d:3a:e3:f3:35:62:6b:2e:4d:d7:
        9c:af:ae:b9:ae:5c:61:af:99:a0:17:33:83:8a:34:ad:be:5d:
        7d:73:92:b0:78:25:d8:00:a1:8b:d8:a1:7f:c7:ce:e8:ba:0b:
        0a:0c:13:af:ce:62:ef:06:e5:dd:e0:54:fa:19:d4:78:72:b6:
        15:b9:e1:ba:a4:cf:9a:9f:22:0e:3f:7c:14:36:2d:4e:24:b8:
        69:8d:de:ac:4e:1e:68:6f:e8:dc:fc:d8:0c:53:7a:e3:d6:a5:
        ad:1f:11:de:f9:1c:72:d0:63:69:4b:fa:71:57:bb:4b:25:c3:
        f9:eb
-----BEGIN CERTIFICATE-----
MIICMTCCAZqgAwIBAgIBBjANBgkqhkiG9w0BAQUFADAqMRswGQYDVQQDDBJoeDUw
OSBUZXN0IFJvb3QgQ0ExCzAJBgNVBAYTAlNFMB4XDTA2MTIzMTAxMzAwMFoXDTE2
MTIyODAxMzAwMFowHjELMAkGA1UEBhMCU0UxDzANBgNVBAMMBnBraW5pdDCBnzAN
BgkqhkiG9w0BAQEFAAOBjQAwgYkCgYEA5yuOHNbme4cqTQQpUOZ3Rm2voOwPjYWF
zzZL7MbchW7r/Db8qrXd6f1NUp/I+/BN1/HLqusnOKnOCDQzawvXIpM7RoI/XkCf
BHh+Rs6HLvCDA1NujAdyEMn0o6z7G4LpFSSwt5rw6CFnYn46W1MiLmcS7BZi8IG4
Qr7L1KkpTwkCAwEAAaNzMHEwCQYDVR0TBAIwADALBgNVHQ8EBAMCBeAwHQYDVR0O
BBYEFCQ5/e1LNNtMytIQ0smN1wqRZA6uMDgGA1UdEQQxMC+gLQYGKwYBBQICoCMw
IaANGwtURVNULkg1TC5TRaEQMA6gAwIBAaEHMAUbA2JhcjANBgkqhkiG9w0BAQUF
AAOBgQAA92jF7xHzmp064/M1YmsuTdecr665rlxhr5mgFzODijStvl19c5KweCXY
AKGL2KF/x87ougsKDBOvzmLvBuXd4FT6GdR4crYVueG6pM+anyIOP3wUNi1OJLhp
jd6sTh5ob+jc/NgMU3rj1qWtHxHe+Rxy0GNpS/pxV7tLJcP56w==
-----END CERTIFICATE-----
