Certificate:
    Data:
        Version: 3 (0x2)
        Serial Number: 7 (0x7)
        Signature Algorithm: sha1WithRSAEncryption
        Issuer: CN=hx509 Test Root CA, C=SE
        Validity
            Not Before: Apr 13 21:48:01 2009 GMT
            Not After : Apr 11 21:48:01 2019 GMT
        Subject: C=SE, CN=pkinit-ec
        Subject Public Key Info:
            Public Key Algorithm: id-ecPublicKey
            EC Public Key:
                pub: 
                    04:13:a2:43:8a:9a:e3:92:ba:57:e6:a8:fd:22:51:
                    9f:27:d4:90:b1:ad:b3:c2:c7:89:a4:03:42:79:bc:
                    1c:f5:1f:f9:59:b4:69:37:f1:77:2d:53:6b:41:cd:
                    e1:76:e8:2d:04:f3:41:71:5e:d8:f8:82:00:d2:45:
                    54:fd:3f:ba:6c
                ASN1 OID: prime256v1
        X509v3 extensions:
            X509v3 Basic Constraints: 
                CA:FALSE
            X509v3 Key Usage: 
                Digital Signature, Non Repudiation, Key Encipherment
            X509v3 Subject Key Identifier: 
                9D:76:D4:22:B7:4D:76:B3:A7:65:22:DA:48:E1:3D:36:B1:39:52:41
            X509v3 Subject Alternative Name: 
                othername:<unsupported>
    Signature Algorithm: sha1WithRSAEncryption
        92:18:2f:7d:86:a5:28:62:d2:5b:f0:57:c6:f1:1f:c0:2a:ef:
        e3:76:6e:7b:1a:16:11:5c:7f:10:0e:76:fa:4e:02:13:f5:02:
        09:c9:11:81:f2:ba:ec:4c:c0:ad:24:7d:b9:74:67:72:11:27:
        ee:43:7a:19:45:e7:4d:97:93:d2:92:06:8f:42:a7:f8:2d:dd:
        fe:c0:31:56:79:51:ea:a5:2b:e9:ac:4d:a3:43:12:bd:9d:6c:
        8f:98:82:08:94:d1:50:b7:ed:a3:d6:a8:7d:bb:9a:68:1b:b8:
        ae:ae:a7:66:0c:f1:8a:e0:b0:d6:78:c7:d5:09:ce:82:8f:f1:
        ed:8d
-----BEGIN CERTIFICATE-----
MIIB7TCCAVagAwIBAgIBBzANBgkqhkiG9w0BAQUFADAqMRswGQYDVQQDDBJoeDUw
OSBUZXN0IFJvb3QgQ0ExCzAJBgNVBAYTAlNFMB4XDTA5MDQxMzIxNDgwMVoXDTE5
MDQxMTIxNDgwMVowITELMAkGA1UEBhMCU0UxEjAQBgNVBAMMCXBraW5pdC1lYzBZ
MBMGByqGSM49AgEGCCqGSM49AwEHA0IABBOiQ4qa45K6V+ao/SJRnyfUkLGts8LH
iaQDQnm8HPUf+Vm0aTfxdy1Ta0HN4XboLQTzQXFe2PiCANJFVP0/umyjczBxMAkG
A1UdEwQCMAAwCwYDVR0PBAQDAgXgMB0GA1UdDgQWBBSddtQit012s6dlItpI4T02
sTlSQTA4BgNVHREEMTAvoC0GBisGAQUCAqAjMCGgDRsLVEVTVC5INUwuU0WhEDAO
oAMCAQGhBzAFGwNiYXIwDQYJKoZIhvcNAQEFBQADgYEAkhgvfYalKGLSW/BXxvEf
wCrv43ZuexoWEVx/EA52+k4CE/UCCckRgfK67EzArSR9uXRnchEn7kN6GUXnTZeT
0pIGj0Kn+C3d/sAxVnlR6qUr6axNo0MSvZ1sj5iCCJTRULfto9aofbuaaBu4rq6n
ZgzxiuCw1njH1QnOgo/x7Y0=
-----END CERTIFICATE-----
