Certificate:
    Data:
        Version: 3 (0x2)
        Serial Number: 3 (0x3)
        Signature Algorithm: sha1WithRSAEncryption
        Issuer: CN=hx509 Test Root CA, C=SE
        Validity
            Not Before: Dec  7 23:40:48 2006 GMT
            Not After : Dec  4 23:40:48 2016 GMT
        Subject: C=SE, CN=Revoke cert
        Subject Public Key Info:
            Public Key Algorithm: rsaEncryption
            RSA Public Key: (1024 bit)
                Modulus (1024 bit):
                    00:c4:ab:85:ca:21:ac:cf:34:f1:99:9b:28:d6:2c:
                    e6:e3:81:46:46:c9:a3:1b:75:85:93:33:bc:4b:db:
                    be:2c:96:88:34:f8:f6:86:e5:f3:be:c9:19:24:df:
                    c3:e9:3d:8b:5a:86:ec:1d:a7:3b:45:f2:b8:35:45:
                    aa:b8:15:1e:28:8f:ed:d0:b0:2a:70:2d:13:71:15:
                    b9:b2:03:f4:6a:1f:1b:17:b9:52:d2:09:42:8e:f7:
                    cb:6b:3e:9b:43:ad:39:61:ac:ea:8e:58:64:7a:31:
                    98:3b:19:95:e1:37:68:7f:a9:47:92:d4:3d:27:47:
                    df:d6:9b:0e:50:7d:a3:4d:ab
                Exponent: 65537 (0x10001)
        X509v3 extensions:
            X509v3 Basic Constraints: 
                CA:FALSE
            X509v3 Key Usage: 
                Digital Signature, Non Repudiation, Key Encipherment
            X509v3 Subject Key Identifier: 
                0D:79:CD:D0:26:0A:BF:09:43:F2:6B:63:88:B6:A9:29:1D:0B:7F:9A
    Signature Algorithm: sha1WithRSAEncryption
        0f:a3:2b:5f:b0:21:8c:73:57:85:b8:cf:79:75:70:1a:54:41:
        ef:67:69:59:3e:14:cf:9f:c8:7d:72:4d:8f:4f:ac:1e:10:77:
        2e:4d:d9:95:10:35:33:d6:fb:fc:94:7b:b9:f5:fc:d7:65:b0:
        3a:8c:07:51:d7:1f:f4:1e:fc:15:d0:0d:b2:de:e5:be:b1:19:
        47:d4:a5:eb:8c:34:ea:17:a7:f6:85:c9:d0:3b:bf:03:cc:70:
        41:9b:31:73:b6:55:b5:36:17:49:38:1b:11:64:6e:bd:e5:8e:
        6b:ac:4e:6b:8f:6a:a1:f4:32:ab:12:3b:c1:3e:d6:70:a0:1d:
        35:c9
-----BEGIN CERTIFICATE-----
MIIB/DCCAWWgAwIBAgIBAzANBgkqhkiG9w0BAQUFADAqMRswGQYDVQQDDBJoeDUw
OSBUZXN0IFJvb3QgQ0ExCzAJBgNVBAYTAlNFMB4XDTA2MTIwNzIzNDA0OFoXDTE2
MTIwNDIzNDA0OFowIzELMAkGA1UEBhMCU0UxFDASBgNVBAMMC1Jldm9rZSBjZXJ0
MIGfMA0GCSqGSIb3DQEBAQUAA4GNADCBiQKBgQDEq4XKIazPNPGZmyjWLObjgUZG
yaMbdYWTM7xL274slog0+PaG5fO+yRkk38PpPYtahuwdpztF8rg1Raq4FR4oj+3Q
sCpwLRNxFbmyA/RqHxsXuVLSCUKO98trPptDrTlhrOqOWGR6MZg7GZXhN2h/qUeS
1D0nR9/Wmw5QfaNNqwIDAQABozkwNzAJBgNVHRMEAjAAMAsGA1UdDwQEAwIF4DAd
BgNVHQ4EFgQUDXnN0CYKvwlD8mtjiLapKR0Lf5owDQYJKoZIhvcNAQEFBQADgYEA
D6MrX7AhjHNXhbjPeXVwGlRB72dpWT4Uz5/IfXJNj0+sHhB3Lk3ZlRA1M9b7/JR7
ufX812WwOowHUdcf9B78FdANst7lvrEZR9Sl64w06hen9oXJ0Du/A8xwQZsxc7ZV
tTYXSTgbEWRuveWOa6xOa49qofQyqxI7wT7WcKAdNck=
-----END CERTIFICATE-----
