Certificate:
    Data:
        Version: 3 (0x2)
        Serial Number: 3 (0x3)
        Signature Algorithm: sha1WithRSAEncryption
        Issuer: CN=hx509 Test Root CA, C=SE
        Validity
            Not Before: Apr 29 14:47:03 2006 GMT
            Not After : Apr 26 14:47:03 2016 GMT
        Subject: C=SE, CN=Revoke cert
        Subject Public Key Info:
            Public Key Algorithm: rsaEncryption
            RSA Public Key: (1024 bit)
                Modulus (1024 bit):
                    00:fa:d0:5c:de:7d:ed:b7:30:5a:bb:17:d3:7c:f1:
                    be:e4:51:a7:30:e8:13:13:51:5c:41:09:f3:55:9a:
                    b6:70:4a:63:6d:a6:e9:5f:cb:72:71:82:e3:62:30:
                    37:1d:69:c9:ef:2a:13:5b:b8:e7:24:40:41:b4:eb:
                    c9:df:7e:1d:33:d6:15:76:f3:ac:21:fe:52:ab:bb:
                    2f:4c:f6:b6:72:b0:a0:c8:eb:57:16:03:b4:6f:8f:
                    4f:58:6f:29:8b:54:cc:bc:9b:08:11:2f:1a:3b:dc:
                    80:56:ce:b4:a7:7a:87:7d:52:5b:75:e8:f9:f1:a2:
                    4b:f8:a2:41:dc:b6:f3:11:a7
                Exponent: 65537 (0x10001)
        X509v3 extensions:
            X509v3 Basic Constraints: 
                CA:FALSE
            X509v3 Key Usage: 
                Digital Signature, Non Repudiation, Key Encipherment
            X509v3 Subject Key Identifier: 
                D4:19:CE:76:E7:A9:1B:62:13:F6:A8:73:7D:9A:81:CD:4A:C0:0A:2E
    Signature Algorithm: sha1WithRSAEncryption
        96:4f:5f:b8:a7:20:b9:07:bb:e7:dc:5d:db:69:6e:37:dc:8a:
        b2:b3:6a:d8:fa:e5:1e:a0:c0:2d:32:cd:41:1b:2b:c8:24:97:
        b4:08:84:20:cc:7e:bb:66:5f:7b:2f:be:61:9d:0d:8e:99:f8:
        57:20:58:b2:09:a4:89:2e:2d:10:fe:1e:13:53:4d:d6:42:f5:
        8d:15:9c:25:1f:58:3d:50:c8:06:b5:dd:bd:35:b3:e6:c1:db:
        25:a1:53:4c:7d:4e:7c:15:35:f3:b9:4f:0c:f0:c6:15:6e:87:
        c9:1b:d9:56:a3:66:b8:f7:a5:6c:d3:fd:f8:fa:a1:21:a6:f6:
        6f:06
-----BEGIN CERTIFICATE-----
MIIB/DCCAWWgAwIBAgIBAzANBgkqhkiG9w0BAQUFADAqMRswGQYDVQQDDBJoeDUw
OSBUZXN0IFJvb3QgQ0ExCzAJBgNVBAYTAlNFMB4XDTA2MDQyOTE0NDcwM1oXDTE2
MDQyNjE0NDcwM1owIzELMAkGA1UEBhMCU0UxFDASBgNVBAMMC1Jldm9rZSBjZXJ0
MIGfMA0GCSqGSIb3DQEBAQUAA4GNADCBiQKBgQD60Fzefe23MFq7F9N88b7kUacw
6BMTUVxBCfNVmrZwSmNtpulfy3JxguNiMDcdacnvKhNbuOckQEG068nffh0z1hV2
86wh/lKruy9M9rZysKDI61cWA7Rvj09YbymLVMy8mwgRLxo73IBWzrSneod9Ult1
6Pnxokv4okHctvMRpwIDAQABozkwNzAJBgNVHRMEAjAAMAsGA1UdDwQEAwIF4DAd
BgNVHQ4EFgQU1BnOduepG2IT9qhzfZqBzUrACi4wDQYJKoZIhvcNAQEFBQADgYEA
lk9fuKcguQe759xd22luN9yKsrNq2PrlHqDALTLNQRsryCSXtAiEIMx+u2Zfey++
YZ0Njpn4VyBYsgmkiS4tEP4eE1NN1kL1jRWcJR9YPVDIBrXdvTWz5sHbJaFTTH1O
fBU187lPDPDGFW6HyRvZVqNmuPelbNP9+PqhIab2bwY=
-----END CERTIFICATE-----
