Certificate:
    Data:
        Version: 3 (0x2)
        Serial Number: 3 (0x3)
        Signature Algorithm: sha1WithRSAEncryption
        Issuer: CN=hx509 Test Root CA, C=SE
        Validity
            Not Before: Apr 26 16:09:41 2006 GMT
            Not After : Apr 23 16:09:41 2016 GMT
        Subject: C=SE, CN=Revoke cert
        Subject Public Key Info:
            Public Key Algorithm: rsaEncryption
            RSA Public Key: (1024 bit)
                Modulus (1024 bit):
                    00:c1:7c:59:e2:1a:0f:9e:d2:49:01:12:2f:76:03:
                    52:92:4b:f3:f5:cb:e3:6c:57:78:d6:39:13:ec:3d:
                    1b:57:0a:d3:3a:1b:b6:20:a6:c3:d5:84:48:7e:7e:
                    70:d0:dc:fa:31:64:94:95:80:83:93:5a:aa:4e:a1:
                    b5:02:54:1d:f8:fa:00:df:7a:15:ec:95:ba:ad:28:
                    42:f2:3e:03:1e:66:5f:e4:ad:ee:48:3d:7b:c2:4c:
                    03:a7:4f:19:1a:aa:cb:b8:a8:4f:64:54:d5:aa:48:
                    d9:c9:f9:93:c1:14:bd:21:76:c0:e2:59:30:21:3e:
                    f2:25:ce:89:53:31:16:17:0b
                Exponent: 65537 (0x10001)
        X509v3 extensions:
            X509v3 Basic Constraints: 
                CA:FALSE
            X509v3 Key Usage: 
                Digital Signature, Non Repudiation, Key Encipherment
            X509v3 Subject Key Identifier: 
                30:55:7F:81:20:18:DE:88:13:2B:50:64:39:CA:67:94:84:DE:D1:36
    Signature Algorithm: sha1WithRSAEncryption
        0c:d1:82:84:3a:b7:7f:41:6d:51:93:b9:f5:94:f9:b4:fb:45:
        1e:06:60:cd:f1:ae:75:6d:e1:61:f9:9a:1a:48:71:ad:2f:e7:
        12:62:4b:b8:08:e1:a4:59:7d:1b:ff:37:02:04:38:fc:1a:bd:
        ed:cc:73:3f:d4:b7:06:7b:db:ac:b1:c2:d4:ab:d3:ba:a2:72:
        72:d2:77:d7:0e:e4:17:80:6b:cd:65:91:13:8b:ad:3e:c8:2d:
        4d:7b:b8:70:b8:6b:5a:29:0b:ea:10:69:9b:df:cc:ee:86:3c:
        93:46:21:21:f4:41:01:6b:7d:cd:31:fa:0d:9a:78:89:cc:49:
        f3:91
-----BEGIN CERTIFICATE-----
MIIB/DCCAWWgAwIBAgIBAzANBgkqhkiG9w0BAQUFADAqMRswGQYDVQQDDBJoeDUw
OSBUZXN0IFJvb3QgQ0ExCzAJBgNVBAYTAlNFMB4XDTA2MDQyNjE2MDk0MVoXDTE2
MDQyMzE2MDk0MVowIzELMAkGA1UEBhMCU0UxFDASBgNVBAMMC1Jldm9rZSBjZXJ0
MIGfMA0GCSqGSIb3DQEBAQUAA4GNADCBiQKBgQDBfFniGg+e0kkBEi92A1KSS/P1
y+NsV3jWORPsPRtXCtM6G7YgpsPVhEh+fnDQ3PoxZJSVgIOTWqpOobUCVB34+gDf
ehXslbqtKELyPgMeZl/kre5IPXvCTAOnTxkaqsu4qE9kVNWqSNnJ+ZPBFL0hdsDi
WTAhPvIlzolTMRYXCwIDAQABozkwNzAJBgNVHRMEAjAAMAsGA1UdDwQEAwIF4DAd
BgNVHQ4EFgQUMFV/gSAY3ogTK1BkOcpnlITe0TYwDQYJKoZIhvcNAQEFBQADgYEA
DNGChDq3f0FtUZO59ZT5tPtFHgZgzfGudW3hYfmaGkhxrS/nEmJLuAjhpFl9G/83
AgQ4/Bq97cxzP9S3BnvbrLHC1KvTuqJyctJ31w7kF4BrzWWRE4utPsgtTXu4cLhr
WikL6hBpm9/M7oY8k0YhIfRBAWt9zTH6DZp4icxJ85E=
-----END CERTIFICATE-----
