Certificate:
    Data:
        Version: 3 (0x2)
        Serial Number: 3 (0x3)
        Signature Algorithm: sha1WithRSAEncryption
        Issuer: CN=hx509 Test Root CA, C=SE
        Validity
            Not Before: Feb  7 10:55:20 2009 GMT
            Not After : Feb  5 10:55:20 2019 GMT
        Subject: C=SE, CN=Revoke cert
        Subject Public Key Info:
            Public Key Algorithm: rsaEncryption
            RSA Public Key: (1024 bit)
                Modulus (1024 bit):
                    00:99:78:0e:db:97:6a:c6:8c:01:89:45:d0:b4:74:
                    dc:76:52:76:45:db:56:0d:8b:42:b0:10:18:13:38:
                    c2:ed:ac:d9:53:04:34:eb:f4:b0:6c:bd:aa:b5:9c:
                    3f:7c:88:34:0f:6d:cf:f4:d9:b7:ed:a3:9e:bd:15:
                    96:23:cc:84:60:60:f3:30:13:1c:b4:37:a9:e2:8f:
                    dd:5f:a1:c7:ae:a7:ea:63:16:92:98:fe:e0:0a:90:
                    25:54:21:c8:16:0c:f0:82:1a:d9:6d:e3:74:60:79:
                    83:74:42:2d:1d:ee:7b:b4:fc:54:ec:a4:fb:50:6f:
                    15:ce:b5:ab:02:a1:22:e5:11
                Exponent: 65537 (0x10001)
        X509v3 extensions:
            X509v3 Basic Constraints: 
                CA:FALSE
            X509v3 Key Usage: 
                Digital Signature, Non Repudiation, Key Encipherment
            X509v3 Subject Key Identifier: 
                48:6A:4F:EC:AB:D4:AC:1E:F7:93:E7:06:8E:53:2F:D4:6F:FA:09:9A
    Signature Algorithm: sha1WithRSAEncryption
        08:42:f3:c2:40:f4:0f:f8:32:09:76:f1:f9:55:63:0c:11:75:
        1c:9f:f1:34:05:f3:28:74:fe:aa:5a:65:c9:7c:7a:79:d7:b6:
        f5:9f:9e:23:46:40:24:10:a1:2b:88:f3:ec:59:1a:13:c3:c1:
        84:0f:66:cb:6d:bb:37:fd:e5:6c:e5:f8:bc:b2:cb:39:c2:c1:
        07:eb:ae:ca:00:3f:88:1b:6b:a1:89:a1:d3:72:59:2c:e0:53:
        78:f8:bb:c0:b6:51:57:3b:a8:4f:cb:97:f8:ee:dc:8d:9b:08:
        a6:ad:66:77:8c:ad:9e:92:fd:f3:65:4a:66:10:a7:6d:03:94:
        c5:72
-----BEGIN CERTIFICATE-----
MIIB/DCCAWWgAwIBAgIBAzANBgkqhkiG9w0BAQUFADAqMRswGQYDVQQDDBJoeDUw
OSBUZXN0IFJvb3QgQ0ExCzAJBgNVBAYTAlNFMB4XDTA5MDIwNzEwNTUyMFoXDTE5
MDIwNTEwNTUyMFowIzELMAkGA1UEBhMCU0UxFDASBgNVBAMMC1Jldm9rZSBjZXJ0
MIGfMA0GCSqGSIb3DQEBAQUAA4GNADCBiQKBgQCZeA7bl2rGjAGJRdC0dNx2UnZF
21YNi0KwEBgTOMLtrNlTBDTr9LBsvaq1nD98iDQPbc/02bfto569FZYjzIRgYPMw
Exy0N6nij91foceup+pjFpKY/uAKkCVUIcgWDPCCGtlt43RgeYN0Qi0d7nu0/FTs
pPtQbxXOtasCoSLlEQIDAQABozkwNzAJBgNVHRMEAjAAMAsGA1UdDwQEAwIF4DAd
BgNVHQ4EFgQUSGpP7KvUrB73k+cGjlMv1G/6CZowDQYJKoZIhvcNAQEFBQADgYEA
CELzwkD0D/gyCXbx+VVjDBF1HJ/xNAXzKHT+qlplyXx6ede29Z+eI0ZAJBChK4jz
7FkaE8PBhA9my227N/3lbOX4vLLLOcLBB+uuygA/iBtroYmh03JZLOBTePi7wLZR
VzuoT8uX+O7cjZsIpq1md4ytnpL982VKZhCnbQOUxXI=
-----END CERTIFICATE-----
