Certificate:
    Data:
        Version: 3 (0x2)
        Serial Number: 3 (0x3)
        Signature Algorithm: sha1WithRSAEncryption
        Issuer: CN=hx509 Test Root CA, C=SE
        Validity
            Not Before: Apr 13 21:48:01 2009 GMT
            Not After : Apr 11 21:48:01 2019 GMT
        Subject: C=SE, CN=Revoke cert
        Subject Public Key Info:
            Public Key Algorithm: rsaEncryption
            RSA Public Key: (1024 bit)
                Modulus (1024 bit):
                    00:b1:c4:3b:0a:bb:c6:09:cc:70:17:ad:40:fa:81:
                    3f:a6:10:74:14:d7:72:e8:99:03:49:c4:bb:f2:0a:
                    94:da:f5:42:7c:33:6a:f6:d4:fb:ce:64:cd:9b:08:
                    f5:76:4f:ee:24:7e:58:c4:b4:4a:e9:8f:6c:b2:8c:
                    82:42:06:3e:c6:a3:bc:fb:96:3f:7f:ce:cb:15:79:
                    46:38:35:df:0c:2b:28:f3:1c:83:4f:0e:84:16:ea:
                    20:07:c6:bc:29:98:33:d8:a9:09:3b:18:33:4a:6e:
                    8e:6c:bd:86:f4:35:97:30:ae:fe:6f:2e:dd:c3:4b:
                    a7:9a:d8:32:41:c9:e3:46:55
                Exponent: 65537 (0x10001)
        X509v3 extensions:
            X509v3 Basic Constraints: 
                CA:FALSE
            X509v3 Key Usage: 
                Digital Signature, Non Repudiation, Key Encipherment
            X509v3 Subject Key Identifier: 
                6E:3C:ED:E9:4B:20:CE:50:64:4E:30:0A:3D:33:35:13:0E:B5:7E:A0
    Signature Algorithm: sha1WithRSAEncryption
        10:5a:65:89:e9:2b:3e:44:ad:8f:73:d3:f0:a1:e1:15:0e:c5:
        b9:27:5f:e7:9c:b4:73:10:ad:e9:9c:e3:7a:bd:f3:2a:bd:0c:
        c9:d6:c3:39:41:f9:16:ce:eb:61:77:3a:9d:f7:a0:20:ef:89:
        a5:50:3e:01:df:1a:86:80:3e:f2:5f:d2:b3:10:5e:1f:28:b6:
        3f:d8:34:41:0c:bd:cb:fe:d9:63:46:4e:5a:23:d6:3c:83:eb:
        6d:22:25:bc:09:20:b8:1f:08:b9:f9:9a:a4:e5:1d:39:b4:79:
        89:e5:c6:34:26:2b:9a:2e:cf:3d:66:d3:c8:ee:bf:f4:8e:03:
        bf:d1
-----BEGIN CERTIFICATE-----
MIIB/DCCAWWgAwIBAgIBAzANBgkqhkiG9w0BAQUFADAqMRswGQYDVQQDDBJoeDUw
OSBUZXN0IFJvb3QgQ0ExCzAJBgNVBAYTAlNFMB4XDTA5MDQxMzIxNDgwMVoXDTE5
MDQxMTIxNDgwMVowIzELMAkGA1UEBhMCU0UxFDASBgNVBAMMC1Jldm9rZSBjZXJ0
MIGfMA0GCSqGSIb3DQEBAQUAA4GNADCBiQKBgQCxxDsKu8YJzHAXrUD6gT+mEHQU
13LomQNJxLvyCpTa9UJ8M2r21PvOZM2bCPV2T+4kfljEtErpj2yyjIJCBj7Go7z7
lj9/zssVeUY4Nd8MKyjzHINPDoQW6iAHxrwpmDPYqQk7GDNKbo5svYb0NZcwrv5v
Lt3DS6ea2DJByeNGVQIDAQABozkwNzAJBgNVHRMEAjAAMAsGA1UdDwQEAwIF4DAd
BgNVHQ4EFgQUbjzt6UsgzlBkTjAKPTM1Ew61fqAwDQYJKoZIhvcNAQEFBQADgYEA
EFpliekrPkStj3PT8KHhFQ7FuSdf55y0cxCt6Zzjer3zKr0MydbDOUH5Fs7rYXc6
nfegIO+JpVA+Ad8ahoA+8l/SsxBeHyi2P9g0QQy9y/7ZY0ZOWiPWPIPrbSIlvAkg
uB8IufmapOUdObR5ieXGNCYrmi7PPWbTyO6/9I4Dv9E=
-----END CERTIFICATE-----
