Certificate:
    Data:
        Version: 3 (0x2)
        Serial Number: 3 (0x3)
        Signature Algorithm: sha1WithRSAEncryption
        Issuer: CN=hx509 Test Root CA, C=SE
        Validity
            Not Before: Nov 13 05:47:13 2006 GMT
            Not After : Nov 10 05:47:13 2016 GMT
        Subject: C=SE, CN=Revoke cert
        Subject Public Key Info:
            Public Key Algorithm: rsaEncryption
            RSA Public Key: (1024 bit)
                Modulus (1024 bit):
                    00:e5:ec:ec:0f:95:ea:64:b1:9a:6e:ff:3c:b1:96:
                    37:8e:13:0b:72:cc:3c:11:b9:98:3c:ce:2e:5a:75:
                    b3:48:5e:dd:36:a4:0b:ed:18:74:4c:5e:bf:ae:a2:
                    bc:c4:31:ea:11:d5:50:6e:9e:76:ed:40:5d:32:01:
                    db:bc:0f:61:0f:00:63:2e:82:a3:40:cc:20:80:48:
                    63:e8:26:c0:64:ab:04:f3:5a:4c:85:c9:8f:b3:c0:
                    f8:d8:05:c6:16:69:a3:24:94:5c:94:53:be:63:7c:
                    b2:be:28:5e:04:a6:2d:5a:16:40:6e:4a:23:af:37:
                    36:a2:91:12:a2:1b:54:e2:c7
                Exponent: 65537 (0x10001)
        X509v3 extensions:
            X509v3 Basic Constraints: 
                CA:FALSE
            X509v3 Key Usage: 
                Digital Signature, Non Repudiation, Key Encipherment
            X509v3 Subject Key Identifier: 
                7C:7B:A2:13:8F:BA:93:DF:21:B5:EB:52:A8:F1:B8:18:FA:14:22:A6
    Signature Algorithm: sha1WithRSAEncryption
        ae:ed:ce:b1:bb:dd:98:2f:60:cd:0e:cc:67:57:3c:7d:9d:17:
        67:45:47:0d:99:2d:72:10:0d:46:a7:2a:6d:c2:e0:ef:7a:23:
        93:46:08:75:47:c7:24:86:97:08:f4:35:1c:e0:5c:04:a3:ba:
        cc:7d:ee:38:ce:97:f3:a3:40:50:25:0a:9e:4e:cb:a9:23:8c:
        4e:01:c0:62:b1:8a:9f:fe:d2:55:ca:d2:c9:07:2c:9c:a0:7a:
        9b:06:45:78:c7:9c:5e:ec:61:55:0b:ba:f6:bc:80:56:4f:f6:
        e2:32:15:9d:51:2d:60:73:b1:96:2a:48:44:8d:c7:d6:80:90:
        f1:a2
-----BEGIN CERTIFICATE-----
MIIB/DCCAWWgAwIBAgIBAzANBgkqhkiG9w0BAQUFADAqMRswGQYDVQQDDBJoeDUw
OSBUZXN0IFJvb3QgQ0ExCzAJBgNVBAYTAlNFMB4XDTA2MTExMzA1NDcxM1oXDTE2
MTExMDA1NDcxM1owIzELMAkGA1UEBhMCU0UxFDASBgNVBAMMC1Jldm9rZSBjZXJ0
MIGfMA0GCSqGSIb3DQEBAQUAA4GNADCBiQKBgQDl7OwPlepksZpu/zyxljeOEwty
zDwRuZg8zi5adbNIXt02pAvtGHRMXr+uorzEMeoR1VBunnbtQF0yAdu8D2EPAGMu
gqNAzCCASGPoJsBkqwTzWkyFyY+zwPjYBcYWaaMklFyUU75jfLK+KF4Epi1aFkBu
SiOvNzaikRKiG1TixwIDAQABozkwNzAJBgNVHRMEAjAAMAsGA1UdDwQEAwIF4DAd
BgNVHQ4EFgQUfHuiE4+6k98htetSqPG4GPoUIqYwDQYJKoZIhvcNAQEFBQADgYEA
ru3OsbvdmC9gzQ7MZ1c8fZ0XZ0VHDZktchANRqcqbcLg73ojk0YIdUfHJIaXCPQ1
HOBcBKO6zH3uOM6X86NAUCUKnk7LqSOMTgHAYrGKn/7SVcrSyQcsnKB6mwZFeMec
XuxhVQu69ryAVk/24jIVnVEtYHOxlipIRI3H1oCQ8aI=
-----END CERTIFICATE-----
