Certificate:
    Data:
        Version: 3 (0x2)
        Serial Number: 3 (0x3)
        Signature Algorithm: sha1WithRSAEncryption
        Issuer: CN=hx509 Test Root CA, C=SE
        Validity
            Not Before: Nov 23 17:37:07 2006 GMT
            Not After : Nov 20 17:37:07 2016 GMT
        Subject: C=SE, CN=Revoke cert
        Subject Public Key Info:
            Public Key Algorithm: rsaEncryption
            RSA Public Key: (1024 bit)
                Modulus (1024 bit):
                    00:a4:68:29:f7:18:7f:a8:56:41:a9:31:38:ee:50:
                    6f:e4:f6:9f:bf:31:73:be:bc:4f:3e:f9:34:96:c0:
                    59:66:a5:68:57:06:97:c8:93:7c:8b:02:6c:e2:df:
                    94:0b:0c:42:78:f0:f1:b3:8a:d1:f6:19:4b:13:a4:
                    2b:6a:0d:12:9e:fc:c4:67:29:33:b8:bc:23:7b:81:
                    6e:9f:74:14:05:fe:8c:9a:51:5a:6e:78:10:6f:79:
                    c4:74:9b:f0:3d:79:77:31:5f:25:6a:31:84:ad:4a:
                    a4:cd:d9:6d:44:0a:5d:a6:0e:cc:c4:65:8f:3b:9e:
                    3a:63:5d:ae:ed:55:c7:f4:55
                Exponent: 65537 (0x10001)
        X509v3 extensions:
            X509v3 Basic Constraints: 
                CA:FALSE
            X509v3 Key Usage: 
                Digital Signature, Non Repudiation, Key Encipherment
            X509v3 Subject Key Identifier: 
                B0:EB:04:C6:63:97:6F:19:A5:43:46:9F:B3:07:90:03:CB:20:A8:D4
    Signature Algorithm: sha1WithRSAEncryption
        9a:a5:95:21:f8:75:6b:ad:da:bd:b8:ce:df:ce:78:04:15:8d:
        e7:d2:cb:8a:4e:76:38:ab:52:91:7c:c8:76:37:aa:1a:55:70:
        4c:b6:21:92:93:fe:dc:98:ee:7c:b4:c8:7d:59:77:e7:6e:1a:
        01:b3:fe:89:e1:8e:b6:cd:aa:08:ee:09:12:bc:39:fe:17:94:
        62:86:4c:41:77:cd:32:ca:8a:56:1a:9b:98:18:02:5c:f4:7a:
        2e:7c:8d:05:af:b0:48:e0:37:97:ad:59:8b:45:4d:b9:67:2a:
        80:c2:ff:9c:4f:c3:a9:76:81:b2:c8:48:90:23:1c:9b:44:a6:
        e6:69
-----BEGIN CERTIFICATE-----
MIIB/DCCAWWgAwIBAgIBAzANBgkqhkiG9w0BAQUFADAqMRswGQYDVQQDDBJoeDUw
OSBUZXN0IFJvb3QgQ0ExCzAJBgNVBAYTAlNFMB4XDTA2MTEyMzE3MzcwN1oXDTE2
MTEyMDE3MzcwN1owIzELMAkGA1UEBhMCU0UxFDASBgNVBAMMC1Jldm9rZSBjZXJ0
MIGfMA0GCSqGSIb3DQEBAQUAA4GNADCBiQKBgQCkaCn3GH+oVkGpMTjuUG/k9p+/
MXO+vE8++TSWwFlmpWhXBpfIk3yLAmzi35QLDEJ48PGzitH2GUsTpCtqDRKe/MRn
KTO4vCN7gW6fdBQF/oyaUVpueBBvecR0m/A9eXcxXyVqMYStSqTN2W1ECl2mDszE
ZY87njpjXa7tVcf0VQIDAQABozkwNzAJBgNVHRMEAjAAMAsGA1UdDwQEAwIF4DAd
BgNVHQ4EFgQUsOsExmOXbxmlQ0afsweQA8sgqNQwDQYJKoZIhvcNAQEFBQADgYEA
mqWVIfh1a63avbjO3854BBWN59LLik52OKtSkXzIdjeqGlVwTLYhkpP+3JjufLTI
fVl3524aAbP+ieGOts2qCO4JErw5/heUYoZMQXfNMsqKVhqbmBgCXPR6LnyNBa+w
SOA3l61Zi0VNuWcqgML/nE/DqXaBsshIkCMcm0Sm5mk=
-----END CERTIFICATE-----
