Certificate:
    Data:
        Version: 3 (0x2)
        Serial Number: 3 (0x3)
        Signature Algorithm: sha1WithRSAEncryption
        Issuer: CN=hx509 Test Root CA, C=SE
        Validity
            Not Before: Nov 13 08:09:53 2006 GMT
            Not After : Nov 10 08:09:53 2016 GMT
        Subject: C=SE, CN=Revoke cert
        Subject Public Key Info:
            Public Key Algorithm: rsaEncryption
            RSA Public Key: (1024 bit)
                Modulus (1024 bit):
                    00:b1:e1:ce:ec:67:56:b2:3d:a9:02:70:c3:cd:be:
                    46:8d:59:5d:d2:ec:8a:b6:80:83:26:ee:7d:b3:8e:
                    31:70:75:2e:6c:c4:41:8b:d3:b1:e3:48:ca:65:f8:
                    c6:d2:93:6c:52:43:09:ec:4f:2e:0a:02:f1:6a:c4:
                    5e:95:2b:2d:02:77:57:c0:67:6d:e6:d2:20:7b:4f:
                    a9:04:39:f9:29:ce:40:59:94:f6:20:8b:61:40:8e:
                    67:08:d0:68:e0:92:ed:2d:01:2a:c5:80:8e:b0:3b:
                    8e:40:a2:78:7a:74:33:ad:51:65:80:a3:a7:13:b4:
                    05:1e:e8:98:63:1e:49:ad:69
                Exponent: 65537 (0x10001)
        X509v3 extensions:
            X509v3 Basic Constraints: 
                CA:FALSE
            X509v3 Key Usage: 
                Digital Signature, Non Repudiation, Key Encipherment
            X509v3 Subject Key Identifier: 
                71:3E:6A:30:36:4F:25:2D:56:85:A1:78:AA:23:60:B2:F8:AC:5C:2B
    Signature Algorithm: sha1WithRSAEncryption
        99:0c:e6:2d:06:a1:22:4d:7d:5c:5d:02:27:35:2f:f0:6f:74:
        83:b9:54:dd:d1:02:80:ce:cb:cb:46:7a:87:0c:3a:e8:a3:37:
        3b:c3:3c:cd:55:06:7c:2a:65:9f:17:69:23:bb:98:43:77:74:
        9d:b0:3d:b6:9b:47:2f:a9:cf:c6:cd:08:97:3f:a7:c2:c4:92:
        99:1a:4a:f8:65:9e:81:6e:0a:e5:d1:0c:39:5c:dc:6d:1d:83:
        f0:9c:32:89:b4:82:ee:aa:22:d3:6b:3d:e6:75:65:6d:f9:20:
        03:ae:7e:f2:3d:4d:f9:a7:3e:fa:0c:74:11:f9:d2:33:7c:39:
        09:b4
-----BEGIN CERTIFICATE-----
MIIB/DCCAWWgAwIBAgIBAzANBgkqhkiG9w0BAQUFADAqMRswGQYDVQQDDBJoeDUw
OSBUZXN0IFJvb3QgQ0ExCzAJBgNVBAYTAlNFMB4XDTA2MTExMzA4MDk1M1oXDTE2
MTExMDA4MDk1M1owIzELMAkGA1UEBhMCU0UxFDASBgNVBAMMC1Jldm9rZSBjZXJ0
MIGfMA0GCSqGSIb3DQEBAQUAA4GNADCBiQKBgQCx4c7sZ1ayPakCcMPNvkaNWV3S
7Iq2gIMm7n2zjjFwdS5sxEGL07HjSMpl+MbSk2xSQwnsTy4KAvFqxF6VKy0Cd1fA
Z23m0iB7T6kEOfkpzkBZlPYgi2FAjmcI0Gjgku0tASrFgI6wO45Aonh6dDOtUWWA
o6cTtAUe6JhjHkmtaQIDAQABozkwNzAJBgNVHRMEAjAAMAsGA1UdDwQEAwIF4DAd
BgNVHQ4EFgQUcT5qMDZPJS1WhaF4qiNgsvisXCswDQYJKoZIhvcNAQEFBQADgYEA
mQzmLQahIk19XF0CJzUv8G90g7lU3dECgM7Ly0Z6hww66KM3O8M8zVUGfCplnxdp
I7uYQ3d0nbA9tptHL6nPxs0Ilz+nwsSSmRpK+GWegW4K5dEMOVzcbR2D8JwyibSC
7qoi02s95nVlbfkgA65+8j1N+ac++gx0EfnSM3w5CbQ=
-----END CERTIFICATE-----
