Certificate:
    Data:
        Version: 3 (0x2)
        Serial Number: 3 (0x3)
        Signature Algorithm: sha1WithRSAEncryption
        Issuer: CN=hx509 Test Root CA, C=SE
        Validity
            Not Before: Apr 26 16:40:06 2006 GMT
            Not After : Apr 23 16:40:06 2016 GMT
        Subject: C=SE, CN=Revoke cert
        Subject Public Key Info:
            Public Key Algorithm: rsaEncryption
            RSA Public Key: (1024 bit)
                Modulus (1024 bit):
                    00:9a:50:10:44:2d:49:7f:fb:66:7a:71:6f:ba:83:
                    71:86:ae:96:09:0a:00:30:b4:88:64:3b:5e:b4:33:
                    c3:0e:db:f8:d1:e1:5e:39:c8:b2:21:78:00:a0:c3:
                    b3:9f:67:09:7a:11:c8:00:c6:fb:52:7b:c9:ad:9f:
                    fd:0d:b9:57:16:34:16:60:a9:35:8e:77:bd:66:0a:
                    21:41:b2:1c:09:d6:61:2c:40:8a:fe:30:4d:d9:13:
                    bb:d0:46:fd:45:7b:4d:8d:ef:87:81:9a:72:3d:e8:
                    00:da:87:1a:76:40:5d:c1:f2:15:c2:c3:f8:6d:04:
                    02:50:15:27:b0:9a:98:bf:67
                Exponent: 65537 (0x10001)
        X509v3 extensions:
            X509v3 Basic Constraints: 
                CA:FALSE
            X509v3 Key Usage: 
                Digital Signature, Non Repudiation, Key Encipherment
            X509v3 Subject Key Identifier: 
                CF:39:E8:0A:38:FB:7C:E0:5D:B2:06:91:E1:BC:20:20:52:07:B6:7B
    Signature Algorithm: sha1WithRSAEncryption
        79:92:4a:28:d7:32:6f:9f:d5:e8:b9:5a:1c:4f:14:d6:b5:2f:
        31:50:fc:70:07:17:c8:b1:8e:28:f2:14:17:40:62:ac:9a:53:
        66:0c:3d:e7:bc:45:2b:8f:33:e6:15:28:4d:d8:29:76:a9:93:
        cf:fb:2f:f1:1d:0a:d5:dc:e2:cd:fa:90:70:5b:9a:6c:86:d1:
        c8:82:83:4f:5d:ed:d1:61:8e:53:22:1c:0e:2f:21:c1:aa:13:
        5a:c3:56:8f:8d:a1:2e:8b:91:9b:27:f9:19:13:31:ab:2e:3d:
        ea:e7:ee:fb:61:30:ad:c6:fc:a6:9b:43:73:bc:86:48:69:3b:
        c4:6c
-----BEGIN CERTIFICATE-----
MIIB/DCCAWWgAwIBAgIBAzANBgkqhkiG9w0BAQUFADAqMRswGQYDVQQDDBJoeDUw
OSBUZXN0IFJvb3QgQ0ExCzAJBgNVBAYTAlNFMB4XDTA2MDQyNjE2NDAwNloXDTE2
MDQyMzE2NDAwNlowIzELMAkGA1UEBhMCU0UxFDASBgNVBAMMC1Jldm9rZSBjZXJ0
MIGfMA0GCSqGSIb3DQEBAQUAA4GNADCBiQKBgQCaUBBELUl/+2Z6cW+6g3GGrpYJ
CgAwtIhkO160M8MO2/jR4V45yLIheACgw7OfZwl6EcgAxvtSe8mtn/0NuVcWNBZg
qTWOd71mCiFBshwJ1mEsQIr+ME3ZE7vQRv1Fe02N74eBmnI96ADahxp2QF3B8hXC
w/htBAJQFSewmpi/ZwIDAQABozkwNzAJBgNVHRMEAjAAMAsGA1UdDwQEAwIF4DAd
BgNVHQ4EFgQUzznoCjj7fOBdsgaR4bwgIFIHtnswDQYJKoZIhvcNAQEFBQADgYEA
eZJKKNcyb5/V6LlaHE8U1rUvMVD8cAcXyLGOKPIUF0BirJpTZgw957xFK48z5hUo
TdgpdqmTz/sv8R0K1dzizfqQcFuabIbRyIKDT13t0WGOUyIcDi8hwaoTWsNWj42h
LouRmyf5GRMxqy496ufu+2Ewrcb8pptDc7yGSGk7xGw=
-----END CERTIFICATE-----
