Certificate:
    Data:
        Version: 3 (0x2)
        Serial Number: 3 (0x3)
        Signature Algorithm: sha1WithRSAEncryption
        Issuer: CN=hx509 Test Root CA, C=SE
        Validity
            Not Before: Apr 13 21:53:34 2009 GMT
            Not After : Apr 11 21:53:34 2019 GMT
        Subject: C=SE, CN=Revoke cert
        Subject Public Key Info:
            Public Key Algorithm: rsaEncryption
                Public-Key: (1024 bit)
                Modulus:
                    00:b5:f9:d4:8b:46:84:8e:c3:2f:19:0c:3e:1b:67:
                    90:a8:e4:5b:e9:2a:94:aa:2a:01:38:43:21:3c:ef:
                    b1:0f:95:5a:49:67:d3:26:71:06:85:c7:33:7f:39:
                    65:30:ac:8b:2d:be:c3:f6:25:3e:ab:3a:35:9a:2b:
                    bb:82:42:4c:8c:d7:4d:1a:7d:4c:9a:74:d7:01:37:
                    63:be:68:c3:4f:31:5a:94:60:5d:e4:7b:1c:dd:dc:
                    24:b7:82:1c:a1:78:8e:4e:fd:c4:12:60:b8:9c:59:
                    00:45:b3:86:da:9c:c1:1c:c3:3d:28:85:66:9b:2a:
                    bc:ad:ba:cd:c7:59:83:e9:09
                Exponent: 65537 (0x10001)
        X509v3 extensions:
            X509v3 Basic Constraints: 
                CA:FALSE
            X509v3 Key Usage: 
                Digital Signature, Non Repudiation, Key Encipherment
            X509v3 Subject Key Identifier: 
                F9:0F:F5:C8:C0:E7:DB:3B:2C:7F:E6:7F:20:C8:42:5C:D7:AD:8D:53
    Signature Algorithm: sha1WithRSAEncryption
        96:fa:b9:e0:bd:87:4c:61:e9:c3:6d:6c:a9:94:5d:1d:ae:85:
        4d:fa:22:75:1f:cc:d3:21:c1:5a:d5:19:ef:cb:27:b7:fc:a2:
        73:68:72:d8:78:b8:cd:b3:ac:32:b9:8d:da:15:3f:9f:26:e8:
        6e:cb:05:e8:a4:72:b1:55:df:1d:b0:69:94:15:e1:38:68:26:
        58:25:da:b9:a1:6f:7d:a8:0b:67:8f:b4:b3:8a:0d:92:b0:0a:
        cc:77:77:27:ca:43:bf:c3:4e:73:09:9f:b3:91:a7:06:95:0f:
        96:0e:78:7e:76:b8:80:52:07:5d:90:a3:3e:bf:10:b3:4e:0f:
        43:91
-----BEGIN CERTIFICATE-----
MIIB/DCCAWWgAwIBAgIBAzANBgkqhkiG9w0BAQUFADAqMRswGQYDVQQDDBJoeDUw
OSBUZXN0IFJvb3QgQ0ExCzAJBgNVBAYTAlNFMB4XDTA5MDQxMzIxNTMzNFoXDTE5
MDQxMTIxNTMzNFowIzELMAkGA1UEBhMCU0UxFDASBgNVBAMMC1Jldm9rZSBjZXJ0
MIGfMA0GCSqGSIb3DQEBAQUAA4GNADCBiQKBgQC1+dSLRoSOwy8ZDD4bZ5Co5Fvp
KpSqKgE4QyE877EPlVpJZ9MmcQaFxzN/OWUwrIstvsP2JT6rOjWaK7uCQkyM100a
fUyadNcBN2O+aMNPMVqUYF3kexzd3CS3ghyheI5O/cQSYLicWQBFs4banMEcwz0o
hWabKrytus3HWYPpCQIDAQABozkwNzAJBgNVHRMEAjAAMAsGA1UdDwQEAwIF4DAd
BgNVHQ4EFgQU+Q/1yMDn2zssf+Z/IMhCXNetjVMwDQYJKoZIhvcNAQEFBQADgYEA
lvq54L2HTGHpw21sqZRdHa6FTfoidR/M0yHBWtUZ78snt/yic2hy2Hi4zbOsMrmN
2hU/nybobssF6KRysVXfHbBplBXhOGgmWCXauaFvfagLZ4+0s4oNkrAKzHd3J8pD
v8NOcwmfs5GnBpUPlg54fna4gFIHXZCjPr8Qs04PQ5E=
-----END CERTIFICATE-----
