Certificate:
    Data:
        Version: 3 (0x2)
        Serial Number: 3 (0x3)
        Signature Algorithm: sha1WithRSAEncryption
        Issuer: CN=hx509 Test Root CA, C=SE
        Validity
            Not Before: Apr 13 20:42:52 2009 GMT
            Not After : Apr 11 20:42:52 2019 GMT
        Subject: C=SE, CN=Revoke cert
        Subject Public Key Info:
            Public Key Algorithm: rsaEncryption
                Public-Key: (1024 bit)
                Modulus:
                    00:d3:0c:e5:df:be:5f:59:40:dc:96:38:fd:7d:ac:
                    84:89:38:8a:4f:d3:60:c9:db:64:28:ee:9f:a0:fe:
                    6f:c7:6e:9b:dc:68:b4:7c:56:fa:ed:fe:6b:01:6c:
                    a0:4d:cd:7b:b5:88:64:87:35:9b:70:57:01:b7:04:
                    18:d8:ef:d2:06:38:f5:2b:aa:f9:7a:11:f9:95:27:
                    36:ce:8d:f2:3a:5c:d8:08:64:9d:d7:d4:9a:4f:ea:
                    39:45:b4:3b:c5:ae:4a:f6:ae:ca:5e:85:dc:72:e0:
                    43:68:01:2f:fd:6f:4a:e5:bc:62:c7:72:61:30:92:
                    57:12:85:4b:47:92:96:51:91
                Exponent: 65537 (0x10001)
        X509v3 extensions:
            X509v3 Basic Constraints: 
                CA:FALSE
            X509v3 Key Usage: 
                Digital Signature, Non Repudiation, Key Encipherment
            X509v3 Subject Key Identifier: 
                B2:82:8E:8E:74:BE:30:A7:24:AC:84:C9:A6:35:6C:9E:56:56:CD:61
    Signature Algorithm: sha1WithRSAEncryption
        4c:2c:77:82:5f:79:77:66:77:39:20:44:48:ab:ed:19:db:73:
        c4:ba:0b:33:fa:70:e5:1c:df:4d:9a:40:99:05:2c:e0:6b:1a:
        b0:fd:72:f0:36:da:c4:cd:b3:bb:19:8b:4e:9f:4f:2d:72:3f:
        83:0e:9d:37:2c:2e:c9:67:fb:99:37:40:4b:ac:57:a7:72:42:
        35:71:5b:4e:19:97:92:b4:36:71:53:c9:e1:3e:71:68:f3:18:
        5d:1a:ac:50:21:06:2c:a3:e6:10:2a:73:73:a5:60:49:c9:ff:
        4b:f6:85:6a:b6:75:cf:f8:5f:43:04:eb:df:eb:5d:10:c1:42:
        12:15
-----BEGIN CERTIFICATE-----
MIIB/DCCAWWgAwIBAgIBAzANBgkqhkiG9w0BAQUFADAqMRswGQYDVQQDDBJoeDUw
OSBUZXN0IFJvb3QgQ0ExCzAJBgNVBAYTAlNFMB4XDTA5MDQxMzIwNDI1MloXDTE5
MDQxMTIwNDI1MlowIzELMAkGA1UEBhMCU0UxFDASBgNVBAMMC1Jldm9rZSBjZXJ0
MIGfMA0GCSqGSIb3DQEBAQUAA4GNADCBiQKBgQDTDOXfvl9ZQNyWOP19rISJOIpP
02DJ22Qo7p+g/m/HbpvcaLR8Vvrt/msBbKBNzXu1iGSHNZtwVwG3BBjY79IGOPUr
qvl6EfmVJzbOjfI6XNgIZJ3X1JpP6jlFtDvFrkr2rspehdxy4ENoAS/9b0rlvGLH
cmEwklcShUtHkpZRkQIDAQABozkwNzAJBgNVHRMEAjAAMAsGA1UdDwQEAwIF4DAd
BgNVHQ4EFgQUsoKOjnS+MKckrITJpjVsnlZWzWEwDQYJKoZIhvcNAQEFBQADgYEA
TCx3gl95d2Z3OSBESKvtGdtzxLoLM/pw5RzfTZpAmQUs4GsasP1y8DbaxM2zuxmL
Tp9PLXI/gw6dNywuyWf7mTdAS6xXp3JCNXFbThmXkrQ2cVPJ4T5xaPMYXRqsUCEG
LKPmECpzc6VgScn/S/aFarZ1z/hfQwTr3+tdEMFCEhU=
-----END CERTIFICATE-----
