Certificate:
    Data:
        Version: 3 (0x2)
        Serial Number: 3 (0x3)
        Signature Algorithm: sha1WithRSAEncryption
        Issuer: CN=hx509 Test Root CA, C=SE
        Validity
            Not Before: Jul 19 13:43:32 2007 GMT
            Not After : Jul 16 13:43:32 2017 GMT
        Subject: C=SE, CN=Revoke cert
        Subject Public Key Info:
            Public Key Algorithm: rsaEncryption
            RSA Public Key: (1024 bit)
                Modulus (1024 bit):
                    00:a9:13:c3:8c:55:26:e3:0c:bd:7d:74:4f:89:14:
                    4b:e3:c0:34:a3:ae:d0:b7:b8:82:c8:8f:7f:3f:85:
                    bc:64:53:28:7f:61:84:1b:34:b8:41:b8:62:c1:f4:
                    68:52:4d:19:1f:66:62:60:81:77:0f:d7:42:00:4b:
                    ed:a2:70:e0:33:a3:f1:d6:17:4f:cd:f6:80:fb:a9:
                    f5:5a:56:7a:d3:eb:c7:80:91:a7:a8:17:ab:f2:1b:
                    cc:8a:1c:b1:42:29:65:82:34:75:59:9e:2a:92:f8:
                    25:f6:d4:67:b3:13:14:8d:06:fa:2c:5e:39:3e:2b:
                    87:7f:be:a9:22:59:f4:e5:21
                Exponent: 65537 (0x10001)
        X509v3 extensions:
            X509v3 Basic Constraints: 
                CA:FALSE
            X509v3 Key Usage: 
                Digital Signature, Non Repudiation, Key Encipherment
            X509v3 Subject Key Identifier: 
                92:70:26:1B:CB:FF:81:9E:2E:10:D0:60:95:74:D6:14:21:0F:75:DA
    Signature Algorithm: sha1WithRSAEncryption
        91:4c:2f:fb:91:63:93:3c:a8:12:d1:a1:db:16:1e:12:52:58:
        d5:95:8f:9d:ad:ac:70:d7:51:75:c3:c1:cb:ec:c8:02:0b:ae:
        77:25:ba:e6:64:30:75:51:1a:5a:29:24:b2:bc:f0:41:5f:65:
        51:14:22:1b:66:60:99:c1:8a:98:b9:d4:e5:39:81:41:f0:a2:
        44:c3:7f:67:e5:59:3a:29:15:d1:23:63:2f:d8:44:1f:35:5f:
        8e:36:db:06:5c:c6:02:7c:aa:36:4f:a4:15:e6:1d:78:b1:19:
        80:da:93:54:c1:ee:2b:47:be:f4:3a:a1:5e:15:55:e8:e5:e7:
        79:c4
-----BEGIN CERTIFICATE-----
MIIB/DCCAWWgAwIBAgIBAzANBgkqhkiG9w0BAQUFADAqMRswGQYDVQQDDBJoeDUw
OSBUZXN0IFJvb3QgQ0ExCzAJBgNVBAYTAlNFMB4XDTA3MDcxOTEzNDMzMloXDTE3
MDcxNjEzNDMzMlowIzELMAkGA1UEBhMCU0UxFDASBgNVBAMMC1Jldm9rZSBjZXJ0
MIGfMA0GCSqGSIb3DQEBAQUAA4GNADCBiQKBgQCpE8OMVSbjDL19dE+JFEvjwDSj
rtC3uILIj38/hbxkUyh/YYQbNLhBuGLB9GhSTRkfZmJggXcP10IAS+2icOAzo/HW
F0/N9oD7qfVaVnrT68eAkaeoF6vyG8yKHLFCKWWCNHVZniqS+CX21GezExSNBvos
Xjk+K4d/vqkiWfTlIQIDAQABozkwNzAJBgNVHRMEAjAAMAsGA1UdDwQEAwIF4DAd
BgNVHQ4EFgQUknAmG8v/gZ4uENBglXTWFCEPddowDQYJKoZIhvcNAQEFBQADgYEA
kUwv+5FjkzyoEtGh2xYeElJY1ZWPna2scNdRdcPBy+zIAguudyW65mQwdVEaWikk
srzwQV9lURQiG2ZgmcGKmLnU5TmBQfCiRMN/Z+VZOikV0SNjL9hEHzVfjjbbBlzG
AnyqNk+kFeYdeLEZgNqTVMHuK0e+9DqhXhVV6OXnecQ=
-----END CERTIFICATE-----
