Certificate:
    Data:
        Version: 3 (0x2)
        Serial Number: 8 (0x8)
        Signature Algorithm: sha1WithRSAEncryption
        Issuer: CN=hx509 Test Root CA, C=SE
        Validity
            Not Before: Nov 13 08:09:54 2006 GMT
            Not After : Nov 10 08:09:54 2016 GMT
        Subject: C=SE, CN=Sub CA
        Subject Public Key Info:
            Public Key Algorithm: rsaEncryption
            RSA Public Key: (1024 bit)
                Modulus (1024 bit):
                    00:c3:d7:16:2b:bb:04:1c:0f:0a:04:35:d6:5a:3b:
                    3d:ea:2d:ac:b3:f7:92:28:5e:88:7e:af:a0:e0:c6:
                    9c:2c:62:a4:3a:a5:c1:7d:f4:68:00:8f:4b:07:f5:
                    76:44:8f:3b:88:a3:72:27:15:aa:3e:d2:0d:49:01:
                    06:9b:9b:4b:39:76:5b:0d:41:d5:18:34:43:bb:aa:
                    05:38:4b:aa:d9:8f:7d:6a:11:9b:76:eb:07:57:54:
                    e6:77:2a:5f:09:7f:b6:8e:2a:e4:25:09:33:84:05:
                    9c:fa:8f:db:a4:7f:38:ea:c7:7e:70:7d:6f:85:52:
                    28:e0:66:93:74:97:81:33:83
                Exponent: 65537 (0x10001)
        X509v3 extensions:
            X509v3 Subject Key Identifier: 
                9C:36:D4:EE:FC:EE:11:E6:4F:F0:E3:1E:1C:6C:D0:C0:82:B9:90:C1
            X509v3 Authority Key Identifier: 
                keyid:34:80:0B:86:12:BF:63:35:CD:51:D0:E2:C1:5A:0D:48:E2:A6:BF:1E
                DirName:/CN=hx509 Test Root CA/C=SE
                serial:87:C0:38:E3:99:1D:10:85

            X509v3 Basic Constraints: 
                CA:TRUE
            X509v3 Key Usage: 
                Digital Signature, Non Repudiation, Key Encipherment, Certificate Sign, CRL Sign
    Signature Algorithm: sha1WithRSAEncryption
        93:41:36:85:28:bb:0b:4a:bc:bc:32:16:99:c7:2a:05:83:a3:
        a6:a9:cb:ae:c4:bb:ed:18:65:21:6b:78:b9:6a:f1:13:ef:0b:
        35:4c:fd:da:01:72:5d:46:41:25:48:64:3c:d1:d7:6d:d2:42:
        fc:cb:0e:54:7f:3c:df:d0:2e:6b:63:a9:54:67:62:7e:22:79:
        17:0d:03:8a:1e:54:d4:f9:39:69:c0:f0:8e:c7:6c:91:14:87:
        fb:a9:0e:9b:77:34:9d:28:fe:91:c7:78:68:32:47:5e:f5:f2:
        6b:8a:b5:d8:af:fc:f0:c7:2e:63:2e:f5:e7:67:eb:60:f0:1f:
        66:cf
-----BEGIN CERTIFICATE-----
MIICWDCCAcGgAwIBAgIBCDANBgkqhkiG9w0BAQUFADAqMRswGQYDVQQDDBJoeDUw
OSBUZXN0IFJvb3QgQ0ExCzAJBgNVBAYTAlNFMB4XDTA2MTExMzA4MDk1NFoXDTE2
MTExMDA4MDk1NFowHjELMAkGA1UEBhMCU0UxDzANBgNVBAMMBlN1YiBDQTCBnzAN
BgkqhkiG9w0BAQEFAAOBjQAwgYkCgYEAw9cWK7sEHA8KBDXWWjs96i2ss/eSKF6I
fq+g4MacLGKkOqXBffRoAI9LB/V2RI87iKNyJxWqPtINSQEGm5tLOXZbDUHVGDRD
u6oFOEuq2Y99ahGbdusHV1TmdypfCX+2jirkJQkzhAWc+o/bpH846sd+cH1vhVIo
4GaTdJeBM4MCAwEAAaOBmTCBljAdBgNVHQ4EFgQUnDbU7vzuEeZP8OMeHGzQwIK5
kMEwWgYDVR0jBFMwUYAUNIALhhK/YzXNUdDiwVoNSOKmvx6hLqQsMCoxGzAZBgNV
BAMMEmh4NTA5IFRlc3QgUm9vdCBDQTELMAkGA1UEBhMCU0WCCQCHwDjjmR0QhTAM
BgNVHRMEBTADAQH/MAsGA1UdDwQEAwIB5jANBgkqhkiG9w0BAQUFAAOBgQCTQTaF
KLsLSry8MhaZxyoFg6OmqcuuxLvtGGUha3i5avET7ws1TP3aAXJdRkElSGQ80ddt
0kL8yw5Ufzzf0C5rY6lUZ2J+InkXDQOKHlTU+TlpwPCOx2yRFIf7qQ6bdzSdKP6R
x3hoMkde9fJrirXYr/zwxy5jLvXnZ+tg8B9mzw==
-----END CERTIFICATE-----
