Certificate:
    Data:
        Version: 3 (0x2)
        Serial Number: 7 (0x7)
        Signature Algorithm: sha1WithRSAEncryption
        Issuer: C=SE, CN=Sub CA
        Validity
            Not Before: Dec  7 23:40:49 2006 GMT
            Not After : Dec  4 23:40:49 2016 GMT
        Subject: C=SE, CN=Test sub cert
        Subject Public Key Info:
            Public Key Algorithm: rsaEncryption
            RSA Public Key: (1024 bit)
                Modulus (1024 bit):
                    00:b7:31:fb:7c:de:c2:34:c6:08:a4:5c:60:d7:83:
                    29:99:3c:95:0b:33:32:0c:37:0e:f6:41:34:61:6d:
                    70:00:b7:ae:68:2a:1b:5e:6c:cc:a5:9d:1a:4a:5a:
                    a1:af:ed:06:c2:9a:9d:d5:f2:87:60:5a:fc:5e:b2:
                    68:9e:db:66:ac:e6:0b:9d:bd:04:c8:96:16:1c:93:
                    81:3b:ab:43:b7:46:9d:3f:d6:54:26:1b:0d:ed:a9:
                    e9:2f:6e:8a:de:19:75:47:8c:75:26:b6:ef:76:e9:
                    17:ff:22:96:26:96:9c:22:4d:e0:4c:40:47:57:4c:
                    34:c0:3b:b0:01:58:08:05:99
                Exponent: 65537 (0x10001)
        X509v3 extensions:
            X509v3 Basic Constraints: 
                CA:FALSE
            X509v3 Key Usage: 
                Digital Signature, Non Repudiation, Key Encipherment
            X509v3 Subject Key Identifier: 
                B7:29:A1:51:08:18:B8:07:BD:2D:68:E9:41:84:1C:7E:AF:C4:FA:78
    Signature Algorithm: sha1WithRSAEncryption
        37:fd:9d:1d:f6:e8:f7:05:a5:09:48:05:76:67:c3:49:e0:53:
        58:26:44:22:62:8a:cb:0c:b6:aa:4e:77:d4:92:41:d2:a2:12:
        d2:56:62:51:48:1f:e3:84:07:5e:2b:15:cc:7b:ba:16:a1:73:
        39:76:19:75:fb:94:1c:38:26:1c:00:78:e7:05:97:85:07:2b:
        06:7b:e9:c2:c4:f3:12:7a:de:97:70:29:58:50:02:2f:4d:e4:
        cb:e2:99:89:53:c2:82:ab:0d:1d:07:d9:47:38:75:2e:88:6d:
        60:36:75:dd:87:f4:f0:aa:b9:c9:c9:c9:d5:f1:7e:98:58:77:
        f8:11
-----BEGIN CERTIFICATE-----
MIIB8jCCAVugAwIBAgIBBzANBgkqhkiG9w0BAQUFADAeMQswCQYDVQQGEwJTRTEP
MA0GA1UEAwwGU3ViIENBMB4XDTA2MTIwNzIzNDA0OVoXDTE2MTIwNDIzNDA0OVow
JTELMAkGA1UEBhMCU0UxFjAUBgNVBAMMDVRlc3Qgc3ViIGNlcnQwgZ8wDQYJKoZI
hvcNAQEBBQADgY0AMIGJAoGBALcx+3zewjTGCKRcYNeDKZk8lQszMgw3DvZBNGFt
cAC3rmgqG15szKWdGkpaoa/tBsKandXyh2Ba/F6yaJ7bZqzmC529BMiWFhyTgTur
Q7dGnT/WVCYbDe2p6S9uit4ZdUeMdSa273bpF/8iliaWnCJN4ExAR1dMNMA7sAFY
CAWZAgMBAAGjOTA3MAkGA1UdEwQCMAAwCwYDVR0PBAQDAgXgMB0GA1UdDgQWBBS3
KaFRCBi4B70taOlBhBx+r8T6eDANBgkqhkiG9w0BAQUFAAOBgQA3/Z0d9uj3BaUJ
SAV2Z8NJ4FNYJkQiYorLDLaqTnfUkkHSohLSVmJRSB/jhAdeKxXMe7oWoXM5dhl1
+5QcOCYcAHjnBZeFBysGe+nCxPMSet6XcClYUAIvTeTL4pmJU8KCqw0dB9lHOHUu
iG1gNnXdh/TwqrnJycnV8X6YWHf4EQ==
-----END CERTIFICATE-----
