Certificate:
    Data:
        Version: 3 (0x2)
        Serial Number: 8 (0x8)
        Signature Algorithm: sha1WithRSAEncryption
        Issuer: CN=hx509 Test Root CA, C=SE
        Validity
            Not Before: Apr 29 14:47:06 2006 GMT
            Not After : Apr 26 14:47:06 2016 GMT
        Subject: C=SE, CN=Sub CA
        Subject Public Key Info:
            Public Key Algorithm: rsaEncryption
            RSA Public Key: (1024 bit)
                Modulus (1024 bit):
                    00:ac:b0:cc:7e:43:de:3e:3d:6b:c3:e0:ad:69:d7:
                    69:4d:32:0f:60:5a:de:a0:59:45:c8:13:dd:f7:b0:
                    88:89:c2:1d:59:6f:66:4b:fd:f9:22:92:d4:00:e8:
                    7c:02:0d:14:c7:11:98:a2:29:42:cc:21:97:09:1d:
                    58:12:ab:c7:bd:c8:f4:7e:ba:e5:01:2a:d3:0f:5e:
                    8a:94:64:ee:6a:1a:04:fc:05:ed:c6:0d:3a:d1:ca:
                    8a:c6:cf:f6:47:86:1d:36:a0:f8:6f:98:d5:fb:b6:
                    1e:1b:1f:37:40:f1:53:0b:d4:28:76:19:24:bd:2d:
                    ef:0c:1b:06:96:41:30:87:fd
                Exponent: 65537 (0x10001)
        X509v3 extensions:
            X509v3 Subject Key Identifier: 
                15:6C:F8:71:72:78:F3:5D:3E:AC:6B:3A:D8:93:1E:A1:B4:3B:85:87
            X509v3 Authority Key Identifier: 
                keyid:5B:A8:C8:E9:EB:74:2F:01:A3:EF:BE:A6:A0:90:B3:35:E1:D9:A3:DE
                DirName:/CN=hx509 Test Root CA/C=SE
                serial:A4:23:0F:3A:3F:1D:C2:D0

            X509v3 Basic Constraints: 
                CA:TRUE
            X509v3 Key Usage: 
                Digital Signature, Non Repudiation, Key Encipherment, Certificate Sign, CRL Sign
    Signature Algorithm: sha1WithRSAEncryption
        96:43:1f:a3:f0:1d:a2:57:87:86:d1:7b:43:12:77:9a:16:56:
        6b:f2:e9:aa:9e:85:95:d2:12:d7:6a:15:7f:be:e3:6b:55:53:
        28:83:02:d4:0a:02:d3:a5:b8:ea:93:3d:56:8b:1e:31:1d:05:
        e3:5a:b9:32:f2:50:d1:4a:d1:3a:2f:b7:a2:25:49:15:16:cd:
        9f:de:b0:1c:6e:e1:37:32:d0:4a:a2:21:40:c4:4c:74:88:ca:
        a9:76:e1:cf:53:7c:7b:88:25:23:89:3f:67:7e:56:f3:32:cb:
        34:9f:c7:90:4f:a8:95:2a:cc:11:d9:d1:b5:40:3e:a0:aa:77:
        4a:d4
-----BEGIN CERTIFICATE-----
MIICWDCCAcGgAwIBAgIBCDANBgkqhkiG9w0BAQUFADAqMRswGQYDVQQDDBJoeDUw
OSBUZXN0IFJvb3QgQ0ExCzAJBgNVBAYTAlNFMB4XDTA2MDQyOTE0NDcwNloXDTE2
MDQyNjE0NDcwNlowHjELMAkGA1UEBhMCU0UxDzANBgNVBAMMBlN1YiBDQTCBnzAN
BgkqhkiG9w0BAQEFAAOBjQAwgYkCgYEArLDMfkPePj1rw+CtaddpTTIPYFreoFlF
yBPd97CIicIdWW9mS/35IpLUAOh8Ag0UxxGYoilCzCGXCR1YEqvHvcj0frrlASrT
D16KlGTuahoE/AXtxg060cqKxs/2R4YdNqD4b5jV+7YeGx83QPFTC9QodhkkvS3v
DBsGlkEwh/0CAwEAAaOBmTCBljAdBgNVHQ4EFgQUFWz4cXJ4810+rGs62JMeobQ7
hYcwWgYDVR0jBFMwUYAUW6jI6et0LwGj776moJCzNeHZo96hLqQsMCoxGzAZBgNV
BAMMEmh4NTA5IFRlc3QgUm9vdCBDQTELMAkGA1UEBhMCU0WCCQCkIw86Px3C0DAM
BgNVHRMEBTADAQH/MAsGA1UdDwQEAwIB5jANBgkqhkiG9w0BAQUFAAOBgQCWQx+j
8B2iV4eG0XtDEneaFlZr8umqnoWV0hLXahV/vuNrVVMogwLUCgLTpbjqkz1Wix4x
HQXjWrky8lDRStE6L7eiJUkVFs2f3rAcbuE3MtBKoiFAxEx0iMqpduHPU3x7iCUj
iT9nflbzMss0n8eQT6iVKswR2dG1QD6gqndK1A==
-----END CERTIFICATE-----
