Certificate:
    Data:
        Version: 3 (0x2)
        Serial Number: 10 (0xa)
        Signature Algorithm: sha1WithRSAEncryption
        Issuer: CN=hx509 Test Root CA, C=SE
        Validity
            Not Before: Feb  7 10:55:20 2009 GMT
            Not After : Feb  5 10:55:20 2019 GMT
        Subject: C=SE, CN=Sub CA
        Subject Public Key Info:
            Public Key Algorithm: rsaEncryption
            RSA Public Key: (1024 bit)
                Modulus (1024 bit):
                    00:ad:eb:1e:ed:48:80:8e:7f:b7:95:93:62:ee:d5:
                    a8:54:52:be:9d:f0:ae:16:e9:34:62:50:cd:1d:d1:
                    c1:51:ee:d0:ee:00:44:d2:0e:54:ec:c5:b4:c1:5d:
                    3e:b6:82:8d:7e:dc:57:57:ff:f8:a3:19:b5:24:27:
                    a5:62:d6:5e:83:ec:94:79:a3:56:50:b8:c3:e5:7b:
                    dd:9f:11:95:f2:ec:18:89:ca:2b:d2:89:34:e1:73:
                    a5:8e:36:6c:14:ce:e3:9f:8d:d2:bb:1d:86:68:32:
                    8e:c0:25:b3:58:fb:42:1a:88:2e:df:cc:a7:db:0f:
                    a9:9b:fe:90:04:c1:51:8a:e7
                Exponent: 65537 (0x10001)
        X509v3 extensions:
            X509v3 Subject Key Identifier: 
                0B:46:D6:CF:9A:9E:B2:76:FF:82:8F:5E:10:03:CF:81:8B:97:B2:88
            X509v3 Authority Key Identifier: 
                keyid:CC:2E:27:1C:96:C9:A9:B4:29:50:C4:62:B3:B9:F6:F2:04:6D:A9:1B
                DirName:/CN=hx509 Test Root CA/C=SE
                serial:F7:DE:17:7A:BD:D2:F4:35

            X509v3 Basic Constraints: 
                CA:TRUE
            X509v3 Key Usage: 
                Digital Signature, Non Repudiation, Key Encipherment, Certificate Sign, CRL Sign
    Signature Algorithm: sha1WithRSAEncryption
        0b:a5:4c:da:dc:94:44:ec:8c:11:71:9b:57:80:fb:0c:cc:e5:
        ce:7d:32:11:bf:03:23:68:19:90:97:67:dc:ae:21:a6:83:86:
        51:36:cb:af:6a:57:3a:bd:d8:dc:61:58:71:23:55:fe:65:c0:
        53:5c:da:ae:1c:09:76:7a:47:bd:60:65:4b:a2:8f:95:65:e2:
        f3:af:56:f6:bd:01:d0:40:fb:cc:e7:f6:b1:6d:25:0a:1f:d3:
        28:89:4c:5f:a5:51:d0:b3:ce:de:b8:fc:87:dd:4e:7e:7a:d7:
        d1:c5:88:56:b5:41:85:1e:7b:c2:b9:86:81:bc:1c:85:89:0d:
        92:26
-----BEGIN CERTIFICATE-----
MIICWDCCAcGgAwIBAgIBCjANBgkqhkiG9w0BAQUFADAqMRswGQYDVQQDDBJoeDUw
OSBUZXN0IFJvb3QgQ0ExCzAJBgNVBAYTAlNFMB4XDTA5MDIwNzEwNTUyMFoXDTE5
MDIwNTEwNTUyMFowHjELMAkGA1UEBhMCU0UxDzANBgNVBAMMBlN1YiBDQTCBnzAN
BgkqhkiG9w0BAQEFAAOBjQAwgYkCgYEArese7UiAjn+3lZNi7tWoVFK+nfCuFuk0
YlDNHdHBUe7Q7gBE0g5U7MW0wV0+toKNftxXV//4oxm1JCelYtZeg+yUeaNWULjD
5XvdnxGV8uwYicor0ok04XOljjZsFM7jn43Sux2GaDKOwCWzWPtCGogu38yn2w+p
m/6QBMFRiucCAwEAAaOBmTCBljAdBgNVHQ4EFgQUC0bWz5qesnb/go9eEAPPgYuX
sogwWgYDVR0jBFMwUYAUzC4nHJbJqbQpUMRis7n28gRtqRuhLqQsMCoxGzAZBgNV
BAMMEmh4NTA5IFRlc3QgUm9vdCBDQTELMAkGA1UEBhMCU0WCCQD33hd6vdL0NTAM
BgNVHRMEBTADAQH/MAsGA1UdDwQEAwIB5jANBgkqhkiG9w0BAQUFAAOBgQALpUza
3JRE7IwRcZtXgPsMzOXOfTIRvwMjaBmQl2fcriGmg4ZRNsuvalc6vdjcYVhxI1X+
ZcBTXNquHAl2eke9YGVLoo+VZeLzr1b2vQHQQPvM5/axbSUKH9MoiUxfpVHQs87e
uPyH3U5+etfRxYhWtUGFHnvCuYaBvByFiQ2SJg==
-----END CERTIFICATE-----
