Certificate:
    Data:
        Version: 3 (0x2)
        Serial Number: 6 (0x6)
        Signature Algorithm: sha1WithRSAEncryption
        Issuer: CN=hx509 Test Root CA, C=SE
        Validity
            Not Before: Apr 26 16:40:08 2006 GMT
            Not After : Apr 23 16:40:08 2016 GMT
        Subject: C=SE, CN=Sub CA
        Subject Public Key Info:
            Public Key Algorithm: rsaEncryption
            RSA Public Key: (1024 bit)
                Modulus (1024 bit):
                    00:b4:d5:5d:e7:6a:eb:65:39:06:95:2d:88:8b:ea:
                    cb:cf:ff:79:ae:80:61:46:5f:c6:b2:78:70:5f:b9:
                    e0:87:b1:08:35:dc:4c:2c:86:63:64:e9:29:39:9b:
                    96:98:64:7e:01:03:3f:cf:e9:22:36:76:10:04:f8:
                    e2:c2:61:85:85:57:a8:1e:c4:01:de:fb:d0:25:79:
                    82:82:63:92:89:59:7e:5f:8c:81:95:3d:b2:f3:bd:
                    1c:21:fa:21:76:52:c1:b5:80:08:98:40:43:44:84:
                    8d:c3:dd:f8:7e:6f:6f:da:bd:a2:78:02:32:d7:bd:
                    25:2b:e0:59:59:65:38:a3:bd
                Exponent: 65537 (0x10001)
        X509v3 extensions:
            X509v3 Subject Key Identifier: 
                F8:5C:36:10:CA:2A:4B:5D:4B:ED:74:24:7B:6E:1D:2B:D7:4A:F8:AC
            X509v3 Authority Key Identifier: 
                keyid:EA:B8:9C:DA:E2:A0:0E:73:AB:92:56:E6:FE:C4:6C:45:3A:8B:54:8B
                DirName:/CN=hx509 Test Root CA/C=SE
                serial:81:9A:E8:94:AC:84:07:CA

            X509v3 Basic Constraints: 
                CA:TRUE
            X509v3 Key Usage: 
                Digital Signature, Non Repudiation, Key Encipherment, Certificate Sign, CRL Sign
    Signature Algorithm: sha1WithRSAEncryption
        3c:3a:6b:6d:fb:ca:aa:c4:6d:29:ef:41:66:6a:65:b2:27:af:
        bb:22:34:d2:b1:1c:68:aa:c1:38:19:c5:71:fe:e6:ac:3d:d1:
        29:53:c4:1f:47:8f:88:bd:1b:e8:54:13:bf:7b:13:89:c7:17:
        89:b5:af:8e:d9:8f:b0:89:94:a0:cb:92:fd:ee:99:73:9e:04:
        72:d2:c5:a6:a5:59:17:1a:66:3c:5b:4e:5b:b8:37:4f:4b:81:
        1d:fa:c9:b5:d3:de:64:21:d3:a0:62:85:21:56:bf:02:d7:0f:
        95:8c:92:e2:3e:04:85:87:8e:59:da:cf:af:a4:1b:d8:6f:4f:
        28:15
-----BEGIN CERTIFICATE-----
MIICWDCCAcGgAwIBAgIBBjANBgkqhkiG9w0BAQUFADAqMRswGQYDVQQDDBJoeDUw
OSBUZXN0IFJvb3QgQ0ExCzAJBgNVBAYTAlNFMB4XDTA2MDQyNjE2NDAwOFoXDTE2
MDQyMzE2NDAwOFowHjELMAkGA1UEBhMCU0UxDzANBgNVBAMMBlN1YiBDQTCBnzAN
BgkqhkiG9w0BAQEFAAOBjQAwgYkCgYEAtNVd52rrZTkGlS2Ii+rLz/95roBhRl/G
snhwX7ngh7EINdxMLIZjZOkpOZuWmGR+AQM/z+kiNnYQBPjiwmGFhVeoHsQB3vvQ
JXmCgmOSiVl+X4yBlT2y870cIfohdlLBtYAImEBDRISNw934fm9v2r2ieAIy170l
K+BZWWU4o70CAwEAAaOBmTCBljAdBgNVHQ4EFgQU+Fw2EMoqS11L7XQke24dK9dK
+KwwWgYDVR0jBFMwUYAU6ric2uKgDnOrklbm/sRsRTqLVIuhLqQsMCoxGzAZBgNV
BAMMEmh4NTA5IFRlc3QgUm9vdCBDQTELMAkGA1UEBhMCU0WCCQCBmuiUrIQHyjAM
BgNVHRMEBTADAQH/MAsGA1UdDwQEAwIB5jANBgkqhkiG9w0BAQUFAAOBgQA8Omtt
+8qqxG0p70FmamWyJ6+7IjTSsRxoqsE4GcVx/uasPdEpU8QfR4+IvRvoVBO/exOJ
xxeJta+O2Y+wiZSgy5L97plzngRy0sWmpVkXGmY8W05buDdPS4Ed+sm1095kIdOg
YoUhVr8C1w+VjJLiPgSFh45Z2s+vpBvYb08oFQ==
-----END CERTIFICATE-----
