Certificate:
    Data:
        Version: 3 (0x2)
        Serial Number: 11 (0xb)
        Signature Algorithm: sha1WithRSAEncryption
        Issuer: C=SE, CN=Sub CA
        Validity
            Not Before: Apr 13 21:48:01 2009 GMT
            Not After : Apr 11 21:48:01 2019 GMT
        Subject: C=SE, CN=Test sub cert
        Subject Public Key Info:
            Public Key Algorithm: rsaEncryption
            RSA Public Key: (1024 bit)
                Modulus (1024 bit):
                    00:ab:c3:df:fd:78:b0:14:50:bf:50:a4:83:b4:cc:
                    45:bc:0e:94:e7:1c:50:d3:08:54:e8:55:2f:ee:f9:
                    b5:0a:d7:d5:2d:a8:c0:6f:6a:d7:9b:b5:86:fc:58:
                    c9:26:af:c5:f4:ca:85:b7:02:d0:d6:e1:ae:40:1c:
                    3b:f5:6a:52:77:28:69:d1:9d:2e:55:9a:9d:d1:f6:
                    02:09:c8:b8:b7:cf:91:27:1d:7d:7f:43:1c:8c:26:
                    da:25:40:a2:01:17:30:b9:63:bf:7f:16:17:27:7d:
                    0f:d2:be:a9:5c:4a:ef:9b:69:96:47:57:2c:c2:7b:
                    96:e6:f6:5e:52:0c:7f:6e:b9
                Exponent: 65537 (0x10001)
        X509v3 extensions:
            X509v3 Basic Constraints: 
                CA:FALSE
            X509v3 Key Usage: 
                Digital Signature, Non Repudiation, Key Encipherment
            X509v3 Subject Key Identifier: 
                D1:60:4E:5F:2C:FE:F4:DE:29:DB:F2:5E:BC:2C:B2:DF:73:58:84:42
    Signature Algorithm: sha1WithRSAEncryption
        65:4b:14:a0:36:3d:41:8c:2b:e0:b8:f8:b6:d8:50:43:3c:31:
        97:17:71:15:93:ef:8a:bb:6d:73:40:9f:37:db:51:56:68:9f:
        ce:88:ea:89:0e:f0:31:c0:11:f8:85:43:54:76:3e:41:7e:46:
        99:1b:05:8a:ce:79:05:65:b2:bf:4c:c4:12:ac:dd:34:69:c6:
        f7:31:02:db:8f:a3:ed:ac:4d:fc:a8:b1:ca:be:5e:65:2e:12:
        91:8b:c3:b1:05:b9:2a:b6:04:30:f9:57:cd:01:0d:db:a9:b1:
        cc:3b:2a:0a:53:9c:2f:3a:0c:a3:36:d5:7b:5e:8a:cb:be:75:
        70:af
-----BEGIN CERTIFICATE-----
MIIB8jCCAVugAwIBAgIBCzANBgkqhkiG9w0BAQUFADAeMQswCQYDVQQGEwJTRTEP
MA0GA1UEAwwGU3ViIENBMB4XDTA5MDQxMzIxNDgwMVoXDTE5MDQxMTIxNDgwMVow
JTELMAkGA1UEBhMCU0UxFjAUBgNVBAMMDVRlc3Qgc3ViIGNlcnQwgZ8wDQYJKoZI
hvcNAQEBBQADgY0AMIGJAoGBAKvD3/14sBRQv1Ckg7TMRbwOlOccUNMIVOhVL+75
tQrX1S2owG9q15u1hvxYySavxfTKhbcC0NbhrkAcO/VqUncoadGdLlWandH2AgnI
uLfPkScdfX9DHIwm2iVAogEXMLljv38WFyd9D9K+qVxK75tplkdXLMJ7lub2XlIM
f265AgMBAAGjOTA3MAkGA1UdEwQCMAAwCwYDVR0PBAQDAgXgMB0GA1UdDgQWBBTR
YE5fLP703inb8l68LLLfc1iEQjANBgkqhkiG9w0BAQUFAAOBgQBlSxSgNj1BjCvg
uPi22FBDPDGXF3EVk++Ku21zQJ8321FWaJ/OiOqJDvAxwBH4hUNUdj5BfkaZGwWK
znkFZbK/TMQSrN00acb3MQLbj6PtrE38qLHKvl5lLhKRi8OxBbkqtgQw+VfNAQ3b
qbHMOyoKU5wvOgyjNtV7XorLvnVwrw==
-----END CERTIFICATE-----
