Certificate:
    Data:
        Version: 3 (0x2)
        Serial Number: 9 (0x9)
        Signature Algorithm: sha1WithRSAEncryption
        Issuer: C=SE, CN=Sub CA
        Validity
            Not Before: Apr 29 14:47:07 2006 GMT
            Not After : Apr 26 14:47:07 2016 GMT
        Subject: C=SE, CN=Test sub cert
        Subject Public Key Info:
            Public Key Algorithm: rsaEncryption
            RSA Public Key: (1024 bit)
                Modulus (1024 bit):
                    00:a5:f9:96:05:27:2c:0d:76:91:c2:93:17:3a:54:
                    18:2e:5e:3d:f3:8c:cc:73:24:90:67:5f:69:57:8b:
                    9f:56:99:e1:81:2f:c9:36:86:f0:46:8e:6e:0e:46:
                    c8:44:04:42:35:29:1c:7f:5e:27:0b:28:16:18:0b:
                    b1:c3:66:f0:41:1a:4b:c1:65:2a:85:9c:fc:7a:5a:
                    cc:14:1b:fb:c0:5a:47:be:2a:c3:95:ac:7c:fb:0d:
                    e3:a2:ef:56:8d:13:b6:18:4f:63:d8:45:80:3d:5b:
                    3a:47:fa:da:e5:dd:ac:d8:a4:cd:4d:26:21:c8:4a:
                    3c:fe:b9:99:01:be:f3:c6:33
                Exponent: 65537 (0x10001)
        X509v3 extensions:
            X509v3 Basic Constraints: 
                CA:FALSE
            X509v3 Key Usage: 
                Digital Signature, Non Repudiation, Key Encipherment
            X509v3 Subject Key Identifier: 
                C3:B0:8A:F2:BF:CD:56:90:8D:B2:E2:BA:D3:16:A9:EC:7D:99:C9:79
    Signature Algorithm: sha1WithRSAEncryption
        67:1c:94:31:dd:44:b3:7a:47:6b:27:c2:25:4b:a6:cc:10:e0:
        80:64:b6:e9:0d:c9:2a:12:8b:02:b5:8a:b3:ba:ac:1b:0d:8b:
        f0:26:62:11:14:b2:46:72:ff:6c:56:dd:d6:5b:84:95:96:cc:
        b0:3e:2a:11:b0:b1:b9:af:aa:f1:2a:31:ee:97:39:cf:10:cc:
        14:e1:e0:5c:d9:7b:f9:a2:a3:2d:68:96:65:2c:f6:b8:6b:ff:
        7e:94:47:d9:f3:ae:aa:19:19:09:de:e7:b3:d9:8f:9f:24:df:
        f3:98:8e:ce:92:c4:1d:6f:4d:15:90:b6:af:26:f5:d3:2f:d6:
        c6:8f
-----BEGIN CERTIFICATE-----
MIIB8jCCAVugAwIBAgIBCTANBgkqhkiG9w0BAQUFADAeMQswCQYDVQQGEwJTRTEP
MA0GA1UEAwwGU3ViIENBMB4XDTA2MDQyOTE0NDcwN1oXDTE2MDQyNjE0NDcwN1ow
JTELMAkGA1UEBhMCU0UxFjAUBgNVBAMMDVRlc3Qgc3ViIGNlcnQwgZ8wDQYJKoZI
hvcNAQEBBQADgY0AMIGJAoGBAKX5lgUnLA12kcKTFzpUGC5ePfOMzHMkkGdfaVeL
n1aZ4YEvyTaG8EaObg5GyEQEQjUpHH9eJwsoFhgLscNm8EEaS8FlKoWc/HpazBQb
+8BaR74qw5WsfPsN46LvVo0TthhPY9hFgD1bOkf62uXdrNikzU0mIchKPP65mQG+
88YzAgMBAAGjOTA3MAkGA1UdEwQCMAAwCwYDVR0PBAQDAgXgMB0GA1UdDgQWBBTD
sIryv81WkI2y4rrTFqnsfZnJeTANBgkqhkiG9w0BAQUFAAOBgQBnHJQx3USzekdr
J8IlS6bMEOCAZLbpDckqEosCtYqzuqwbDYvwJmIRFLJGcv9sVt3WW4SVlsywPioR
sLG5r6rxKjHulznPEMwU4eBc2Xv5oqMtaJZlLPa4a/9+lEfZ866qGRkJ3uez2Y+f
JN/zmI7OksQdb00VkLavJvXTL9bGjw==
-----END CERTIFICATE-----
