Certificate:
    Data:
        Version: 3 (0x2)
        Serial Number: 9 (0x9)
        Signature Algorithm: sha1WithRSAEncryption
        Issuer: C=SE, CN=Sub CA
        Validity
            Not Before: Nov 13 08:09:54 2006 GMT
            Not After : Nov 10 08:09:54 2016 GMT
        Subject: C=SE, CN=Test sub cert
        Subject Public Key Info:
            Public Key Algorithm: rsaEncryption
            RSA Public Key: (1024 bit)
                Modulus (1024 bit):
                    00:ba:ae:8b:ce:3f:87:a8:40:ff:91:e6:b4:b3:a5:
                    c1:0b:40:c0:cd:cb:a0:a2:22:84:59:1a:f3:83:36:
                    5d:91:6c:e6:0b:9c:be:b9:e1:c5:67:b6:c4:71:a1:
                    d6:be:d3:e6:bc:1f:02:48:a8:4a:ac:96:06:b6:6e:
                    72:e7:db:6d:9b:3e:b3:61:85:ad:48:2d:0d:9e:83:
                    60:cb:98:e4:b8:45:85:ca:7d:c7:d4:92:00:09:6c:
                    06:df:da:f0:08:0d:c0:44:88:3d:bf:48:4a:a3:7c:
                    bc:a7:c9:cb:5b:cd:e2:91:6c:08:14:f1:ba:40:5f:
                    d2:2d:01:21:a7:ad:c1:62:2f
                Exponent: 65537 (0x10001)
        X509v3 extensions:
            X509v3 Basic Constraints: 
                CA:FALSE
            X509v3 Key Usage: 
                Digital Signature, Non Repudiation, Key Encipherment
            X509v3 Subject Key Identifier: 
                CD:35:FE:59:62:E4:A8:52:35:82:AA:C3:77:87:FD:7A:78:4B:BB:AE
    Signature Algorithm: sha1WithRSAEncryption
        c0:eb:ba:ca:5c:9d:52:29:45:97:f5:b1:f9:11:85:e2:be:7e:
        aa:2a:f2:74:d1:23:cd:6e:47:cb:3e:42:2d:fa:3f:3b:38:ac:
        76:a0:05:c5:60:38:23:61:e1:7d:3d:1d:b1:04:be:23:39:a9:
        42:0f:3c:dc:55:97:2b:01:18:81:c6:c8:e3:fd:d2:d7:ba:ba:
        ec:65:3a:8d:a1:3e:52:53:40:e9:5a:35:31:bd:5c:0a:4b:cc:
        38:32:c5:e3:70:0b:a7:7a:a4:97:9c:a6:7b:9f:fa:cb:fa:a8:
        81:fc:a6:97:07:37:e3:43:20:ee:b8:23:c4:65:28:3b:9c:2c:
        f0:4e
-----BEGIN CERTIFICATE-----
MIIB8jCCAVugAwIBAgIBCTANBgkqhkiG9w0BAQUFADAeMQswCQYDVQQGEwJTRTEP
MA0GA1UEAwwGU3ViIENBMB4XDTA2MTExMzA4MDk1NFoXDTE2MTExMDA4MDk1NFow
JTELMAkGA1UEBhMCU0UxFjAUBgNVBAMMDVRlc3Qgc3ViIGNlcnQwgZ8wDQYJKoZI
hvcNAQEBBQADgY0AMIGJAoGBALqui84/h6hA/5HmtLOlwQtAwM3LoKIihFka84M2
XZFs5gucvrnhxWe2xHGh1r7T5rwfAkioSqyWBrZucufbbZs+s2GFrUgtDZ6DYMuY
5LhFhcp9x9SSAAlsBt/a8AgNwESIPb9ISqN8vKfJy1vN4pFsCBTxukBf0i0BIaet
wWIvAgMBAAGjOTA3MAkGA1UdEwQCMAAwCwYDVR0PBAQDAgXgMB0GA1UdDgQWBBTN
Nf5ZYuSoUjWCqsN3h/16eEu7rjANBgkqhkiG9w0BAQUFAAOBgQDA67rKXJ1SKUWX
9bH5EYXivn6qKvJ00SPNbkfLPkIt+j87OKx2oAXFYDgjYeF9PR2xBL4jOalCDzzc
VZcrARiBxsjj/dLXurrsZTqNoT5SU0DpWjUxvVwKS8w4MsXjcAuneqSXnKZ7n/rL
+qiB/KaXBzfjQyDuuCPEZSg7nCzwTg==
-----END CERTIFICATE-----
