Certificate:
    Data:
        Version: 3 (0x2)
        Serial Number: 10 (0xa)
        Signature Algorithm: sha1WithRSAEncryption
        Issuer: C=SE, CN=Sub CA
        Validity
            Not Before: Jul 19 13:43:34 2007 GMT
            Not After : Jul 16 13:43:34 2017 GMT
        Subject: C=SE, CN=Test sub cert
        Subject Public Key Info:
            Public Key Algorithm: rsaEncryption
            RSA Public Key: (1024 bit)
                Modulus (1024 bit):
                    00:d1:ab:16:9d:52:2b:e3:8d:34:49:4c:c2:94:0a:
                    83:d5:0b:ca:a4:c2:38:06:9a:d8:94:45:c8:fa:9a:
                    df:ab:5f:62:9f:3e:5f:9e:ff:0f:e6:b5:66:cf:14:
                    d5:cc:b9:f6:d3:30:44:ac:45:34:ec:fd:81:66:5c:
                    e3:ee:f1:85:ed:f9:03:b3:f5:38:bf:29:a5:26:02:
                    a0:64:76:ff:d5:76:aa:03:27:91:82:f9:8a:d7:76:
                    18:36:61:23:1c:c4:ee:ba:a1:3f:87:27:6b:4f:1b:
                    e6:93:54:31:d8:65:10:c1:ba:64:11:15:11:c8:0d:
                    b9:c2:dd:47:dc:f7:09:4f:6f
                Exponent: 65537 (0x10001)
        X509v3 extensions:
            X509v3 Basic Constraints: 
                CA:FALSE
            X509v3 Key Usage: 
                Digital Signature, Non Repudiation, Key Encipherment
            X509v3 Subject Key Identifier: 
                02:9A:CA:65:29:FA:F0:48:A8:AB:FD:B9:7F:51:86:EA:38:2D:EF:F3
    Signature Algorithm: sha1WithRSAEncryption
        9b:af:ae:2f:8a:26:47:94:e0:01:0a:46:56:17:81:5f:2b:23:
        69:1d:e7:24:e9:dd:63:9d:97:fe:6e:f2:80:78:43:30:a9:00:
        5c:54:5e:a1:9d:2e:d4:8f:b9:ec:e1:d5:93:3c:57:a8:43:67:
        eb:de:95:ec:6a:33:d8:28:07:2b:2c:c7:f3:5f:c6:aa:c4:6c:
        89:5d:bc:09:d6:be:5e:7c:a3:07:c9:67:3a:41:65:3c:14:a5:
        29:c4:62:39:c2:b0:29:8b:c1:bb:9d:25:24:df:16:a9:9c:e9:
        f6:19:ed:d9:e0:66:6d:99:84:fe:7a:1d:d7:c9:92:87:69:a5:
        e6:ea
-----BEGIN CERTIFICATE-----
MIIB8jCCAVugAwIBAgIBCjANBgkqhkiG9w0BAQUFADAeMQswCQYDVQQGEwJTRTEP
MA0GA1UEAwwGU3ViIENBMB4XDTA3MDcxOTEzNDMzNFoXDTE3MDcxNjEzNDMzNFow
JTELMAkGA1UEBhMCU0UxFjAUBgNVBAMMDVRlc3Qgc3ViIGNlcnQwgZ8wDQYJKoZI
hvcNAQEBBQADgY0AMIGJAoGBANGrFp1SK+ONNElMwpQKg9ULyqTCOAaa2JRFyPqa
36tfYp8+X57/D+a1Zs8U1cy59tMwRKxFNOz9gWZc4+7xhe35A7P1OL8ppSYCoGR2
/9V2qgMnkYL5itd2GDZhIxzE7rqhP4cna08b5pNUMdhlEMG6ZBEVEcgNucLdR9z3
CU9vAgMBAAGjOTA3MAkGA1UdEwQCMAAwCwYDVR0PBAQDAgXgMB0GA1UdDgQWBBQC
msplKfrwSKir/bl/UYbqOC3v8zANBgkqhkiG9w0BAQUFAAOBgQCbr64viiZHlOAB
CkZWF4FfKyNpHeck6d1jnZf+bvKAeEMwqQBcVF6hnS7Uj7ns4dWTPFeoQ2fr3pXs
ajPYKAcrLMfzX8aqxGyJXbwJ1r5efKMHyWc6QWU8FKUpxGI5wrApi8G7nSUk3xap
nOn2Ge3Z4GZtmYT+eh3XyZKHaaXm6g==
-----END CERTIFICATE-----
