Certificate:
    Data:
        Version: 3 (0x2)
        Serial Number: 8 (0x8)
        Signature Algorithm: sha1WithRSAEncryption
        Issuer: C=SE, CN=Sub CA
        Validity
            Not Before: Apr 13 20:42:53 2009 GMT
            Not After : Apr 11 20:42:53 2019 GMT
        Subject: C=SE, CN=Test sub cert
        Subject Public Key Info:
            Public Key Algorithm: rsaEncryption
                Public-Key: (1024 bit)
                Modulus:
                    00:f6:d8:4a:e9:a3:4f:37:8a:fa:8a:ea:f8:48:05:
                    2e:1f:58:e8:60:0b:80:54:8e:8c:7e:79:06:48:0f:
                    1b:9f:d2:45:42:2e:1f:6b:ff:c3:a2:23:58:0a:3d:
                    82:25:26:5a:a0:69:ca:d2:46:df:36:fe:07:a0:a6:
                    ef:ae:48:73:c1:c2:fb:c5:89:b0:f8:ae:4d:5a:19:
                    46:c6:9f:0c:de:22:fd:43:ae:eb:d2:00:6c:30:c2:
                    67:83:2a:87:25:cf:22:e6:8f:c2:f3:70:6d:74:38:
                    1e:a8:cc:5a:c4:4b:b8:e5:98:bb:67:0d:c7:c6:55:
                    2e:16:6a:ca:e0:f6:a1:d2:b9
                Exponent: 65537 (0x10001)
        X509v3 extensions:
            X509v3 Basic Constraints: 
                CA:FALSE
            X509v3 Key Usage: 
                Digital Signature, Non Repudiation, Key Encipherment
            X509v3 Subject Key Identifier: 
                D1:D8:B2:78:92:7A:B4:DA:B4:82:EE:28:CD:A3:4E:AE:AF:B3:7C:FA
    Signature Algorithm: sha1WithRSAEncryption
        6f:aa:bc:02:1f:49:dc:9b:06:3a:98:5b:a1:be:6f:32:7f:02:
        19:0f:e6:b4:5d:2c:f8:d1:a1:f5:9a:ba:b8:61:79:05:26:01:
        72:46:30:14:1f:85:a7:1d:11:c5:b8:59:ff:23:1f:2e:1d:9c:
        c8:99:12:8d:6e:f7:19:ac:53:47:d1:34:85:d3:03:ea:04:50:
        7b:b6:04:b9:73:cd:3e:e5:b4:10:c1:bb:f9:a7:70:92:96:d5:
        95:f3:31:8b:0a:fb:8d:63:82:9e:c6:4c:2a:b5:56:f5:0b:24:
        c8:26:52:c8:83:78:42:b6:9d:34:74:bc:7e:c1:72:98:8d:01:
        b6:a9
-----BEGIN CERTIFICATE-----
MIIB8jCCAVugAwIBAgIBCDANBgkqhkiG9w0BAQUFADAeMQswCQYDVQQGEwJTRTEP
MA0GA1UEAwwGU3ViIENBMB4XDTA5MDQxMzIwNDI1M1oXDTE5MDQxMTIwNDI1M1ow
JTELMAkGA1UEBhMCU0UxFjAUBgNVBAMMDVRlc3Qgc3ViIGNlcnQwgZ8wDQYJKoZI
hvcNAQEBBQADgY0AMIGJAoGBAPbYSumjTzeK+orq+EgFLh9Y6GALgFSOjH55BkgP
G5/SRUIuH2v/w6IjWAo9giUmWqBpytJG3zb+B6Cm765Ic8HC+8WJsPiuTVoZRsaf
DN4i/UOu69IAbDDCZ4MqhyXPIuaPwvNwbXQ4HqjMWsRLuOWYu2cNx8ZVLhZqyuD2
odK5AgMBAAGjOTA3MAkGA1UdEwQCMAAwCwYDVR0PBAQDAgXgMB0GA1UdDgQWBBTR
2LJ4knq02rSC7ijNo06ur7N8+jANBgkqhkiG9w0BAQUFAAOBgQBvqrwCH0ncmwY6
mFuhvm8yfwIZD+a0XSz40aH1mrq4YXkFJgFyRjAUH4WnHRHFuFn/Ix8uHZzImRKN
bvcZrFNH0TSF0wPqBFB7tgS5c80+5bQQwbv5p3CSltWV8zGLCvuNY4KexkwqtVb1
CyTIJlLIg3hCtp00dLx+wXKYjQG2qQ==
-----END CERTIFICATE-----
