Certificate:
    Data:
        Version: 3 (0x2)
        Serial Number: 8 (0x8)
        Signature Algorithm: sha1WithRSAEncryption
        Issuer: CN=hx509 Test Root CA, C=SE
        Validity
            Not Before: Nov 13 05:47:14 2006 GMT
            Not After : Nov 10 05:47:14 2016 GMT
        Subject: C=SE, CN=Sub CA
        Subject Public Key Info:
            Public Key Algorithm: rsaEncryption
            RSA Public Key: (1024 bit)
                Modulus (1024 bit):
                    00:c4:47:e4:af:be:1b:9f:b5:57:ec:d7:40:3c:74:
                    c5:b8:bf:53:d4:7c:e4:53:f6:d0:28:c5:c4:fb:97:
                    9e:6b:85:e1:92:16:42:38:64:5b:2c:92:c2:8e:06:
                    07:b8:69:70:b8:6b:40:1d:e2:d1:7e:cc:12:1f:e7:
                    41:ec:93:39:19:19:e8:14:31:1d:c9:9d:e4:21:8b:
                    6e:97:c0:66:f9:8f:3e:15:bf:e9:78:90:dc:06:86:
                    1d:7a:ba:36:8f:1d:06:aa:98:39:fb:14:f1:c7:fb:
                    89:db:5d:74:2d:a4:62:87:a1:e5:d6:f9:39:e2:0e:
                    bf:f0:4f:48:9d:77:42:7a:15
                Exponent: 65537 (0x10001)
        X509v3 extensions:
            X509v3 Subject Key Identifier: 
                24:5C:C1:16:23:66:D1:4C:CD:6D:4A:C9:51:82:AE:DE:A2:AA:92:96
            X509v3 Authority Key Identifier: 
                keyid:5E:1F:AF:62:71:73:FE:4B:30:D0:4C:87:2D:6D:9C:CB:C4:5E:24:D2
                DirName:/CN=hx509 Test Root CA/C=SE
                serial:FE:2F:BF:AC:EC:26:54:AC

            X509v3 Basic Constraints: 
                CA:TRUE
            X509v3 Key Usage: 
                Digital Signature, Non Repudiation, Key Encipherment, Certificate Sign, CRL Sign
    Signature Algorithm: sha1WithRSAEncryption
        96:20:24:b0:05:be:fe:0e:bd:92:21:27:04:03:a3:0f:61:91:
        d4:72:fb:1f:2d:aa:a8:e6:27:b3:31:c8:d7:d5:5e:27:37:a9:
        e0:59:c2:9f:e8:c9:4a:01:78:3b:ea:99:a9:fb:f8:e2:ae:c5:
        e9:37:a0:0e:29:b7:ea:93:43:11:ee:7b:90:60:a0:43:44:87:
        29:e5:36:14:e5:eb:cc:cc:91:cc:c7:94:a5:27:de:27:c8:5c:
        b7:a0:de:13:f8:d9:65:59:02:96:17:e6:88:da:56:0f:30:a3:
        bc:a3:b1:09:c9:9c:1a:0e:84:1a:85:2f:3d:0a:0c:05:98:76:
        1f:b5
-----BEGIN CERTIFICATE-----
MIICWDCCAcGgAwIBAgIBCDANBgkqhkiG9w0BAQUFADAqMRswGQYDVQQDDBJoeDUw
OSBUZXN0IFJvb3QgQ0ExCzAJBgNVBAYTAlNFMB4XDTA2MTExMzA1NDcxNFoXDTE2
MTExMDA1NDcxNFowHjELMAkGA1UEBhMCU0UxDzANBgNVBAMMBlN1YiBDQTCBnzAN
BgkqhkiG9w0BAQEFAAOBjQAwgYkCgYEAxEfkr74bn7VX7NdAPHTFuL9T1HzkU/bQ
KMXE+5eea4XhkhZCOGRbLJLCjgYHuGlwuGtAHeLRfswSH+dB7JM5GRnoFDEdyZ3k
IYtul8Bm+Y8+Fb/peJDcBoYdero2jx0Gqpg5+xTxx/uJ2110LaRih6Hl1vk54g6/
8E9InXdCehUCAwEAAaOBmTCBljAdBgNVHQ4EFgQUJFzBFiNm0UzNbUrJUYKu3qKq
kpYwWgYDVR0jBFMwUYAUXh+vYnFz/ksw0EyHLW2cy8ReJNKhLqQsMCoxGzAZBgNV
BAMMEmh4NTA5IFRlc3QgUm9vdCBDQTELMAkGA1UEBhMCU0WCCQD+L7+s7CZUrDAM
BgNVHRMEBTADAQH/MAsGA1UdDwQEAwIB5jANBgkqhkiG9w0BAQUFAAOBgQCWICSw
Bb7+Dr2SIScEA6MPYZHUcvsfLaqo5iezMcjX1V4nN6ngWcKf6MlKAXg76pmp+/ji
rsXpN6AOKbfqk0MR7nuQYKBDRIcp5TYU5evMzJHMx5SlJ94nyFy3oN4T+NllWQKW
F+aI2lYPMKO8o7EJyZwaDoQahS89CgwFmHYftQ==
-----END CERTIFICATE-----
