Certificate:
    Data:
        Version: 3 (0x2)
        Serial Number: 11 (0xb)
        Signature Algorithm: sha1WithRSAEncryption
        Issuer: C=SE, CN=Sub CA
        Validity
            Not Before: Feb  7 10:55:21 2009 GMT
            Not After : Feb  5 10:55:21 2019 GMT
        Subject: C=SE, CN=Test sub cert
        Subject Public Key Info:
            Public Key Algorithm: rsaEncryption
            RSA Public Key: (1024 bit)
                Modulus (1024 bit):
                    00:ea:86:90:ef:16:83:a8:a9:54:e6:4a:7d:17:b8:
                    f7:94:44:92:7f:29:e7:06:e0:f5:bb:f7:c1:54:3b:
                    c8:a3:18:0b:78:42:84:35:5c:54:32:f8:e0:d7:d1:
                    6e:97:6c:68:c6:d6:1f:70:18:45:da:ae:58:61:d1:
                    1b:b4:89:a0:8f:41:c6:80:6f:57:d5:96:56:a4:65:
                    00:58:b2:f4:21:b5:6f:83:ff:17:76:06:d9:b9:2d:
                    c7:03:0a:59:9a:29:af:57:8e:95:9f:38:77:e2:43:
                    23:78:1b:b8:13:a9:f2:f6:9a:19:11:99:f6:1f:49:
                    0b:08:2f:94:5d:ee:fb:30:49
                Exponent: 65537 (0x10001)
        X509v3 extensions:
            X509v3 Basic Constraints: 
                CA:FALSE
            X509v3 Key Usage: 
                Digital Signature, Non Repudiation, Key Encipherment
            X509v3 Subject Key Identifier: 
                5A:D3:61:C5:60:BE:A1:4A:5F:63:05:05:63:55:31:25:BD:0B:6C:E6
    Signature Algorithm: sha1WithRSAEncryption
        7f:2c:ae:ef:5c:2c:3b:b7:9c:8e:91:54:0b:e2:c9:87:43:db:
        8a:f1:e3:2f:c5:51:1a:f3:52:3e:9a:51:6f:d2:71:b5:1b:7a:
        e4:46:d2:7c:a1:50:b3:9e:a5:fb:d0:9c:7d:f5:3c:40:e8:7d:
        1f:d0:e7:b0:c0:74:42:e6:bc:f0:68:37:e8:b4:a8:4c:76:c0:
        37:d6:49:1c:5b:b3:15:79:1b:02:59:32:f8:31:a2:2c:c4:2e:
        55:78:90:6f:a6:7e:d8:06:63:4f:10:ef:25:b2:9e:60:37:bc:
        93:60:4b:36:fe:44:d3:ad:bc:9e:78:2f:8c:11:4c:7a:88:41:
        de:50
-----BEGIN CERTIFICATE-----
MIIB8jCCAVugAwIBAgIBCzANBgkqhkiG9w0BAQUFADAeMQswCQYDVQQGEwJTRTEP
MA0GA1UEAwwGU3ViIENBMB4XDTA5MDIwNzEwNTUyMVoXDTE5MDIwNTEwNTUyMVow
JTELMAkGA1UEBhMCU0UxFjAUBgNVBAMMDVRlc3Qgc3ViIGNlcnQwgZ8wDQYJKoZI
hvcNAQEBBQADgY0AMIGJAoGBAOqGkO8Wg6ipVOZKfRe495REkn8p5wbg9bv3wVQ7
yKMYC3hChDVcVDL44NfRbpdsaMbWH3AYRdquWGHRG7SJoI9BxoBvV9WWVqRlAFiy
9CG1b4P/F3YG2bktxwMKWZopr1eOlZ84d+JDI3gbuBOp8vaaGRGZ9h9JCwgvlF3u
+zBJAgMBAAGjOTA3MAkGA1UdEwQCMAAwCwYDVR0PBAQDAgXgMB0GA1UdDgQWBBRa
02HFYL6hSl9jBQVjVTElvQts5jANBgkqhkiG9w0BAQUFAAOBgQB/LK7vXCw7t5yO
kVQL4smHQ9uK8eMvxVEa81I+mlFv0nG1G3rkRtJ8oVCznqX70Jx99TxA6H0f0Oew
wHRC5rzwaDfotKhMdsA31kkcW7MVeRsCWTL4MaIsxC5VeJBvpn7YBmNPEO8lsp5g
N7yTYEs2/kTTrbyeeC+MEUx6iEHeUA==
-----END CERTIFICATE-----
