Certificate:
    Data:
        Version: 3 (0x2)
        Serial Number: 7 (0x7)
        Signature Algorithm: sha1WithRSAEncryption
        Issuer: CN=hx509 Test Root CA, C=SE
        Validity
            Not Before: Apr 13 21:53:35 2009 GMT
            Not After : Apr 11 21:53:35 2019 GMT
        Subject: C=SE, CN=Sub CA
        Subject Public Key Info:
            Public Key Algorithm: rsaEncryption
                Public-Key: (1024 bit)
                Modulus:
                    00:d0:e4:3e:b2:ba:b3:7c:8e:ee:21:15:c5:9a:05:
                    ca:02:2b:e7:38:8c:0c:2b:32:39:f1:39:d1:82:0d:
                    c8:6e:53:5b:d7:bf:2f:89:3c:6d:7e:f3:b7:86:35:
                    a9:5c:5e:5d:e8:92:b8:08:3d:4c:13:60:b6:bf:fa:
                    8c:68:2d:92:de:f7:30:6e:10:9e:9e:b0:90:8f:3b:
                    ef:28:01:7a:11:3d:e7:8d:89:11:d5:7c:d7:dc:45:
                    24:4c:08:05:8a:86:6f:e8:78:9c:f1:91:0e:3d:41:
                    aa:4c:93:6d:9c:9c:6e:bd:1f:19:a6:6e:e8:8f:eb:
                    3f:ae:58:c9:64:e1:2a:dc:f7
                Exponent: 65537 (0x10001)
        X509v3 extensions:
            X509v3 Subject Key Identifier: 
                2A:1E:28:07:27:76:85:BB:9D:D2:7C:F8:27:34:C2:D5:46:1E:C6:0F
            X509v3 Authority Key Identifier: 
                keyid:A8:F7:9B:F2:D4:FE:78:3C:93:3B:A4:9A:0A:9D:A7:53:83:9B:AD:D1
                DirName:/CN=hx509 Test Root CA/C=SE
                serial:F0:21:B9:BA:F4:60:2B:EC

            X509v3 Basic Constraints: 
                CA:TRUE
            X509v3 Key Usage: 
                Digital Signature, Non Repudiation, Key Encipherment, Certificate Sign, CRL Sign
    Signature Algorithm: sha1WithRSAEncryption
        73:75:e6:e6:65:66:55:c0:5f:75:4f:3a:70:bf:e3:e9:16:6f:
        1e:5c:18:73:ed:a5:24:9c:a2:c6:ac:5f:5f:1e:57:b5:df:58:
        07:a8:ca:43:52:e9:7c:9f:08:ef:d6:89:bb:8e:4d:eb:cf:9c:
        fc:2e:70:a3:ae:22:ec:23:a2:8b:aa:eb:92:60:92:cb:4b:65:
        7a:d5:16:ec:49:43:2b:2c:e9:20:e3:04:05:64:f5:34:aa:ca:
        df:12:7b:12:c6:b4:69:68:c5:2e:33:5c:9c:93:a7:6d:22:5d:
        94:0d:26:f9:df:aa:da:d1:e3:bc:ad:65:1c:69:bf:65:b0:17:
        cb:38
-----BEGIN CERTIFICATE-----
MIICWDCCAcGgAwIBAgIBBzANBgkqhkiG9w0BAQUFADAqMRswGQYDVQQDDBJoeDUw
OSBUZXN0IFJvb3QgQ0ExCzAJBgNVBAYTAlNFMB4XDTA5MDQxMzIxNTMzNVoXDTE5
MDQxMTIxNTMzNVowHjELMAkGA1UEBhMCU0UxDzANBgNVBAMMBlN1YiBDQTCBnzAN
BgkqhkiG9w0BAQEFAAOBjQAwgYkCgYEA0OQ+srqzfI7uIRXFmgXKAivnOIwMKzI5
8TnRgg3IblNb178viTxtfvO3hjWpXF5d6JK4CD1ME2C2v/qMaC2S3vcwbhCenrCQ
jzvvKAF6ET3njYkR1XzX3EUkTAgFioZv6Hic8ZEOPUGqTJNtnJxuvR8Zpm7oj+s/
rljJZOEq3PcCAwEAAaOBmTCBljAdBgNVHQ4EFgQUKh4oByd2hbud0nz4JzTC1UYe
xg8wWgYDVR0jBFMwUYAUqPeb8tT+eDyTO6SaCp2nU4ObrdGhLqQsMCoxGzAZBgNV
BAMMEmh4NTA5IFRlc3QgUm9vdCBDQTELMAkGA1UEBhMCU0WCCQDwIbm69GAr7DAM
BgNVHRMEBTADAQH/MAsGA1UdDwQEAwIB5jANBgkqhkiG9w0BAQUFAAOBgQBzdebm
ZWZVwF91Tzpwv+PpFm8eXBhz7aUknKLGrF9fHle131gHqMpDUul8nwjv1om7jk3r
z5z8LnCjriLsI6KLquuSYJLLS2V61RbsSUMrLOkg4wQFZPU0qsrfEnsSxrRpaMUu
M1yck6dtIl2UDSb536ra0eO8rWUcab9lsBfLOA==
-----END CERTIFICATE-----
