Certificate:
    Data:
        Version: 3 (0x2)
        Serial Number: 7 (0x7)
        Signature Algorithm: sha1WithRSAEncryption
        Issuer: C=SE, CN=Sub CA
        Validity
            Not Before: Apr 26 16:40:08 2006 GMT
            Not After : Apr 23 16:40:08 2016 GMT
        Subject: C=SE, CN=Test sub cert
        Subject Public Key Info:
            Public Key Algorithm: rsaEncryption
            RSA Public Key: (1024 bit)
                Modulus (1024 bit):
                    00:c5:57:04:d5:f8:60:02:88:fb:d7:14:8f:34:69:
                    db:f2:cb:0e:ad:09:75:95:70:86:ac:e5:1e:17:d7:
                    f4:7a:54:2c:7e:a3:b5:07:4a:a9:2e:b9:91:9b:bf:
                    eb:71:56:47:cb:7c:9e:99:67:36:02:8c:17:f4:fb:
                    83:3d:3d:6f:e5:eb:d1:38:49:8e:e3:12:25:d6:4c:
                    5e:97:c0:48:92:2c:dc:03:64:b2:a3:ad:30:ce:90:
                    7a:23:37:b5:2e:cb:77:2e:d7:ce:d8:b0:01:06:51:
                    75:39:84:5d:09:db:c8:0f:3d:45:9d:d9:b1:05:2f:
                    94:60:e1:fc:d3:fe:1b:1c:61
                Exponent: 65537 (0x10001)
        X509v3 extensions:
            X509v3 Basic Constraints: 
                CA:FALSE
            X509v3 Key Usage: 
                Digital Signature, Non Repudiation, Key Encipherment
            X509v3 Subject Key Identifier: 
                5A:C5:74:EB:94:DC:EE:78:AA:7B:2F:C2:00:1B:D5:33:7B:75:73:FA
    Signature Algorithm: sha1WithRSAEncryption
        32:85:58:16:e4:33:26:f5:de:77:3e:50:aa:3a:60:4e:80:57:
        53:b8:11:3f:84:a1:c7:ed:af:48:c7:5b:ff:f1:66:61:41:bb:
        9b:e7:62:43:d6:85:ed:59:7a:39:13:d5:f8:85:87:19:a2:c8:
        7f:d9:c2:92:5b:4d:2b:8d:bc:37:5c:9e:67:81:8b:cd:17:4c:
        60:e5:3d:60:61:0e:0e:83:51:2b:14:ae:78:47:b4:52:2c:08:
        50:88:0b:53:df:f5:8e:54:64:87:43:85:87:bc:68:77:b4:6e:
        b1:3d:fd:f8:1f:51:12:e0:07:89:ee:51:ff:44:2f:df:5f:de:
        44:9c
-----BEGIN CERTIFICATE-----
MIIB8jCCAVugAwIBAgIBBzANBgkqhkiG9w0BAQUFADAeMQswCQYDVQQGEwJTRTEP
MA0GA1UEAwwGU3ViIENBMB4XDTA2MDQyNjE2NDAwOFoXDTE2MDQyMzE2NDAwOFow
JTELMAkGA1UEBhMCU0UxFjAUBgNVBAMMDVRlc3Qgc3ViIGNlcnQwgZ8wDQYJKoZI
hvcNAQEBBQADgY0AMIGJAoGBAMVXBNX4YAKI+9cUjzRp2/LLDq0JdZVwhqzlHhfX
9HpULH6jtQdKqS65kZu/63FWR8t8nplnNgKMF/T7gz09b+Xr0ThJjuMSJdZMXpfA
SJIs3ANksqOtMM6QeiM3tS7Ldy7XztiwAQZRdTmEXQnbyA89RZ3ZsQUvlGDh/NP+
GxxhAgMBAAGjOTA3MAkGA1UdEwQCMAAwCwYDVR0PBAQDAgXgMB0GA1UdDgQWBBRa
xXTrlNzueKp7L8IAG9Uze3Vz+jANBgkqhkiG9w0BAQUFAAOBgQAyhVgW5DMm9d53
PlCqOmBOgFdTuBE/hKHH7a9Ix1v/8WZhQbub52JD1oXtWXo5E9X4hYcZosh/2cKS
W00rjbw3XJ5ngYvNF0xg5T1gYQ4Og1ErFK54R7RSLAhQiAtT3/WOVGSHQ4WHvGh3
tG6xPf34H1ES4AeJ7lH/RC/fX95EnA==
-----END CERTIFICATE-----
