Certificate:
    Data:
        Version: 3 (0x2)
        Serial Number: 7 (0x7)
        Signature Algorithm: sha1WithRSAEncryption
        Issuer: CN=hx509 Test Root CA, C=SE
        Validity
            Not Before: Apr 13 20:42:53 2009 GMT
            Not After : Apr 11 20:42:53 2019 GMT
        Subject: C=SE, CN=Sub CA
        Subject Public Key Info:
            Public Key Algorithm: rsaEncryption
                Public-Key: (1024 bit)
                Modulus:
                    00:b6:3f:43:2b:f6:52:05:d9:ae:43:d5:4a:fa:1b:
                    a4:4d:13:72:80:2e:c8:6c:c6:2d:8e:f0:fc:7e:19:
                    8e:44:ca:2a:b9:ba:c4:ff:f7:e2:79:75:22:38:13:
                    e1:24:2f:a0:d3:f3:2b:2b:7d:a1:45:2f:7b:3a:10:
                    d1:5a:ac:1e:5e:5f:17:c6:93:5f:83:30:33:20:6a:
                    71:1b:6a:16:43:00:2a:23:fa:ee:3e:71:45:1a:25:
                    90:68:57:e8:7a:48:ac:62:b4:46:63:37:c4:e4:b7:
                    3e:df:c0:75:e4:c2:26:50:d5:fd:9c:ca:f3:e9:b4:
                    0d:75:8c:8b:8c:d3:df:a8:4b
                Exponent: 65537 (0x10001)
        X509v3 extensions:
            X509v3 Subject Key Identifier: 
                8F:59:F3:CC:CE:26:7C:B9:19:91:34:E4:6B:84:4B:BC:B2:A0:08:5C
            X509v3 Authority Key Identifier: 
                keyid:7B:1C:08:A4:93:DE:A6:34:F8:58:FF:29:5A:97:2C:07:C6:12:3A:FB
                DirName:/CN=hx509 Test Root CA/C=SE
                serial:9A:CA:AE:19:28:5A:47:C1

            X509v3 Basic Constraints: 
                CA:TRUE
            X509v3 Key Usage: 
                Digital Signature, Non Repudiation, Key Encipherment, Certificate Sign, CRL Sign
    Signature Algorithm: sha1WithRSAEncryption
        0e:88:f4:2b:8d:41:1c:1c:22:da:95:12:a7:94:d9:64:57:54:
        2f:f6:60:c7:a9:40:10:06:e8:8a:3c:b9:df:a2:61:c6:84:62:
        ac:50:01:e8:f3:06:93:d5:a3:51:42:9e:5e:34:33:7e:44:d9:
        2c:16:47:63:9e:74:30:3a:4a:15:62:0f:46:26:27:8c:cc:47:
        71:34:0d:de:d0:58:d4:c1:b7:b6:b3:fc:8f:0e:04:2d:db:35:
        f0:57:3a:d5:2a:cd:34:fb:20:17:9c:58:51:3c:fb:43:ef:2e:
        7b:f3:02:99:fd:cf:45:25:f3:a6:e9:e8:7a:94:f1:ba:07:9c:
        90:c7
-----BEGIN CERTIFICATE-----
MIICWDCCAcGgAwIBAgIBBzANBgkqhkiG9w0BAQUFADAqMRswGQYDVQQDDBJoeDUw
OSBUZXN0IFJvb3QgQ0ExCzAJBgNVBAYTAlNFMB4XDTA5MDQxMzIwNDI1M1oXDTE5
MDQxMTIwNDI1M1owHjELMAkGA1UEBhMCU0UxDzANBgNVBAMMBlN1YiBDQTCBnzAN
BgkqhkiG9w0BAQEFAAOBjQAwgYkCgYEAtj9DK/ZSBdmuQ9VK+hukTRNygC7IbMYt
jvD8fhmORMoqubrE//fieXUiOBPhJC+g0/MrK32hRS97OhDRWqweXl8XxpNfgzAz
IGpxG2oWQwAqI/ruPnFFGiWQaFfoekisYrRGYzfE5Lc+38B15MImUNX9nMrz6bQN
dYyLjNPfqEsCAwEAAaOBmTCBljAdBgNVHQ4EFgQUj1nzzM4mfLkZkTTka4RLvLKg
CFwwWgYDVR0jBFMwUYAUexwIpJPepjT4WP8pWpcsB8YSOvuhLqQsMCoxGzAZBgNV
BAMMEmh4NTA5IFRlc3QgUm9vdCBDQTELMAkGA1UEBhMCU0WCCQCayq4ZKFpHwTAM
BgNVHRMEBTADAQH/MAsGA1UdDwQEAwIB5jANBgkqhkiG9w0BAQUFAAOBgQAOiPQr
jUEcHCLalRKnlNlkV1Qv9mDHqUAQBuiKPLnfomHGhGKsUAHo8waT1aNRQp5eNDN+
RNksFkdjnnQwOkoVYg9GJieMzEdxNA3e0FjUwbe2s/yPDgQt2zXwVzrVKs00+yAX
nFhRPPtD7y578wKZ/c9FJfOm6eh6lPG6B5yQxw==
-----END CERTIFICATE-----
