Certificate:
    Data:
        Version: 3 (0x2)
        Serial Number: 9 (0x9)
        Signature Algorithm: sha1WithRSAEncryption
        Issuer: C=SE, CN=Sub CA
        Validity
            Not Before: Dec  8 02:18:00 2006 GMT
            Not After : Dec  5 02:18:00 2016 GMT
        Subject: C=SE, CN=Test sub cert
        Subject Public Key Info:
            Public Key Algorithm: rsaEncryption
            RSA Public Key: (1024 bit)
                Modulus (1024 bit):
                    00:ab:51:9c:bc:5e:f0:ab:1c:7f:1f:d0:00:ba:d9:
                    c6:0c:97:65:ed:56:63:5f:b4:4b:42:b7:47:f2:74:
                    92:88:1c:d6:f1:33:fe:bb:97:82:1b:cf:0d:14:6a:
                    89:71:56:56:5b:78:7f:a8:ff:9b:8b:42:16:02:aa:
                    db:77:7b:57:c0:1c:6d:1d:bf:4b:f1:b6:71:2d:2d:
                    6e:7d:bf:27:00:9e:0a:e3:c4:7b:f2:e5:57:82:8a:
                    e5:30:b5:9a:fa:0a:c1:a8:bf:b5:de:c0:63:61:82:
                    22:91:2e:79:b3:36:5d:a4:61:e5:8f:47:5f:8d:14:
                    82:6c:ab:28:a7:68:f9:b5:e9
                Exponent: 65537 (0x10001)
        X509v3 extensions:
            X509v3 Basic Constraints: 
                CA:FALSE
            X509v3 Key Usage: 
                Digital Signature, Non Repudiation, Key Encipherment
            X509v3 Subject Key Identifier: 
                9F:2A:DA:E7:F7:DF:E0:BC:57:9C:CE:4D:51:7D:CA:BC:FA:02:1B:8C
    Signature Algorithm: sha1WithRSAEncryption
        37:15:6f:b4:87:24:1d:4d:4d:40:d1:3a:7b:4e:b5:f2:c7:c7:
        e2:bd:95:24:9f:5e:68:72:61:95:d6:31:04:bb:d3:e3:92:b1:
        f0:41:1f:67:4f:3c:3a:7c:0a:5e:0a:56:e4:16:3f:b0:ba:50:
        fa:5f:5c:2f:14:21:61:a4:89:51:e2:c2:d2:fd:95:58:c0:1d:
        70:0f:0a:03:2c:80:ba:89:e2:6e:c6:50:82:85:54:92:94:cc:
        33:0c:af:3b:e9:d3:54:e7:78:4b:ff:4b:69:69:56:cf:9e:b9:
        04:52:bc:91:8d:fe:67:25:fd:c7:89:d1:c9:2f:b5:19:fd:d0:
        2b:aa
-----BEGIN CERTIFICATE-----
MIIB8jCCAVugAwIBAgIBCTANBgkqhkiG9w0BAQUFADAeMQswCQYDVQQGEwJTRTEP
MA0GA1UEAwwGU3ViIENBMB4XDTA2MTIwODAyMTgwMFoXDTE2MTIwNTAyMTgwMFow
JTELMAkGA1UEBhMCU0UxFjAUBgNVBAMMDVRlc3Qgc3ViIGNlcnQwgZ8wDQYJKoZI
hvcNAQEBBQADgY0AMIGJAoGBAKtRnLxe8Kscfx/QALrZxgyXZe1WY1+0S0K3R/J0
kogc1vEz/ruXghvPDRRqiXFWVlt4f6j/m4tCFgKq23d7V8AcbR2/S/G2cS0tbn2/
JwCeCuPEe/LlV4KK5TC1mvoKwai/td7AY2GCIpEuebM2XaRh5Y9HX40UgmyrKKdo
+bXpAgMBAAGjOTA3MAkGA1UdEwQCMAAwCwYDVR0PBAQDAgXgMB0GA1UdDgQWBBSf
Ktrn99/gvFeczk1Rfcq8+gIbjDANBgkqhkiG9w0BAQUFAAOBgQA3FW+0hyQdTU1A
0Tp7TrXyx8fivZUkn15ocmGV1jEEu9PjkrHwQR9nTzw6fApeClbkFj+wulD6X1wv
FCFhpIlR4sLS/ZVYwB1wDwoDLIC6ieJuxlCChVSSlMwzDK876dNU53hL/0tpaVbP
nrkEUryRjf5nJf3HidHJL7UZ/dArqg==
-----END CERTIFICATE-----
