Certificate:
    Data:
        Version: 3 (0x2)
        Serial Number: 8 (0x8)
        Signature Algorithm: sha1WithRSAEncryption
        Issuer: C=SE, CN=Sub CA
        Validity
            Not Before: Apr 13 21:53:35 2009 GMT
            Not After : Apr 11 21:53:35 2019 GMT
        Subject: C=SE, CN=Test sub cert
        Subject Public Key Info:
            Public Key Algorithm: rsaEncryption
                Public-Key: (1024 bit)
                Modulus:
                    00:b7:da:10:c8:e4:49:3d:8b:b7:09:40:8d:bd:62:
                    7c:65:82:f1:ed:4f:fa:ac:19:9a:8e:ea:f8:6e:61:
                    32:c5:62:11:5a:aa:eb:81:70:2e:ea:74:d1:17:db:
                    8c:ca:43:89:23:b7:0d:ab:a8:6e:7c:5d:2f:71:4e:
                    ef:63:ae:db:32:69:d0:54:9d:a7:85:10:ff:85:71:
                    0c:b2:f2:bf:6a:5e:40:3c:e2:04:c0:13:db:6c:25:
                    a5:66:d8:93:01:80:b4:29:fa:5c:e4:13:3d:24:ee:
                    d4:14:90:7f:c9:40:a9:82:15:54:fd:9a:a4:49:74:
                    f9:3c:3b:c3:d6:36:ae:8a:bf
                Exponent: 65537 (0x10001)
        X509v3 extensions:
            X509v3 Basic Constraints: 
                CA:FALSE
            X509v3 Key Usage: 
                Digital Signature, Non Repudiation, Key Encipherment
            X509v3 Subject Key Identifier: 
                55:2A:85:39:32:4F:F9:95:1C:42:EF:E7:37:6F:BA:49:EB:18:11:B7
    Signature Algorithm: sha1WithRSAEncryption
        76:d5:be:d1:e7:59:cb:0a:8d:c8:3e:9b:ab:fa:1f:28:a9:67:
        d2:db:29:f3:3b:f4:bc:84:9e:4d:39:52:c7:40:ec:8a:09:c9:
        24:b1:b1:02:e3:89:c8:c8:85:5a:35:45:de:d2:02:78:a1:c2:
        dd:64:5a:35:1c:a1:7b:d5:c4:d6:b6:29:57:04:38:9f:f1:79:
        a9:b4:82:f8:98:ab:7d:74:94:15:4f:4b:1d:04:e8:86:d6:bd:
        87:b7:27:cc:17:4d:eb:f4:34:1d:be:37:2e:36:e0:e0:51:69:
        f9:87:ac:d0:86:4a:bf:93:8f:a3:75:fa:ac:1a:34:11:05:80:
        97:c3
-----BEGIN CERTIFICATE-----
MIIB8jCCAVugAwIBAgIBCDANBgkqhkiG9w0BAQUFADAeMQswCQYDVQQGEwJTRTEP
MA0GA1UEAwwGU3ViIENBMB4XDTA5MDQxMzIxNTMzNVoXDTE5MDQxMTIxNTMzNVow
JTELMAkGA1UEBhMCU0UxFjAUBgNVBAMMDVRlc3Qgc3ViIGNlcnQwgZ8wDQYJKoZI
hvcNAQEBBQADgY0AMIGJAoGBALfaEMjkST2LtwlAjb1ifGWC8e1P+qwZmo7q+G5h
MsViEVqq64FwLup00RfbjMpDiSO3DauobnxdL3FO72Ou2zJp0FSdp4UQ/4VxDLLy
v2peQDziBMAT22wlpWbYkwGAtCn6XOQTPSTu1BSQf8lAqYIVVP2apEl0+Tw7w9Y2
roq/AgMBAAGjOTA3MAkGA1UdEwQCMAAwCwYDVR0PBAQDAgXgMB0GA1UdDgQWBBRV
KoU5Mk/5lRxC7+c3b7pJ6xgRtzANBgkqhkiG9w0BAQUFAAOBgQB21b7R51nLCo3I
Ppur+h8oqWfS2ynzO/S8hJ5NOVLHQOyKCckksbEC44nIyIVaNUXe0gJ4ocLdZFo1
HKF71cTWtilXBDif8XmptIL4mKt9dJQVT0sdBOiG1r2HtyfMF03r9DQdvjcuNuDg
UWn5h6zQhkq/k4+jdfqsGjQRBYCXww==
-----END CERTIFICATE-----
