Certificate:
    Data:
        Version: 3 (0x2)
        Serial Number: 6 (0x6)
        Signature Algorithm: sha1WithRSAEncryption
        Issuer: CN=hx509 Test Root CA, C=SE
        Validity
            Not Before: Apr 26 16:09:43 2006 GMT
            Not After : Apr 23 16:09:43 2016 GMT
        Subject: C=SE, CN=Sub CA
        Subject Public Key Info:
            Public Key Algorithm: rsaEncryption
            RSA Public Key: (1024 bit)
                Modulus (1024 bit):
                    00:b9:86:be:7a:1f:84:40:cc:7d:c5:e1:02:f2:0a:
                    f0:ee:46:7b:4c:79:be:2c:32:63:8c:fc:c7:1b:d3:
                    b1:1f:63:d2:6b:9f:2f:20:44:77:57:93:ad:23:e9:
                    7d:55:2e:ec:1d:af:78:5e:5b:55:33:5f:77:65:3e:
                    74:f9:3a:de:1d:cd:02:97:9c:bf:76:d2:ce:e8:2b:
                    b9:da:21:a0:53:9e:dd:24:bf:06:0f:17:15:b8:d8:
                    02:47:43:0d:ec:75:6b:41:11:c6:57:41:64:dd:28:
                    54:5e:fe:d2:c9:d0:ad:d7:3e:73:5c:35:e6:aa:88:
                    eb:d3:23:3b:6b:45:92:e7:e5
                Exponent: 65537 (0x10001)
        X509v3 extensions:
            X509v3 Subject Key Identifier: 
                00:45:3C:E2:AA:87:4D:54:FF:9D:A9:EE:29:0B:D0:D3:04:03:13:8E
            X509v3 Authority Key Identifier: 
                keyid:A1:C2:1E:9A:CF:DD:C7:31:5B:AC:A8:58:76:CD:57:13:C9:E6:29:59
                DirName:/CN=hx509 Test Root CA/C=SE
                serial:FA:8E:84:62:A6:EC:FE:ED

            X509v3 Basic Constraints: 
                CA:TRUE
            X509v3 Key Usage: 
                Digital Signature, Non Repudiation, Key Encipherment, Certificate Sign, CRL Sign
    Signature Algorithm: sha1WithRSAEncryption
        b0:3f:cc:06:99:d8:0d:90:5a:c8:15:23:4c:b5:d3:48:af:ca:
        39:e5:18:14:a8:de:dc:78:3a:ea:2b:d8:b5:71:2d:37:7b:17:
        f1:86:eb:e1:4d:bf:cf:9c:ac:b9:b9:b8:d1:54:95:90:fc:b8:
        48:2d:63:69:cf:6b:86:00:dc:17:f8:56:7d:87:af:54:9e:bf:
        b8:53:07:71:b1:3a:b3:fb:b1:0b:91:74:6a:ac:0d:40:a4:4f:
        62:10:8f:a1:d8:84:39:fc:36:9c:7e:d9:80:2e:21:f8:c1:32:
        31:f1:45:78:5e:66:6c:55:4b:f4:ce:30:d5:c0:00:3d:3a:5c:
        d3:d5
-----BEGIN CERTIFICATE-----
MIICWDCCAcGgAwIBAgIBBjANBgkqhkiG9w0BAQUFADAqMRswGQYDVQQDDBJoeDUw
OSBUZXN0IFJvb3QgQ0ExCzAJBgNVBAYTAlNFMB4XDTA2MDQyNjE2MDk0M1oXDTE2
MDQyMzE2MDk0M1owHjELMAkGA1UEBhMCU0UxDzANBgNVBAMMBlN1YiBDQTCBnzAN
BgkqhkiG9w0BAQEFAAOBjQAwgYkCgYEAuYa+eh+EQMx9xeEC8grw7kZ7THm+LDJj
jPzHG9OxH2PSa58vIER3V5OtI+l9VS7sHa94XltVM193ZT50+TreHc0Cl5y/dtLO
6Cu52iGgU57dJL8GDxcVuNgCR0MN7HVrQRHGV0Fk3ShUXv7SydCt1z5zXDXmqojr
0yM7a0WS5+UCAwEAAaOBmTCBljAdBgNVHQ4EFgQUAEU84qqHTVT/nanuKQvQ0wQD
E44wWgYDVR0jBFMwUYAUocIems/dxzFbrKhYds1XE8nmKVmhLqQsMCoxGzAZBgNV
BAMMEmh4NTA5IFRlc3QgUm9vdCBDQTELMAkGA1UEBhMCU0WCCQD6joRipuz+7TAM
BgNVHRMEBTADAQH/MAsGA1UdDwQEAwIB5jANBgkqhkiG9w0BAQUFAAOBgQCwP8wG
mdgNkFrIFSNMtdNIr8o55RgUqN7ceDrqK9i1cS03exfxhuvhTb/PnKy5ubjRVJWQ
/LhILWNpz2uGANwX+FZ9h69Unr+4UwdxsTqz+7ELkXRqrA1ApE9iEI+h2IQ5/Dac
ftmALiH4wTIx8UV4XmZsVUv0zjDVwAA9OlzT1Q==
-----END CERTIFICATE-----
