Certificate:
    Data:
        Version: 3 (0x2)
        Serial Number: 9 (0x9)
        Signature Algorithm: sha1WithRSAEncryption
        Issuer: CN=hx509 Test Root CA, C=SE
        Validity
            Not Before: Jul 19 13:43:34 2007 GMT
            Not After : Jul 16 13:43:34 2017 GMT
        Subject: C=SE, CN=Sub CA
        Subject Public Key Info:
            Public Key Algorithm: rsaEncryption
            RSA Public Key: (1024 bit)
                Modulus (1024 bit):
                    00:eb:1d:1b:47:37:91:34:45:53:67:3b:93:c1:32:
                    93:ba:b5:df:d1:6d:b9:18:2d:5e:8d:36:cb:43:6f:
                    23:ce:78:57:93:d7:08:d4:00:3d:83:aa:fe:1c:6b:
                    98:88:a0:93:4a:6f:e2:48:86:7b:9a:67:70:c7:3e:
                    86:0d:e1:31:9c:b1:bd:5a:ff:a0:d1:2d:11:b5:2f:
                    79:d0:9e:35:89:bb:ee:98:15:ce:39:99:27:1d:df:
                    1b:ab:dc:bc:f7:72:b9:44:ee:ef:7f:c6:b3:59:6f:
                    29:92:53:a5:2f:05:e7:e2:fa:1e:cc:b3:c3:16:eb:
                    2b:a4:c9:2c:79:60:91:fd:e3
                Exponent: 65537 (0x10001)
        X509v3 extensions:
            X509v3 Subject Key Identifier: 
                9E:76:85:9F:1F:19:81:E8:A1:19:4A:F9:4C:C9:4D:64:2C:4E:5E:85
            X509v3 Authority Key Identifier: 
                keyid:69:1F:F7:6E:E3:EE:D5:8F:E5:A8:98:34:6E:3D:59:6B:E1:7D:22:4F
                DirName:/CN=hx509 Test Root CA/C=SE
                serial:A2:AE:F7:82:5C:68:ED:68

            X509v3 Basic Constraints: 
                CA:TRUE
            X509v3 Key Usage: 
                Digital Signature, Non Repudiation, Key Encipherment, Certificate Sign, CRL Sign
    Signature Algorithm: sha1WithRSAEncryption
        0d:81:91:35:db:b1:36:a5:de:44:94:f1:8a:ee:de:83:91:83:
        22:e6:cf:c7:c5:c5:83:72:c4:a4:e8:02:fb:a6:09:86:10:78:
        1a:43:62:1f:ff:92:31:e4:e7:70:82:2a:f3:6f:bc:69:2f:40:
        3d:fe:85:14:31:1e:0f:ff:e9:74:e9:cc:d6:20:50:1d:71:95:
        87:21:2e:8d:00:91:85:97:23:4d:3d:d4:ca:43:19:e7:e7:0c:
        9a:b9:cd:25:4d:4f:c2:fe:42:41:11:5c:e7:ca:50:83:b0:82:
        e7:d2:f4:b4:9c:c7:fe:c5:a7:86:08:fb:80:e6:45:53:0c:ed:
        fc:0b
-----BEGIN CERTIFICATE-----
MIICWDCCAcGgAwIBAgIBCTANBgkqhkiG9w0BAQUFADAqMRswGQYDVQQDDBJoeDUw
OSBUZXN0IFJvb3QgQ0ExCzAJBgNVBAYTAlNFMB4XDTA3MDcxOTEzNDMzNFoXDTE3
MDcxNjEzNDMzNFowHjELMAkGA1UEBhMCU0UxDzANBgNVBAMMBlN1YiBDQTCBnzAN
BgkqhkiG9w0BAQEFAAOBjQAwgYkCgYEA6x0bRzeRNEVTZzuTwTKTurXf0W25GC1e
jTbLQ28jznhXk9cI1AA9g6r+HGuYiKCTSm/iSIZ7mmdwxz6GDeExnLG9Wv+g0S0R
tS950J41ibvumBXOOZknHd8bq9y893K5RO7vf8azWW8pklOlLwXn4voezLPDFusr
pMkseWCR/eMCAwEAAaOBmTCBljAdBgNVHQ4EFgQUnnaFnx8ZgeihGUr5TMlNZCxO
XoUwWgYDVR0jBFMwUYAUaR/3buPu1Y/lqJg0bj1Za+F9Ik+hLqQsMCoxGzAZBgNV
BAMMEmh4NTA5IFRlc3QgUm9vdCBDQTELMAkGA1UEBhMCU0WCCQCirveCXGjtaDAM
BgNVHRMEBTADAQH/MAsGA1UdDwQEAwIB5jANBgkqhkiG9w0BAQUFAAOBgQANgZE1
27E2pd5ElPGK7t6DkYMi5s/HxcWDcsSk6AL7pgmGEHgaQ2If/5Ix5Odwgirzb7xp
L0A9/oUUMR4P/+l06czWIFAdcZWHIS6NAJGFlyNNPdTKQxnn5wyauc0lTU/C/kJB
EVznylCDsILn0vS0nMf+xaeGCPuA5kVTDO38Cw==
-----END CERTIFICATE-----
