Certificate:
    Data:
        Version: 3 (0x2)
        Serial Number: 9 (0x9)
        Signature Algorithm: sha1WithRSAEncryption
        Issuer: C=SE, CN=Sub CA
        Validity
            Not Before: Nov 13 05:47:15 2006 GMT
            Not After : Nov 10 05:47:15 2016 GMT
        Subject: C=SE, CN=Test sub cert
        Subject Public Key Info:
            Public Key Algorithm: rsaEncryption
            RSA Public Key: (1024 bit)
                Modulus (1024 bit):
                    00:c0:60:d3:83:c9:d1:da:6c:9c:80:45:3b:a2:e0:
                    40:cb:57:33:92:13:d2:f9:c6:d3:0e:b7:40:88:84:
                    35:40:be:72:4f:d4:7e:1f:24:2b:f4:32:e5:e5:bc:
                    8e:9a:45:da:52:68:ec:1d:3f:8b:63:bc:d5:85:79:
                    f8:e3:3c:c7:90:9c:6b:12:6e:5a:e3:3f:23:d7:62:
                    4d:0b:e3:fe:78:86:bb:a5:1a:4c:49:c3:ef:6b:85:
                    d8:6b:85:7b:b9:dc:09:e8:35:a4:25:6c:3b:35:e9:
                    be:3d:9b:77:ba:bd:aa:24:b5:30:a9:1f:04:45:f2:
                    84:33:0e:c6:9a:eb:43:6d:7d
                Exponent: 65537 (0x10001)
        X509v3 extensions:
            X509v3 Basic Constraints: 
                CA:FALSE
            X509v3 Key Usage: 
                Digital Signature, Non Repudiation, Key Encipherment
            X509v3 Subject Key Identifier: 
                D0:4C:70:FE:A6:A1:D6:7C:3C:1E:40:63:A1:72:6C:9B:86:13:E6:31
    Signature Algorithm: sha1WithRSAEncryption
        75:3c:c1:0c:b7:3b:59:47:c5:e5:c4:30:ae:5a:b3:16:ca:0f:
        40:d9:d8:75:37:8e:61:d7:71:15:43:4e:c3:a7:da:a6:70:bc:
        cc:fb:72:f7:2c:11:f8:2b:50:0a:78:5d:13:c6:af:1f:23:e6:
        82:41:ed:40:ae:63:5c:6d:7d:cd:b7:0c:e0:56:66:b6:2c:78:
        41:de:57:a2:1e:5a:ab:d3:8d:b3:0f:90:53:47:93:54:7a:23:
        ce:0e:70:ba:2b:e9:ac:49:df:aa:20:96:d2:ae:6f:ab:71:44:
        20:76:e0:1e:6f:d3:33:9b:b1:44:58:d6:99:05:e5:e3:fc:0d:
        f1:52
-----BEGIN CERTIFICATE-----
MIIB8jCCAVugAwIBAgIBCTANBgkqhkiG9w0BAQUFADAeMQswCQYDVQQGEwJTRTEP
MA0GA1UEAwwGU3ViIENBMB4XDTA2MTExMzA1NDcxNVoXDTE2MTExMDA1NDcxNVow
JTELMAkGA1UEBhMCU0UxFjAUBgNVBAMMDVRlc3Qgc3ViIGNlcnQwgZ8wDQYJKoZI
hvcNAQEBBQADgY0AMIGJAoGBAMBg04PJ0dpsnIBFO6LgQMtXM5IT0vnG0w63QIiE
NUC+ck/Ufh8kK/Qy5eW8jppF2lJo7B0/i2O81YV5+OM8x5CcaxJuWuM/I9diTQvj
/niGu6UaTEnD72uF2GuFe7ncCeg1pCVsOzXpvj2bd7q9qiS1MKkfBEXyhDMOxprr
Q219AgMBAAGjOTA3MAkGA1UdEwQCMAAwCwYDVR0PBAQDAgXgMB0GA1UdDgQWBBTQ
THD+pqHWfDweQGOhcmybhhPmMTANBgkqhkiG9w0BAQUFAAOBgQB1PMEMtztZR8Xl
xDCuWrMWyg9A2dh1N45h13EVQ07Dp9qmcLzM+3L3LBH4K1AKeF0Txq8fI+aCQe1A
rmNcbX3NtwzgVma2LHhB3leiHlqr042zD5BTR5NUeiPODnC6K+msSd+qIJbSrm+r
cUQgduAeb9Mzm7FEWNaZBeXj/A3xUg==
-----END CERTIFICATE-----
