Certificate:
    Data:
        Version: 3 (0x2)
        Serial Number: 9 (0x9)
        Signature Algorithm: sha1WithRSAEncryption
        Issuer: C=SE, CN=Sub CA
        Validity
            Not Before: Dec 31 01:30:02 2006 GMT
            Not After : Dec 28 01:30:02 2016 GMT
        Subject: C=SE, CN=Test sub cert
        Subject Public Key Info:
            Public Key Algorithm: rsaEncryption
            RSA Public Key: (1024 bit)
                Modulus (1024 bit):
                    00:e9:3c:c1:aa:8a:72:f4:4e:73:13:11:ff:09:9a:
                    0d:01:76:d3:63:97:16:12:4c:d8:ec:9f:69:46:e3:
                    7d:e9:6b:6d:6c:f6:dd:79:c2:9c:cc:28:de:ad:f8:
                    b5:49:dd:f7:36:6f:98:78:fb:c0:f7:d2:f4:67:c0:
                    69:60:12:42:9b:c9:90:00:0a:a9:1b:32:76:86:0e:
                    fd:b6:fd:ea:63:c7:29:de:4b:87:42:e3:ed:e4:a4:
                    ec:56:3f:1e:63:c2:6c:83:18:5c:ce:54:ac:02:f9:
                    a2:58:13:0f:cc:a6:44:e2:8b:69:40:44:82:70:4c:
                    c5:d4:15:2d:1d:c9:b0:40:01
                Exponent: 65537 (0x10001)
        X509v3 extensions:
            X509v3 Basic Constraints: 
                CA:FALSE
            X509v3 Key Usage: 
                Digital Signature, Non Repudiation, Key Encipherment
            X509v3 Subject Key Identifier: 
                99:EC:8F:6D:54:9B:B1:FB:B0:F6:A7:0F:26:9F:44:E3:F9:67:FD:2E
    Signature Algorithm: sha1WithRSAEncryption
        a2:1f:c2:cb:7e:83:06:67:0f:47:52:75:7b:9d:30:b1:ae:74:
        ee:a6:62:f6:cc:33:cc:d7:77:3f:c7:7e:d8:df:9f:fe:04:69:
        b9:f8:65:e5:bf:cb:7c:3d:5c:c9:a8:61:6c:84:f8:0c:04:d6:
        92:e1:72:62:1e:7f:ae:56:4b:eb:5a:a0:8f:1b:0c:af:09:4a:
        c0:cf:32:bc:98:b8:74:73:51:53:7a:6b:f9:2a:53:32:d1:24:
        19:70:37:af:fb:97:8b:c8:bf:ee:aa:bb:19:e6:f1:66:37:cd:
        57:e5:df:5d:c6:6c:e3:cb:47:c4:78:cf:f9:e0:9f:19:40:3b:
        ed:2d
-----BEGIN CERTIFICATE-----
MIIB8jCCAVugAwIBAgIBCTANBgkqhkiG9w0BAQUFADAeMQswCQYDVQQGEwJTRTEP
MA0GA1UEAwwGU3ViIENBMB4XDTA2MTIzMTAxMzAwMloXDTE2MTIyODAxMzAwMlow
JTELMAkGA1UEBhMCU0UxFjAUBgNVBAMMDVRlc3Qgc3ViIGNlcnQwgZ8wDQYJKoZI
hvcNAQEBBQADgY0AMIGJAoGBAOk8waqKcvROcxMR/wmaDQF202OXFhJM2OyfaUbj
felrbWz23XnCnMwo3q34tUnd9zZvmHj7wPfS9GfAaWASQpvJkAAKqRsydoYO/bb9
6mPHKd5Lh0Lj7eSk7FY/HmPCbIMYXM5UrAL5olgTD8ymROKLaUBEgnBMxdQVLR3J
sEABAgMBAAGjOTA3MAkGA1UdEwQCMAAwCwYDVR0PBAQDAgXgMB0GA1UdDgQWBBSZ
7I9tVJux+7D2pw8mn0Tj+Wf9LjANBgkqhkiG9w0BAQUFAAOBgQCiH8LLfoMGZw9H
UnV7nTCxrnTupmL2zDPM13c/x37Y35/+BGm5+GXlv8t8PVzJqGFshPgMBNaS4XJi
Hn+uVkvrWqCPGwyvCUrAzzK8mLh0c1FTemv5KlMy0SQZcDev+5eLyL/uqrsZ5vFm
N81X5d9dxmzjy0fEeM/54J8ZQDvtLQ==
-----END CERTIFICATE-----
