Certificate:
    Data:
        Version: 3 (0x2)
        Serial Number: 6 (0x6)
        Signature Algorithm: sha1WithRSAEncryption
        Issuer: CN=hx509 Test Root CA, C=SE
        Validity
            Not Before: Dec  7 23:40:49 2006 GMT
            Not After : Dec  4 23:40:49 2016 GMT
        Subject: C=SE, CN=Sub CA
        Subject Public Key Info:
            Public Key Algorithm: rsaEncryption
            RSA Public Key: (1024 bit)
                Modulus (1024 bit):
                    00:b0:27:3b:c2:30:29:aa:c2:00:3e:f7:51:0e:b9:
                    3a:6e:66:2e:36:ca:e0:e9:01:49:f4:5b:02:a4:13:
                    f6:11:b2:a7:fe:15:25:60:2a:54:6a:35:cb:aa:88:
                    aa:56:80:47:53:5f:38:9f:50:71:0e:a7:27:af:a7:
                    7c:2e:89:aa:a9:e4:19:52:6e:41:2a:f8:cf:27:c8:
                    95:27:3d:36:71:46:0a:60:9b:5a:d9:47:36:54:52:
                    9c:20:e2:3f:57:eb:a7:25:07:25:60:77:ad:54:1e:
                    5b:43:fe:c7:da:cd:af:c1:fa:82:d7:14:1d:20:5d:
                    b9:b1:d0:3b:20:36:fa:1d:81
                Exponent: 65537 (0x10001)
        X509v3 extensions:
            X509v3 Subject Key Identifier: 
                75:82:0C:D5:BA:7C:32:C6:7C:34:49:10:83:E7:9E:A2:42:4B:2F:99
            X509v3 Authority Key Identifier: 
                keyid:4D:D2:F6:2B:DC:64:57:D6:08:C4:51:F9:9F:76:B7:89:06:21:73:DE
                DirName:/CN=hx509 Test Root CA/C=SE
                serial:EE:BA:4C:A2:3B:14:27:B2

            X509v3 Basic Constraints: 
                CA:TRUE
            X509v3 Key Usage: 
                Digital Signature, Non Repudiation, Key Encipherment, Certificate Sign, CRL Sign
    Signature Algorithm: sha1WithRSAEncryption
        05:96:52:97:0a:56:79:10:a0:7f:b5:50:50:7d:0d:c5:e9:c1:
        7f:49:57:b9:35:ac:45:94:31:97:eb:7c:60:19:fe:b7:1b:6b:
        ba:2f:0b:cb:f9:bf:a1:b7:c7:43:14:8c:88:72:33:a9:0a:a3:
        20:dc:26:34:ce:45:c9:28:54:85:28:07:07:dc:72:0b:5c:7e:
        8a:73:e8:d2:cc:8d:df:c4:3d:c9:55:50:bb:3d:94:0a:29:90:
        72:00:6c:38:e0:d5:cb:ac:d7:23:55:3e:d2:b8:6b:f3:6c:b1:
        51:c5:d8:ba:75:b6:c2:dc:9a:a0:53:e5:81:1f:d6:b7:d2:71:
        23:5f
-----BEGIN CERTIFICATE-----
MIICWDCCAcGgAwIBAgIBBjANBgkqhkiG9w0BAQUFADAqMRswGQYDVQQDDBJoeDUw
OSBUZXN0IFJvb3QgQ0ExCzAJBgNVBAYTAlNFMB4XDTA2MTIwNzIzNDA0OVoXDTE2
MTIwNDIzNDA0OVowHjELMAkGA1UEBhMCU0UxDzANBgNVBAMMBlN1YiBDQTCBnzAN
BgkqhkiG9w0BAQEFAAOBjQAwgYkCgYEAsCc7wjApqsIAPvdRDrk6bmYuNsrg6QFJ
9FsCpBP2EbKn/hUlYCpUajXLqoiqVoBHU184n1BxDqcnr6d8LomqqeQZUm5BKvjP
J8iVJz02cUYKYJta2Uc2VFKcIOI/V+unJQclYHetVB5bQ/7H2s2vwfqC1xQdIF25
sdA7IDb6HYECAwEAAaOBmTCBljAdBgNVHQ4EFgQUdYIM1bp8MsZ8NEkQg+eeokJL
L5kwWgYDVR0jBFMwUYAUTdL2K9xkV9YIxFH5n3a3iQYhc96hLqQsMCoxGzAZBgNV
BAMMEmh4NTA5IFRlc3QgUm9vdCBDQTELMAkGA1UEBhMCU0WCCQDuukyiOxQnsjAM
BgNVHRMEBTADAQH/MAsGA1UdDwQEAwIB5jANBgkqhkiG9w0BAQUFAAOBgQAFllKX
ClZ5EKB/tVBQfQ3F6cF/SVe5NaxFlDGX63xgGf63G2u6LwvL+b+ht8dDFIyIcjOp
CqMg3CY0zkXJKFSFKAcH3HILXH6Kc+jSzI3fxD3JVVC7PZQKKZByAGw44NXLrNcj
VT7SuGvzbLFRxdi6dbbC3JqgU+WBH9a30nEjXw==
-----END CERTIFICATE-----
