Certificate:
    Data:
        Version: 3 (0x2)
        Serial Number: 10 (0xa)
        Signature Algorithm: sha1WithRSAEncryption
        Issuer: CN=hx509 Test Root CA, C=SE
        Validity
            Not Before: Apr 13 21:48:01 2009 GMT
            Not After : Apr 11 21:48:01 2019 GMT
        Subject: C=SE, CN=Sub CA
        Subject Public Key Info:
            Public Key Algorithm: rsaEncryption
            RSA Public Key: (1024 bit)
                Modulus (1024 bit):
                    00:e3:6d:42:f0:72:93:2a:b5:ea:6b:f3:80:ac:50:
                    8f:ed:ae:bd:1c:76:3b:d7:50:61:d9:a1:32:2f:57:
                    01:7a:2d:9c:d4:c9:ab:91:ee:91:1b:cb:59:1d:6e:
                    01:af:de:24:8d:00:26:15:31:52:be:11:16:a5:8a:
                    59:4b:9d:b8:49:a9:2a:ae:9a:56:6d:0f:9f:21:4b:
                    6a:11:61:e2:d8:72:b2:b7:da:2d:e6:36:b3:90:82:
                    4f:e3:24:36:96:0b:49:5c:48:6b:e2:f9:ff:40:24:
                    ea:d8:3e:da:a3:72:1a:82:ac:0d:1d:a6:a0:0f:54:
                    e1:18:dc:e9:3e:11:c5:ae:9b
                Exponent: 65537 (0x10001)
        X509v3 extensions:
            X509v3 Subject Key Identifier: 
                10:89:0B:17:61:CE:7E:63:8C:11:68:8F:FF:D5:C0:39:13:2C:BF:C3
            X509v3 Authority Key Identifier: 
                keyid:51:3C:E4:A7:30:14:8C:55:74:95:1C:58:6A:F2:C6:05:6A:A7:E3:F1
                DirName:/CN=hx509 Test Root CA/C=SE
                serial:9E:4F:9F:99:2B:2A:BA:7D

            X509v3 Basic Constraints: 
                CA:TRUE
            X509v3 Key Usage: 
                Digital Signature, Non Repudiation, Key Encipherment, Certificate Sign, CRL Sign
    Signature Algorithm: sha1WithRSAEncryption
        5b:fa:55:63:b4:03:5c:a0:24:33:da:b3:01:05:87:2f:7c:27:
        32:85:43:df:b5:18:3f:85:4d:cc:31:d7:10:28:08:f3:40:9d:
        c1:af:29:32:0b:bd:f1:18:e5:d3:f7:21:df:40:9e:07:ae:5f:
        e4:b2:09:e4:a8:ec:35:f5:d3:a0:59:3a:ab:a2:6f:1c:ce:74:
        01:55:74:45:83:08:cd:05:56:cd:a5:63:21:d4:fc:18:47:17:
        f9:fb:8b:1c:71:2d:be:6e:53:a1:92:0c:f4:f4:54:49:77:38:
        88:68:18:28:dd:3b:7c:b7:ed:34:74:1b:34:af:2d:25:f9:ca:
        d2:bc
-----BEGIN CERTIFICATE-----
MIICWDCCAcGgAwIBAgIBCjANBgkqhkiG9w0BAQUFADAqMRswGQYDVQQDDBJoeDUw
OSBUZXN0IFJvb3QgQ0ExCzAJBgNVBAYTAlNFMB4XDTA5MDQxMzIxNDgwMVoXDTE5
MDQxMTIxNDgwMVowHjELMAkGA1UEBhMCU0UxDzANBgNVBAMMBlN1YiBDQTCBnzAN
BgkqhkiG9w0BAQEFAAOBjQAwgYkCgYEA421C8HKTKrXqa/OArFCP7a69HHY711Bh
2aEyL1cBei2c1Mmrke6RG8tZHW4Br94kjQAmFTFSvhEWpYpZS524SakqrppWbQ+f
IUtqEWHi2HKyt9ot5jazkIJP4yQ2lgtJXEhr4vn/QCTq2D7ao3IagqwNHaagD1Th
GNzpPhHFrpsCAwEAAaOBmTCBljAdBgNVHQ4EFgQUEIkLF2HOfmOMEWiP/9XAORMs
v8MwWgYDVR0jBFMwUYAUUTzkpzAUjFV0lRxYavLGBWqn4/GhLqQsMCoxGzAZBgNV
BAMMEmh4NTA5IFRlc3QgUm9vdCBDQTELMAkGA1UEBhMCU0WCCQCeT5+ZKyq6fTAM
BgNVHRMEBTADAQH/MAsGA1UdDwQEAwIB5jANBgkqhkiG9w0BAQUFAAOBgQBb+lVj
tANcoCQz2rMBBYcvfCcyhUPftRg/hU3MMdcQKAjzQJ3BrykyC73xGOXT9yHfQJ4H
rl/ksgnkqOw19dOgWTqrom8cznQBVXRFgwjNBVbNpWMh1PwYRxf5+4sccS2+blOh
kgz09FRJdziIaBgo3Tt8t+00dBs0ry0l+crSvA==
-----END CERTIFICATE-----
