Certificate:
    Data:
        Version: 3 (0x2)
        Serial Number: 7 (0x7)
        Signature Algorithm: sha1WithRSAEncryption
        Issuer: C=SE, CN=Sub CA
        Validity
            Not Before: Apr 26 16:09:44 2006 GMT
            Not After : Apr 23 16:09:44 2016 GMT
        Subject: C=SE, CN=Test sub cert
        Subject Public Key Info:
            Public Key Algorithm: rsaEncryption
            RSA Public Key: (1024 bit)
                Modulus (1024 bit):
                    00:e7:ca:c6:41:bc:f7:aa:b5:3c:1d:e1:00:92:24:
                    3c:5a:17:e2:2b:3f:91:50:11:a1:31:f5:f2:3b:c3:
                    55:74:5b:48:fd:3c:b5:37:e5:5e:d6:4c:5d:49:f1:
                    c0:02:80:7d:3e:d8:a1:11:4d:fa:76:ff:23:c7:d5:
                    55:56:dd:6d:ec:1d:bc:e5:66:c6:58:34:c3:ae:db:
                    bf:0e:20:7e:4b:3b:9b:c7:0b:4b:bf:d2:fe:b9:f6:
                    84:4c:0e:3e:c3:05:41:f2:6c:e3:d9:04:84:de:5b:
                    90:00:48:7d:0c:8c:2b:dc:7c:00:b6:cf:4e:2d:d3:
                    86:c0:b6:ac:4b:b2:be:8f:7f
                Exponent: 65537 (0x10001)
        X509v3 extensions:
            X509v3 Basic Constraints: 
                CA:FALSE
            X509v3 Key Usage: 
                Digital Signature, Non Repudiation, Key Encipherment
            X509v3 Subject Key Identifier: 
                A1:CB:2D:C8:9F:AE:13:66:13:06:51:35:7B:54:CA:30:20:DD:A6:9F
    Signature Algorithm: sha1WithRSAEncryption
        b6:14:0f:08:ab:a8:c2:3f:d2:8c:d8:78:03:e5:8b:5a:9c:38:
        03:1e:b3:52:a4:5c:b7:cf:24:39:7c:fd:83:52:05:8e:a8:95:
        d7:19:f4:11:a1:60:c9:32:a3:7b:24:e9:18:1f:4d:0f:74:e6:
        63:36:22:66:73:99:96:90:0d:cc:5e:f2:e0:d4:fa:44:91:88:
        53:d2:4e:93:38:53:80:bd:4f:5c:69:c3:4f:a4:a5:09:22:86:
        bc:4a:66:e6:39:86:93:9e:6f:79:e3:9c:9e:39:cc:1f:e8:01:
        15:49:2a:50:2b:b4:76:fe:cd:89:1d:b8:b7:ab:27:7f:c0:17:
        cf:59
-----BEGIN CERTIFICATE-----
MIIB8jCCAVugAwIBAgIBBzANBgkqhkiG9w0BAQUFADAeMQswCQYDVQQGEwJTRTEP
MA0GA1UEAwwGU3ViIENBMB4XDTA2MDQyNjE2MDk0NFoXDTE2MDQyMzE2MDk0NFow
JTELMAkGA1UEBhMCU0UxFjAUBgNVBAMMDVRlc3Qgc3ViIGNlcnQwgZ8wDQYJKoZI
hvcNAQEBBQADgY0AMIGJAoGBAOfKxkG896q1PB3hAJIkPFoX4is/kVARoTH18jvD
VXRbSP08tTflXtZMXUnxwAKAfT7YoRFN+nb/I8fVVVbdbewdvOVmxlg0w67bvw4g
fks7m8cLS7/S/rn2hEwOPsMFQfJs49kEhN5bkABIfQyMK9x8ALbPTi3ThsC2rEuy
vo9/AgMBAAGjOTA3MAkGA1UdEwQCMAAwCwYDVR0PBAQDAgXgMB0GA1UdDgQWBBSh
yy3In64TZhMGUTV7VMowIN2mnzANBgkqhkiG9w0BAQUFAAOBgQC2FA8Iq6jCP9KM
2HgD5YtanDgDHrNSpFy3zyQ5fP2DUgWOqJXXGfQRoWDJMqN7JOkYH00PdOZjNiJm
c5mWkA3MXvLg1PpEkYhT0k6TOFOAvU9cacNPpKUJIoa8SmbmOYaTnm9545yeOcwf
6AEVSSpQK7R2/s2JHbi3qyd/wBfPWQ==
-----END CERTIFICATE-----
