Certificate:
    Data:
        Version: 3 (0x2)
        Serial Number: 9 (0x9)
        Signature Algorithm: sha1WithRSAEncryption
        Issuer: C=SE, CN=Sub CA
        Validity
            Not Before: Nov 23 17:37:09 2006 GMT
            Not After : Nov 20 17:37:09 2016 GMT
        Subject: C=SE, CN=Test sub cert
        Subject Public Key Info:
            Public Key Algorithm: rsaEncryption
            RSA Public Key: (1024 bit)
                Modulus (1024 bit):
                    00:b8:17:5c:85:fc:8f:1b:b0:1c:e5:6a:c3:6a:49:
                    e7:77:74:8f:b7:cd:7d:ea:8e:8b:bf:41:10:d5:97:
                    89:ad:5e:6c:5d:22:1b:51:9a:ac:0d:c7:46:26:1e:
                    f5:29:91:09:52:06:8e:43:f1:d2:3a:e6:fe:6b:cb:
                    14:12:d1:f3:17:c7:a2:4f:98:55:39:76:23:d9:30:
                    64:03:74:0d:01:7f:7d:07:1f:d6:33:d0:63:93:99:
                    5c:55:4b:48:d2:8c:fd:cc:37:a4:05:02:79:75:74:
                    21:db:fb:70:b2:54:e4:ca:7b:0b:d4:2e:6e:ce:5f:
                    1d:01:15:a9:b9:42:1a:b1:8d
                Exponent: 65537 (0x10001)
        X509v3 extensions:
            X509v3 Basic Constraints: 
                CA:FALSE
            X509v3 Key Usage: 
                Digital Signature, Non Repudiation, Key Encipherment
            X509v3 Subject Key Identifier: 
                87:6B:FA:E6:77:91:D1:8A:08:70:A9:E2:C2:AE:43:D7:39:8D:DE:B3
    Signature Algorithm: sha1WithRSAEncryption
        01:90:97:dc:8e:92:69:eb:b4:6b:ba:71:95:2c:a3:cf:2d:e7:
        5a:a7:53:aa:0c:76:94:78:5d:fc:55:0c:e1:5a:b3:71:e2:66:
        8c:82:2e:ed:8a:a8:d5:e4:9d:09:0e:a3:aa:0d:25:ec:ad:40:
        6d:71:bb:ba:63:2c:2a:37:0d:07:94:14:ac:6c:c3:d7:d6:98:
        fe:7e:ba:78:23:fd:1b:5e:f1:b9:c2:fd:59:ec:a5:b1:b5:94:
        47:0e:29:8e:2e:98:65:d8:31:fb:4e:9e:71:20:10:b9:f8:b2:
        14:8a:2f:ef:1c:38:5c:74:6f:4b:1e:6f:a5:e5:2c:2b:11:fe:
        cf:fe
-----BEGIN CERTIFICATE-----
MIIB8jCCAVugAwIBAgIBCTANBgkqhkiG9w0BAQUFADAeMQswCQYDVQQGEwJTRTEP
MA0GA1UEAwwGU3ViIENBMB4XDTA2MTEyMzE3MzcwOVoXDTE2MTEyMDE3MzcwOVow
JTELMAkGA1UEBhMCU0UxFjAUBgNVBAMMDVRlc3Qgc3ViIGNlcnQwgZ8wDQYJKoZI
hvcNAQEBBQADgY0AMIGJAoGBALgXXIX8jxuwHOVqw2pJ53d0j7fNfeqOi79BENWX
ia1ebF0iG1GarA3HRiYe9SmRCVIGjkPx0jrm/mvLFBLR8xfHok+YVTl2I9kwZAN0
DQF/fQcf1jPQY5OZXFVLSNKM/cw3pAUCeXV0Idv7cLJU5Mp7C9Qubs5fHQEVqblC
GrGNAgMBAAGjOTA3MAkGA1UdEwQCMAAwCwYDVR0PBAQDAgXgMB0GA1UdDgQWBBSH
a/rmd5HRighwqeLCrkPXOY3eszANBgkqhkiG9w0BAQUFAAOBgQABkJfcjpJp67Rr
unGVLKPPLedap1OqDHaUeF38VQzhWrNx4maMgi7tiqjV5J0JDqOqDSXsrUBtcbu6
YywqNw0HlBSsbMPX1pj+frp4I/0bXvG5wv1Z7KWxtZRHDimOLphl2DH7Tp5xIBC5
+LIUii/vHDhcdG9LHm+l5SwrEf7P/g==
-----END CERTIFICATE-----
