Certificate:
    Data:
        Version: 3 (0x2)
        Serial Number: 4 (0x4)
        Signature Algorithm: sha1WithRSAEncryption
        Issuer: CN=hx509 Test Root CA, C=SE
        Validity
            Not Before: Dec  7 23:40:48 2006 GMT
            Not After : Dec  4 23:40:48 2016 GMT
        Subject: C=SE, CN=Test cert KeyEncipherment
        Subject Public Key Info:
            Public Key Algorithm: rsaEncryption
            RSA Public Key: (1024 bit)
                Modulus (1024 bit):
                    00:eb:2a:6b:88:18:84:98:26:08:4f:5d:16:5f:6e:
                    cc:8b:da:ea:b7:c4:95:b9:87:0a:1b:18:44:c4:72:
                    79:60:c5:11:bb:c4:59:82:2e:22:00:f4:5c:33:73:
                    1d:91:a4:11:00:58:ba:7f:10:9c:d1:fe:ff:ef:3e:
                    e1:e0:9e:81:72:8a:34:26:66:6a:69:5e:36:b6:d1:
                    68:ef:dc:72:ac:a7:ca:89:73:7c:3a:b1:0e:3c:e9:
                    d2:4d:23:40:60:85:49:98:d8:86:9f:cd:86:1e:eb:
                    9e:47:a9:d4:13:1e:71:e9:18:3e:57:38:5b:66:14:
                    9b:2c:1f:96:44:10:64:a0:59
                Exponent: 65537 (0x10001)
        X509v3 extensions:
            X509v3 Basic Constraints: 
                CA:FALSE
            X509v3 Key Usage: 
                Non Repudiation, Key Encipherment
            X509v3 Subject Key Identifier: 
                4E:3B:B0:1D:4F:45:7A:6C:E1:5E:C2:55:B9:06:16:CB:50:67:E8:BD
    Signature Algorithm: sha1WithRSAEncryption
        8d:ca:03:39:56:9b:77:ea:8c:b1:16:a3:2d:d3:c1:2d:53:fe:
        7e:69:7d:26:d4:59:00:4b:d4:c2:20:00:fe:98:12:8b:6b:32:
        7d:08:c3:3f:c5:74:ef:93:0d:ae:f2:36:de:4a:bd:ea:47:61:
        f1:d1:70:e5:8a:3e:e8:df:9c:20:65:0c:2f:23:b9:dd:4b:ed:
        24:49:a0:9d:85:22:06:c4:56:01:80:82:36:c0:f6:47:57:c5:
        a8:fd:80:08:92:f7:63:29:4e:0c:76:2b:9e:5c:4c:1f:38:b3:
        35:a3:60:6d:19:0e:dd:66:c9:47:4d:60:1a:87:a4:a7:1a:bc:
        20:09
-----BEGIN CERTIFICATE-----
MIICCjCCAXOgAwIBAgIBBDANBgkqhkiG9w0BAQUFADAqMRswGQYDVQQDDBJoeDUw
OSBUZXN0IFJvb3QgQ0ExCzAJBgNVBAYTAlNFMB4XDTA2MTIwNzIzNDA0OFoXDTE2
MTIwNDIzNDA0OFowMTELMAkGA1UEBhMCU0UxIjAgBgNVBAMMGVRlc3QgY2VydCBL
ZXlFbmNpcGhlcm1lbnQwgZ8wDQYJKoZIhvcNAQEBBQADgY0AMIGJAoGBAOsqa4gY
hJgmCE9dFl9uzIva6rfElbmHChsYRMRyeWDFEbvEWYIuIgD0XDNzHZGkEQBYun8Q
nNH+/+8+4eCegXKKNCZmamleNrbRaO/ccqynyolzfDqxDjzp0k0jQGCFSZjYhp/N
hh7rnkep1BMecekYPlc4W2YUmywflkQQZKBZAgMBAAGjOTA3MAkGA1UdEwQCMAAw
CwYDVR0PBAQDAgVgMB0GA1UdDgQWBBROO7AdT0V6bOFewlW5BhbLUGfovTANBgkq
hkiG9w0BAQUFAAOBgQCNygM5Vpt36oyxFqMt08EtU/5+aX0m1FkAS9TCIAD+mBKL
azJ9CMM/xXTvkw2u8jbeSr3qR2Hx0XDlij7o35wgZQwvI7ndS+0kSaCdhSIGxFYB
gII2wPZHV8Wo/YAIkvdjKU4MdiueXEwfOLM1o2BtGQ7dZslHTWAah6SnGrwgCQ==
-----END CERTIFICATE-----
