Certificate:
    Data:
        Version: 3 (0x2)
        Serial Number: 5 (0x5)
        Signature Algorithm: sha1WithRSAEncryption
        Issuer: CN=hx509 Test Root CA, C=SE
        Validity
            Not Before: Feb  7 10:55:20 2009 GMT
            Not After : Feb  5 10:55:20 2019 GMT
        Subject: C=SE, CN=Test cert DigitalSignature
        Subject Public Key Info:
            Public Key Algorithm: rsaEncryption
            RSA Public Key: (1024 bit)
                Modulus (1024 bit):
                    00:c5:62:ef:d5:1d:84:44:fc:0b:fa:37:5d:eb:63:
                    f7:5e:34:02:cf:49:12:b1:13:aa:de:ae:12:22:8f:
                    d6:78:4a:9b:84:96:4b:17:07:00:bd:c9:6b:22:8f:
                    e3:0c:bc:31:2f:20:5e:38:de:c7:ab:4a:03:f3:40:
                    29:86:71:8e:0a:6d:29:9f:1b:d7:cc:af:e7:1d:66:
                    16:15:44:d7:36:c8:ae:62:72:46:17:93:92:d0:19:
                    83:e3:b5:9e:15:70:54:1b:16:e9:96:0f:1c:9c:5d:
                    79:ae:55:6a:bf:f1:8b:cf:aa:a8:e9:06:bd:ba:b3:
                    92:ff:f7:25:8e:38:eb:bd:03
                Exponent: 65537 (0x10001)
        X509v3 extensions:
            X509v3 Basic Constraints: 
                CA:FALSE
            X509v3 Key Usage: 
                Digital Signature, Non Repudiation
            X509v3 Subject Key Identifier: 
                2B:E9:1C:1A:03:52:7F:22:85:43:47:5C:BD:2B:C3:62:DB:B2:78:53
    Signature Algorithm: sha1WithRSAEncryption
        0b:b4:7a:09:67:01:3a:19:e9:24:30:e3:60:f3:7c:11:97:3b:
        c2:d7:1a:cc:31:12:c4:37:88:54:bb:9b:c2:0c:b1:9a:91:8d:
        8c:56:4d:40:37:57:35:34:d9:a1:87:66:46:fa:42:b8:c4:e0:
        63:6a:71:e7:42:3e:2e:19:8e:01:9b:ff:ad:2b:1b:9a:93:69:
        0b:38:82:72:d0:93:7f:38:44:21:51:96:e8:70:19:fc:c2:e6:
        87:68:2b:d0:51:46:01:a7:7e:08:ea:56:b0:3c:a7:52:28:8b:
        98:9c:93:1e:14:d4:27:de:ae:01:cb:86:45:99:25:7f:74:f3:
        80:93
-----BEGIN CERTIFICATE-----
MIICCzCCAXSgAwIBAgIBBTANBgkqhkiG9w0BAQUFADAqMRswGQYDVQQDDBJoeDUw
OSBUZXN0IFJvb3QgQ0ExCzAJBgNVBAYTAlNFMB4XDTA5MDIwNzEwNTUyMFoXDTE5
MDIwNTEwNTUyMFowMjELMAkGA1UEBhMCU0UxIzAhBgNVBAMMGlRlc3QgY2VydCBE
aWdpdGFsU2lnbmF0dXJlMIGfMA0GCSqGSIb3DQEBAQUAA4GNADCBiQKBgQDFYu/V
HYRE/Av6N13rY/deNALPSRKxE6rerhIij9Z4SpuElksXBwC9yWsij+MMvDEvIF44
3serSgPzQCmGcY4KbSmfG9fMr+cdZhYVRNc2yK5ickYXk5LQGYPjtZ4VcFQbFumW
DxycXXmuVWq/8YvPqqjpBr26s5L/9yWOOOu9AwIDAQABozkwNzAJBgNVHRMEAjAA
MAsGA1UdDwQEAwIGwDAdBgNVHQ4EFgQUK+kcGgNSfyKFQ0dcvSvDYtuyeFMwDQYJ
KoZIhvcNAQEFBQADgYEAC7R6CWcBOhnpJDDjYPN8EZc7wtcazDESxDeIVLubwgyx
mpGNjFZNQDdXNTTZoYdmRvpCuMTgY2px50I+LhmOAZv/rSsbmpNpCziCctCTfzhE
IVGW6HAZ/MLmh2gr0FFGAad+COpWsDynUiiLmJyTHhTUJ96uAcuGRZklf3TzgJM=
-----END CERTIFICATE-----
