Certificate:
    Data:
        Version: 3 (0x2)
        Serial Number: 4 (0x4)
        Signature Algorithm: sha1WithRSAEncryption
        Issuer: CN=hx509 Test Root CA, C=SE
        Validity
            Not Before: Jul 19 13:43:32 2007 GMT
            Not After : Jul 16 13:43:32 2017 GMT
        Subject: C=SE, CN=Test cert KeyEncipherment
        Subject Public Key Info:
            Public Key Algorithm: rsaEncryption
            RSA Public Key: (1024 bit)
                Modulus (1024 bit):
                    00:f5:82:97:2a:32:3a:03:7f:d2:5c:bc:0f:46:29:
                    b4:30:56:db:33:6c:69:be:57:09:ee:7f:c1:0e:c7:
                    95:24:c8:58:64:00:6a:09:54:bf:21:b9:77:c4:6d:
                    17:eb:88:9e:92:42:c9:35:17:c2:38:88:a8:93:c1:
                    62:8b:c2:5e:18:f9:46:12:00:c8:63:b2:e0:84:54:
                    36:5a:c5:a5:db:ca:e0:03:b7:7b:bb:49:eb:11:8d:
                    3d:5c:4a:43:e5:b6:2a:e3:f9:52:76:be:bd:ac:c3:
                    b9:85:d3:29:48:53:57:93:ce:08:41:f7:84:58:f5:
                    31:a2:de:96:95:1f:09:0a:01
                Exponent: 65537 (0x10001)
        X509v3 extensions:
            X509v3 Basic Constraints: 
                CA:FALSE
            X509v3 Key Usage: 
                Non Repudiation, Key Encipherment
            X509v3 Subject Key Identifier: 
                75:B2:1C:07:D0:DE:C2:04:18:0B:7D:9E:41:9B:AA:79:3E:48:6B:41
    Signature Algorithm: sha1WithRSAEncryption
        66:fb:3a:b1:57:70:d4:e7:28:fc:3b:bc:74:7b:c6:9a:76:13:
        45:22:b9:5d:ee:c8:70:27:4b:03:6b:67:73:5e:2d:1a:6a:56:
        33:51:d3:30:e5:49:ed:e0:e6:58:d3:8a:3f:d1:9c:b0:52:a2:
        44:62:a8:e6:40:a7:a5:05:c2:46:cc:b1:be:f7:28:6e:9d:c3:
        f8:f9:7c:b9:6e:6c:57:df:aa:62:c9:13:37:e6:f0:69:c5:0b:
        10:50:60:85:93:4b:67:5e:5a:e4:68:d3:1b:a5:84:ea:3e:40:
        de:28:cb:d0:11:48:42:9c:93:23:53:a7:20:4c:1d:1f:d9:2e:
        71:1b
-----BEGIN CERTIFICATE-----
MIICCjCCAXOgAwIBAgIBBDANBgkqhkiG9w0BAQUFADAqMRswGQYDVQQDDBJoeDUw
OSBUZXN0IFJvb3QgQ0ExCzAJBgNVBAYTAlNFMB4XDTA3MDcxOTEzNDMzMloXDTE3
MDcxNjEzNDMzMlowMTELMAkGA1UEBhMCU0UxIjAgBgNVBAMMGVRlc3QgY2VydCBL
ZXlFbmNpcGhlcm1lbnQwgZ8wDQYJKoZIhvcNAQEBBQADgY0AMIGJAoGBAPWClyoy
OgN/0ly8D0YptDBW2zNsab5XCe5/wQ7HlSTIWGQAaglUvyG5d8RtF+uInpJCyTUX
wjiIqJPBYovCXhj5RhIAyGOy4IRUNlrFpdvK4AO3e7tJ6xGNPVxKQ+W2KuP5Una+
vazDuYXTKUhTV5POCEH3hFj1MaLelpUfCQoBAgMBAAGjOTA3MAkGA1UdEwQCMAAw
CwYDVR0PBAQDAgVgMB0GA1UdDgQWBBR1shwH0N7CBBgLfZ5Bm6p5PkhrQTANBgkq
hkiG9w0BAQUFAAOBgQBm+zqxV3DU5yj8O7x0e8aadhNFIrld7shwJ0sDa2dzXi0a
alYzUdMw5Unt4OZY04o/0ZywUqJEYqjmQKelBcJGzLG+9yhuncP4+Xy5bmxX36pi
yRM35vBpxQsQUGCFk0tnXlrkaNMbpYTqPkDeKMvQEUhCnJMjU6cgTB0f2S5xGw==
-----END CERTIFICATE-----
