Certificate:
    Data:
        Version: 3 (0x2)
        Serial Number: 2 (0x2)
        Signature Algorithm: sha1WithRSAEncryption
        Issuer: CN=hx509 Test Root CA, C=SE
        Validity
            Not Before: Dec 31 01:29:59 2006 GMT
            Not After : Dec 28 01:29:59 2016 GMT
        Subject: C=SE, CN=Test cert
        Subject Public Key Info:
            Public Key Algorithm: rsaEncryption
            RSA Public Key: (1024 bit)
                Modulus (1024 bit):
                    00:cb:13:d5:7f:9b:f1:8f:0e:3c:89:7d:4c:95:b1:
                    27:b4:cb:ec:8d:89:11:00:d2:56:0f:06:67:ba:e8:
                    03:65:da:f2:a1:24:e1:a7:5a:a8:a0:b4:ca:37:3c:
                    c3:55:43:17:c1:10:7e:89:62:bd:8c:42:84:8f:a6:
                    d3:18:17:e5:4b:60:32:75:6b:6f:e4:50:09:f0:83:
                    bc:e8:a6:71:e1:68:0d:60:94:5c:05:69:82:61:79:
                    b5:3f:61:46:a4:d1:e1:71:18:86:b8:f0:56:55:71:
                    66:04:7f:59:5b:39:86:f2:04:07:b2:f6:08:61:20:
                    3e:ad:94:c6:e6:89:ec:f0:a9
                Exponent: 65537 (0x10001)
        X509v3 extensions:
            X509v3 Basic Constraints: 
                CA:FALSE
            X509v3 Key Usage: 
                Digital Signature, Non Repudiation, Key Encipherment
            X509v3 Subject Key Identifier: 
                3E:BB:F2:CF:5D:24:FF:CE:2B:26:86:F3:08:11:CC:E9:DE:36:81:9D
    Signature Algorithm: sha1WithRSAEncryption
        65:17:2f:f0:d1:93:7f:7e:cf:a1:cd:91:e2:25:7b:a5:90:e1:
        d6:91:f1:13:02:72:59:5e:9e:bf:cc:18:84:2b:41:82:17:44:
        ff:de:64:7f:ff:08:1c:9d:7f:58:a9:46:15:7f:27:81:57:7a:
        71:1b:68:b9:cb:91:a3:48:4c:9d:9d:f4:3d:06:73:1d:4b:3a:
        8a:fe:d0:c0:80:b9:00:47:9f:5a:f8:7f:24:c8:66:60:b4:be:
        16:a4:73:ec:ae:b7:ba:5c:a7:ce:5e:e5:07:50:de:30:73:04:
        38:a7:46:a2:dd:cd:6b:04:22:2b:0b:87:aa:5a:9a:c1:bf:23:
        36:30
-----BEGIN CERTIFICATE-----
MIIB+jCCAWOgAwIBAgIBAjANBgkqhkiG9w0BAQUFADAqMRswGQYDVQQDDBJoeDUw
OSBUZXN0IFJvb3QgQ0ExCzAJBgNVBAYTAlNFMB4XDTA2MTIzMTAxMjk1OVoXDTE2
MTIyODAxMjk1OVowITELMAkGA1UEBhMCU0UxEjAQBgNVBAMMCVRlc3QgY2VydDCB
nzANBgkqhkiG9w0BAQEFAAOBjQAwgYkCgYEAyxPVf5vxjw48iX1MlbEntMvsjYkR
ANJWDwZnuugDZdryoSThp1qooLTKNzzDVUMXwRB+iWK9jEKEj6bTGBflS2AydWtv
5FAJ8IO86KZx4WgNYJRcBWmCYXm1P2FGpNHhcRiGuPBWVXFmBH9ZWzmG8gQHsvYI
YSA+rZTG5ons8KkCAwEAAaM5MDcwCQYDVR0TBAIwADALBgNVHQ8EBAMCBeAwHQYD
VR0OBBYEFD678s9dJP/OKyaG8wgRzOneNoGdMA0GCSqGSIb3DQEBBQUAA4GBAGUX
L/DRk39+z6HNkeIle6WQ4daR8RMCcllenr/MGIQrQYIXRP/eZH//CBydf1ipRhV/
J4FXenEbaLnLkaNITJ2d9D0Gcx1LOor+0MCAuQBHn1r4fyTIZmC0vhakc+yut7pc
p85e5QdQ3jBzBDinRqLdzWsEIisLh6pamsG/IzYw
-----END CERTIFICATE-----
