Certificate:
    Data:
        Version: 3 (0x2)
        Serial Number: 4 (0x4)
        Signature Algorithm: sha1WithRSAEncryption
        Issuer: CN=hx509 Test Root CA, C=SE
        Validity
            Not Before: Nov 13 05:47:13 2006 GMT
            Not After : Nov 10 05:47:13 2016 GMT
        Subject: C=SE, CN=Test cert KeyEncipherment
        Subject Public Key Info:
            Public Key Algorithm: rsaEncryption
            RSA Public Key: (1024 bit)
                Modulus (1024 bit):
                    00:a3:4d:15:92:ff:8c:b7:b7:59:95:2e:a5:58:4f:
                    68:c1:81:2e:23:5e:6b:55:c1:b7:d2:bc:cb:58:82:
                    41:2d:88:63:f3:ef:d8:82:65:12:0f:c5:5d:58:f8:
                    dd:42:55:dc:0a:b2:60:d6:c9:93:a4:be:e1:04:a5:
                    58:29:eb:b2:1b:64:cf:17:9d:21:ad:aa:17:6f:de:
                    2e:30:0d:03:71:28:a7:cf:60:f3:a2:53:1c:f9:11:
                    08:55:ec:57:04:6a:a2:a4:88:67:e1:9e:52:b1:67:
                    50:7b:db:57:de:a5:c0:fb:bb:8f:1d:73:e4:8e:59:
                    b8:17:d0:91:53:59:dd:a5:d5
                Exponent: 65537 (0x10001)
        X509v3 extensions:
            X509v3 Basic Constraints: 
                CA:FALSE
            X509v3 Key Usage: 
                Non Repudiation, Key Encipherment
            X509v3 Subject Key Identifier: 
                0B:A4:CD:79:1E:3D:DB:84:85:D4:66:1E:E6:54:48:DF:A7:36:71:67
    Signature Algorithm: sha1WithRSAEncryption
        2b:e7:ab:f6:9a:00:f4:8e:f1:3f:0d:af:ad:38:e6:d4:29:35:
        93:ea:c9:98:3a:d2:cd:af:db:c1:de:69:1e:94:e7:25:25:e8:
        ae:72:68:99:33:1b:b4:e7:ba:82:df:20:96:ba:6e:91:59:f0:
        76:1f:db:1a:73:9c:2a:2a:b3:f3:6c:eb:c2:9c:00:90:01:ea:
        46:5e:42:c0:f3:6d:56:9f:59:ce:ef:98:48:7a:ca:fa:e6:03:
        18:ec:39:ba:74:8a:f7:ea:f6:98:de:88:15:35:49:df:0c:62:
        86:d4:63:bb:04:5f:53:dd:81:85:59:67:d9:ab:de:b6:7e:a8:
        07:65
-----BEGIN CERTIFICATE-----
MIICCjCCAXOgAwIBAgIBBDANBgkqhkiG9w0BAQUFADAqMRswGQYDVQQDDBJoeDUw
OSBUZXN0IFJvb3QgQ0ExCzAJBgNVBAYTAlNFMB4XDTA2MTExMzA1NDcxM1oXDTE2
MTExMDA1NDcxM1owMTELMAkGA1UEBhMCU0UxIjAgBgNVBAMMGVRlc3QgY2VydCBL
ZXlFbmNpcGhlcm1lbnQwgZ8wDQYJKoZIhvcNAQEBBQADgY0AMIGJAoGBAKNNFZL/
jLe3WZUupVhPaMGBLiNea1XBt9K8y1iCQS2IY/Pv2IJlEg/FXVj43UJV3AqyYNbJ
k6S+4QSlWCnrshtkzxedIa2qF2/eLjANA3Eop89g86JTHPkRCFXsVwRqoqSIZ+Ge
UrFnUHvbV96lwPu7jx1z5I5ZuBfQkVNZ3aXVAgMBAAGjOTA3MAkGA1UdEwQCMAAw
CwYDVR0PBAQDAgVgMB0GA1UdDgQWBBQLpM15Hj3bhIXUZh7mVEjfpzZxZzANBgkq
hkiG9w0BAQUFAAOBgQAr56v2mgD0jvE/Da+tOObUKTWT6smYOtLNr9vB3mkelOcl
JeiucmiZMxu057qC3yCWum6RWfB2H9sac5wqKrPzbOvCnACQAepGXkLA821Wn1nO
75hIesr65gMY7Dm6dIr36vaY3ogVNUnfDGKG1GO7BF9T3YGFWWfZq962fqgHZQ==
-----END CERTIFICATE-----
