Certificate:
    Data:
        Version: 3 (0x2)
        Serial Number: 2 (0x2)
        Signature Algorithm: sha1WithRSAEncryption
        Issuer: CN=hx509 Test Root CA, C=SE
        Validity
            Not Before: Nov 13 05:47:13 2006 GMT
            Not After : Nov 10 05:47:13 2016 GMT
        Subject: C=SE, CN=Test cert
        Subject Public Key Info:
            Public Key Algorithm: rsaEncryption
            RSA Public Key: (1024 bit)
                Modulus (1024 bit):
                    00:d4:89:87:43:7f:93:a4:1d:96:a6:56:8d:50:da:
                    24:1f:60:79:35:59:f6:ef:4e:b3:2b:57:ae:b0:f1:
                    68:35:b7:06:75:d4:4f:9b:2a:32:3c:54:cf:bf:78:
                    ce:92:ab:6d:dd:be:5c:2b:4c:e6:b7:6a:10:9a:f5:
                    67:a0:b8:95:89:98:be:55:4a:37:af:bd:64:d2:78:
                    93:22:4e:3e:63:84:b8:5b:fa:45:95:2e:0b:ea:73:
                    8b:c4:82:69:f1:1a:6a:de:a8:df:60:22:f2:84:b3:
                    5a:d8:aa:e0:b6:99:a0:e7:d4:8a:70:71:b3:b9:20:
                    99:e0:bc:2c:42:69:34:bf:bf
                Exponent: 65537 (0x10001)
        X509v3 extensions:
            X509v3 Basic Constraints: 
                CA:FALSE
            X509v3 Key Usage: 
                Digital Signature, Non Repudiation, Key Encipherment
            X509v3 Subject Key Identifier: 
                07:F1:A0:07:13:73:8C:CA:36:0B:91:8E:99:B5:52:E8:34:74:99:FA
    Signature Algorithm: sha1WithRSAEncryption
        9b:90:29:8a:80:2b:38:bf:19:76:28:8e:70:94:a8:ec:b0:b0:
        2c:87:b2:dc:88:be:0d:8f:d5:a7:be:cd:d1:fa:5b:f0:f9:2b:
        09:83:b4:1f:6f:51:b8:ea:7c:5d:f0:ef:1d:4a:5c:da:2b:4d:
        22:ff:88:8f:59:ab:b7:d8:66:98:0f:37:9f:a3:a3:cc:56:fe:
        1e:1e:d0:35:ed:86:31:b6:00:40:f8:b8:f9:26:93:cc:36:d2:
        99:2e:3f:e9:f1:a3:1c:29:33:c8:6c:35:68:f3:b3:04:7b:55:
        06:62:3a:42:31:36:1a:67:a2:ea:0f:72:6d:b0:f8:3a:cc:73:
        0c:b3
-----BEGIN CERTIFICATE-----
MIIB+jCCAWOgAwIBAgIBAjANBgkqhkiG9w0BAQUFADAqMRswGQYDVQQDDBJoeDUw
OSBUZXN0IFJvb3QgQ0ExCzAJBgNVBAYTAlNFMB4XDTA2MTExMzA1NDcxM1oXDTE2
MTExMDA1NDcxM1owITELMAkGA1UEBhMCU0UxEjAQBgNVBAMMCVRlc3QgY2VydDCB
nzANBgkqhkiG9w0BAQEFAAOBjQAwgYkCgYEA1ImHQ3+TpB2WplaNUNokH2B5NVn2
706zK1eusPFoNbcGddRPmyoyPFTPv3jOkqtt3b5cK0zmt2oQmvVnoLiViZi+VUo3
r71k0niTIk4+Y4S4W/pFlS4L6nOLxIJp8Rpq3qjfYCLyhLNa2Krgtpmg59SKcHGz
uSCZ4LwsQmk0v78CAwEAAaM5MDcwCQYDVR0TBAIwADALBgNVHQ8EBAMCBeAwHQYD
VR0OBBYEFAfxoAcTc4zKNguRjpm1Uug0dJn6MA0GCSqGSIb3DQEBBQUAA4GBAJuQ
KYqAKzi/GXYojnCUqOywsCyHstyIvg2P1ae+zdH6W/D5KwmDtB9vUbjqfF3w7x1K
XNorTSL/iI9Zq7fYZpgPN5+jo8xW/h4e0DXthjG2AED4uPkmk8w20pkuP+nxoxwp
M8hsNWjzswR7VQZiOkIxNhpnouoPcm2w+DrMcwyz
-----END CERTIFICATE-----
-----BEGIN RSA PRIVATE KEY-----
MIICWgIBAAKBgQDUiYdDf5OkHZamVo1Q2iQfYHk1WfbvTrMrV66w8Wg1twZ11E+b
KjI8VM+/eM6Sq23dvlwrTOa3ahCa9WeguJWJmL5VSjevvWTSeJMiTj5jhLhb+kWV
Lgvqc4vEgmnxGmreqN9gIvKEs1rYquC2maDn1IpwcbO5IJngvCxCaTS/vwIDAQAB
An9YAJoBWNHJInc+aJga4jgSxd9qN9YHQI7vY17x5QNBOodyQnazyMUENhnPLjZa
hKD5L9j6FN1zFHfLsdE2uzcvAOTIDs5VlDNmHbwQyQGS12r0oxoUuFNxdlJvZsq5
m008dMHa8ZTDz1WZJEgn6n6ZljCsyjSf3bRfNHP/whLBAkEA6fWerycxNza7xfJK
Ri5yu6G7GWVBVJMWHsSTuMzGnj0PY9SdULyBME8W60HInBtttPsr5A9fwr7x06xR
vyiJTwJBAOiPRTagc+8m5aFmcVeWUcHdJ/23860EgrrHcD9num2fst+fvraXUkQD
hqLt6K6q31xxp57WEL2qDoXnS+1+5pECQQCzvl6xlly7XLOaenERxjGjcbe65Q3y
GibOcJxFSB34CFVAj2JlWs2t/bVP/PRQ6sm4V5f62MzrY6OKykLrqAsFAkAjvaEN
fCtVHc08uNnCdD+sY6i5vYOdm4vb2LrPg8mK/3gmFg7hUPA7s68FazrPXUNmmbEB
IDUCcRg6TAnHPjGBAkAmFc8bzokRIKWd2WtdzwRVYfARzaUHMPYmU+4wD0VOo1Bw
MDNPuNG5vDkiPdEP9GwY4kEowkr27R6NeIOamaRn
-----END RSA PRIVATE KEY-----
