Certificate:
    Data:
        Version: 3 (0x2)
        Serial Number: 2 (0x2)
        Signature Algorithm: sha1WithRSAEncryption
        Issuer: CN=hx509 Test Root CA, C=SE
        Validity
            Not Before: Apr 13 20:42:52 2009 GMT
            Not After : Apr 11 20:42:52 2019 GMT
        Subject: C=SE, CN=Test cert
        Subject Public Key Info:
            Public Key Algorithm: rsaEncryption
                Public-Key: (1024 bit)
                Modulus:
                    00:ee:87:ab:4c:f9:56:cb:c2:ef:c4:ed:bd:f9:96:
                    9f:a0:28:71:f0:75:5e:78:3c:59:cb:7b:6e:7c:95:
                    7c:26:63:3c:39:a8:b9:5a:94:6d:83:f5:5c:1c:a0:
                    f0:c3:70:11:bb:d0:55:fe:22:38:82:81:bf:8a:6a:
                    5f:88:64:b9:fa:c0:83:a2:7e:d7:cd:eb:ed:e8:67:
                    01:c0:3c:7e:63:f5:fb:2a:9c:7e:3f:97:82:04:a0:
                    c2:87:72:03:70:cf:c0:42:ef:02:86:5b:ca:a4:c9:
                    ff:20:4d:ce:ff:b6:29:67:a1:6a:90:9b:45:8c:62:
                    b6:6c:f9:97:cc:3c:e9:4e:73
                Exponent: 65537 (0x10001)
        X509v3 extensions:
            X509v3 Basic Constraints: 
                CA:FALSE
            X509v3 Key Usage: 
                Digital Signature, Non Repudiation, Key Encipherment
            X509v3 Subject Key Identifier: 
                74:2D:BF:08:22:CF:62:9F:65:EC:45:EA:E6:4D:83:2D:CD:96:E0:ED
    Signature Algorithm: sha1WithRSAEncryption
        53:ee:1d:a1:b1:7a:43:14:33:a7:3b:ab:bb:76:5d:18:6c:6b:
        e7:6d:4a:a0:31:f9:82:36:5d:3c:76:5f:c7:e4:a9:9c:26:e0:
        08:e9:c1:f7:d1:38:90:2c:e3:fa:00:63:b9:c8:d6:ef:c4:a7:
        3d:14:1d:b8:17:a8:87:3d:74:4b:a9:84:55:f6:62:d8:43:fa:
        55:c3:a9:03:60:6a:b3:dd:23:0c:ea:f3:e9:91:a2:19:d5:73:
        1a:cb:80:e5:98:53:53:9b:4d:14:8d:70:a0:90:37:ea:d9:04:
        20:0c:e4:58:74:71:cb:1c:0e:b4:42:27:88:d5:97:2c:f6:3a:
        2f:61
-----BEGIN CERTIFICATE-----
MIIB+jCCAWOgAwIBAgIBAjANBgkqhkiG9w0BAQUFADAqMRswGQYDVQQDDBJoeDUw
OSBUZXN0IFJvb3QgQ0ExCzAJBgNVBAYTAlNFMB4XDTA5MDQxMzIwNDI1MloXDTE5
MDQxMTIwNDI1MlowITELMAkGA1UEBhMCU0UxEjAQBgNVBAMMCVRlc3QgY2VydDCB
nzANBgkqhkiG9w0BAQEFAAOBjQAwgYkCgYEA7oerTPlWy8LvxO29+ZafoChx8HVe
eDxZy3tufJV8JmM8Oai5WpRtg/VcHKDww3ARu9BV/iI4goG/impfiGS5+sCDon7X
zevt6GcBwDx+Y/X7Kpx+P5eCBKDCh3IDcM/AQu8ChlvKpMn/IE3O/7YpZ6FqkJtF
jGK2bPmXzDzpTnMCAwEAAaM5MDcwCQYDVR0TBAIwADALBgNVHQ8EBAMCBeAwHQYD
VR0OBBYEFHQtvwgiz2KfZexF6uZNgy3NluDtMA0GCSqGSIb3DQEBBQUAA4GBAFPu
HaGxekMUM6c7q7t2XRhsa+dtSqAx+YI2XTx2X8fkqZwm4AjpwffROJAs4/oAY7nI
1u/Epz0UHbgXqIc9dEuphFX2YthD+lXDqQNgarPdIwzq8+mRohnVcxrLgOWYU1Ob
TRSNcKCQN+rZBCAM5Fh0ccscDrRCJ4jVlyz2Oi9h
-----END CERTIFICATE-----
