Certificate:
    Data:
        Version: 3 (0x2)
        Serial Number: 4 (0x4)
        Signature Algorithm: sha1WithRSAEncryption
        Issuer: CN=hx509 Test Root CA, C=SE
        Validity
            Not Before: Dec  8 02:17:59 2006 GMT
            Not After : Dec  5 02:17:59 2016 GMT
        Subject: C=SE, CN=Test cert KeyEncipherment
        Subject Public Key Info:
            Public Key Algorithm: rsaEncryption
            RSA Public Key: (1024 bit)
                Modulus (1024 bit):
                    00:cb:48:be:8d:94:b3:c3:04:c7:aa:21:28:16:2a:
                    50:94:6c:9e:f6:f2:6d:a6:7f:9e:1e:ae:40:6c:a6:
                    d0:86:c1:b7:36:71:03:e8:45:6a:1c:6e:2a:87:c5:
                    26:d9:0c:41:89:36:8f:33:ba:a7:38:50:dd:ac:29:
                    23:1a:5e:df:8c:51:c0:2e:9f:77:bd:d4:d0:a8:28:
                    e3:86:93:2e:1f:09:dc:96:ef:aa:1b:78:2d:78:b0:
                    cb:80:f3:0b:83:83:70:69:ee:b5:1b:6c:66:0f:66:
                    9a:b2:4b:45:c1:16:a0:da:06:f4:d5:9f:fb:f6:34:
                    a6:c8:dc:c7:9c:70:bf:18:5f
                Exponent: 65537 (0x10001)
        X509v3 extensions:
            X509v3 Basic Constraints: 
                CA:FALSE
            X509v3 Key Usage: 
                Non Repudiation, Key Encipherment
            X509v3 Subject Key Identifier: 
                A9:E2:DC:37:05:CA:B8:60:AD:6E:CC:87:44:2F:80:22:BA:06:E4:95
    Signature Algorithm: sha1WithRSAEncryption
        2c:db:6e:e8:d3:be:1e:20:8c:ed:38:62:60:b8:12:7b:8c:1c:
        2f:1b:f4:e7:c0:5a:65:38:79:cd:d5:b3:7d:74:48:ee:3e:a3:
        31:40:13:23:72:2e:af:8f:5b:31:61:8d:cd:e4:2b:b4:64:1c:
        a8:b6:80:67:82:af:ab:ad:67:f4:50:7b:b8:75:9f:bb:5d:ca:
        b0:ee:1d:fc:e0:02:df:56:e3:67:80:ab:5e:b0:7a:d2:93:19:
        ac:85:54:5a:e3:5b:d3:92:4e:15:a1:9c:05:70:60:fd:52:cf:
        01:0f:3b:9b:9b:30:73:ff:ef:71:42:ef:bb:32:5a:d6:3a:f8:
        11:ce
-----BEGIN CERTIFICATE-----
MIICCjCCAXOgAwIBAgIBBDANBgkqhkiG9w0BAQUFADAqMRswGQYDVQQDDBJoeDUw
OSBUZXN0IFJvb3QgQ0ExCzAJBgNVBAYTAlNFMB4XDTA2MTIwODAyMTc1OVoXDTE2
MTIwNTAyMTc1OVowMTELMAkGA1UEBhMCU0UxIjAgBgNVBAMMGVRlc3QgY2VydCBL
ZXlFbmNpcGhlcm1lbnQwgZ8wDQYJKoZIhvcNAQEBBQADgY0AMIGJAoGBAMtIvo2U
s8MEx6ohKBYqUJRsnvbybaZ/nh6uQGym0IbBtzZxA+hFahxuKofFJtkMQYk2jzO6
pzhQ3awpIxpe34xRwC6fd73U0Kgo44aTLh8J3Jbvqht4LXiwy4DzC4ODcGnutRts
Zg9mmrJLRcEWoNoG9NWf+/Y0psjcx5xwvxhfAgMBAAGjOTA3MAkGA1UdEwQCMAAw
CwYDVR0PBAQDAgVgMB0GA1UdDgQWBBSp4tw3Bcq4YK1uzIdEL4AiugbklTANBgkq
hkiG9w0BAQUFAAOBgQAs227o074eIIztOGJguBJ7jBwvG/TnwFplOHnN1bN9dEju
PqMxQBMjci6vj1sxYY3N5Cu0ZByotoBngq+rrWf0UHu4dZ+7Xcqw7h384ALfVuNn
gKtesHrSkxmshVRa41vTkk4VoZwFcGD9Us8BDzubmzBz/+9xQu+7MlrWOvgRzg==
-----END CERTIFICATE-----
