Certificate:
    Data:
        Version: 3 (0x2)
        Serial Number: 4 (0x4)
        Signature Algorithm: sha1WithRSAEncryption
        Issuer: CN=hx509 Test Root CA, C=SE
        Validity
            Not Before: Apr 13 21:53:34 2009 GMT
            Not After : Apr 11 21:53:34 2019 GMT
        Subject: C=SE, CN=Test cert KeyEncipherment
        Subject Public Key Info:
            Public Key Algorithm: rsaEncryption
                Public-Key: (1024 bit)
                Modulus:
                    00:e2:cd:e0:12:3d:06:ab:10:07:27:37:a5:61:9d:
                    a0:95:7a:e4:27:4d:d3:51:42:c0:90:6d:c5:6b:89:
                    97:d8:4d:46:8b:79:13:38:ad:1b:b1:ab:81:d6:be:
                    2c:5b:6a:43:e2:1d:77:ea:53:84:6f:ec:9a:75:52:
                    82:87:fc:72:ee:c4:78:d0:6f:11:77:19:d2:f4:03:
                    05:01:f6:e6:b6:ea:55:8d:cf:d5:38:e1:d2:44:bb:
                    e9:4a:d8:a7:90:b4:17:c8:38:e6:a7:b3:74:07:3e:
                    ea:b5:c8:cf:dd:eb:f3:f1:40:db:f4:88:cd:ea:ab:
                    da:be:e9:ce:8a:7e:bf:24:a3
                Exponent: 65537 (0x10001)
        X509v3 extensions:
            X509v3 Basic Constraints: 
                CA:FALSE
            X509v3 Key Usage: 
                Non Repudiation, Key Encipherment
            X509v3 Subject Key Identifier: 
                72:15:D6:43:78:57:2F:0E:37:47:51:46:9F:53:37:B7:96:6C:EA:88
    Signature Algorithm: sha1WithRSAEncryption
        68:02:c9:64:8a:bd:03:90:aa:78:3f:5f:81:e4:61:dd:0e:c2:
        80:29:e1:56:dc:42:8c:bf:e0:0c:9d:21:c2:4e:12:22:41:7a:
        97:8f:53:d1:c0:21:9d:d4:f0:c6:62:e4:83:ce:d9:23:e7:7a:
        6c:9c:92:87:18:2a:17:cf:aa:7a:20:4e:b4:34:e3:c6:23:71:
        6e:18:7d:d7:c1:7b:4d:c9:7f:17:48:a4:42:89:05:d9:d5:96:
        76:92:b8:42:9a:2a:76:a7:e2:36:02:a7:b1:a5:c2:87:51:63:
        3d:5d:1f:84:3b:48:30:92:ea:40:e2:18:b1:1d:53:76:98:cf:
        fe:bb
-----BEGIN CERTIFICATE-----
MIICCjCCAXOgAwIBAgIBBDANBgkqhkiG9w0BAQUFADAqMRswGQYDVQQDDBJoeDUw
OSBUZXN0IFJvb3QgQ0ExCzAJBgNVBAYTAlNFMB4XDTA5MDQxMzIxNTMzNFoXDTE5
MDQxMTIxNTMzNFowMTELMAkGA1UEBhMCU0UxIjAgBgNVBAMMGVRlc3QgY2VydCBL
ZXlFbmNpcGhlcm1lbnQwgZ8wDQYJKoZIhvcNAQEBBQADgY0AMIGJAoGBAOLN4BI9
BqsQByc3pWGdoJV65CdN01FCwJBtxWuJl9hNRot5EzitG7Grgda+LFtqQ+Idd+pT
hG/smnVSgof8cu7EeNBvEXcZ0vQDBQH25rbqVY3P1Tjh0kS76UrYp5C0F8g45qez
dAc+6rXIz93r8/FA2/SIzeqr2r7pzop+vySjAgMBAAGjOTA3MAkGA1UdEwQCMAAw
CwYDVR0PBAQDAgVgMB0GA1UdDgQWBBRyFdZDeFcvDjdHUUafUze3lmzqiDANBgkq
hkiG9w0BAQUFAAOBgQBoAslkir0DkKp4P1+B5GHdDsKAKeFW3EKMv+AMnSHCThIi
QXqXj1PRwCGd1PDGYuSDztkj53psnJKHGCoXz6p6IE60NOPGI3FuGH3XwXtNyX8X
SKRCiQXZ1ZZ2krhCmip2p+I2AqexpcKHUWM9XR+EO0gwkupA4hixHVN2mM/+uw==
-----END CERTIFICATE-----
