Certificate:
    Data:
        Version: 3 (0x2)
        Serial Number: 2 (0x2)
        Signature Algorithm: sha1WithRSAEncryption
        Issuer: CN=hx509 Test Root CA, C=SE
        Validity
            Not Before: Dec  7 23:40:47 2006 GMT
            Not After : Dec  4 23:40:47 2016 GMT
        Subject: C=SE, CN=Test cert
        Subject Public Key Info:
            Public Key Algorithm: rsaEncryption
            RSA Public Key: (1024 bit)
                Modulus (1024 bit):
                    00:b4:bf:dd:16:3d:b8:9c:71:4d:64:b9:5c:11:78:
                    41:c8:f4:96:51:70:c0:bb:6d:c3:1f:61:f2:89:5c:
                    ba:5f:09:df:dd:16:13:cc:83:2f:4d:3a:71:2e:f2:
                    f3:2d:02:7c:e3:99:d8:30:71:22:f7:3c:49:33:08:
                    dc:2d:c1:e3:4a:10:9b:16:23:ee:49:66:38:24:d9:
                    20:2f:a3:39:c1:c0:db:8a:0f:bc:bc:38:52:78:36:
                    70:4d:61:1d:f6:08:16:98:2f:77:e2:63:ee:c7:53:
                    30:3d:5e:71:3d:36:e1:1b:88:ce:b4:87:55:d5:a1:
                    d4:b9:ca:f4:fa:5a:f4:cd:b5
                Exponent: 65537 (0x10001)
        X509v3 extensions:
            X509v3 Basic Constraints: 
                CA:FALSE
            X509v3 Key Usage: 
                Digital Signature, Non Repudiation, Key Encipherment
            X509v3 Subject Key Identifier: 
                00:EF:E0:D9:9B:BD:F5:5B:3A:4E:91:4F:9D:CD:71:7E:CA:86:FF:08
    Signature Algorithm: sha1WithRSAEncryption
        15:43:73:df:21:dd:19:76:39:bc:16:2e:38:7e:f9:1e:dd:81:
        60:54:e8:36:e9:d4:1f:f4:13:8e:22:c7:e1:e4:7c:a7:d8:97:
        33:e7:84:12:b2:77:f1:19:6a:70:8b:5f:a0:74:5d:03:94:87:
        d3:1d:e4:6e:14:60:b4:14:0d:97:91:d9:c8:d5:dd:a2:a1:44:
        73:cb:6d:c0:c6:33:6f:1b:a2:f4:72:9b:10:56:37:f2:71:58:
        d1:cf:ca:b7:a5:d6:99:15:ec:63:bd:39:ac:40:07:a3:8b:2e:
        8b:23:bf:68:c5:4f:9f:19:13:00:63:bc:fa:90:7f:21:87:f2:
        8a:c8
-----BEGIN CERTIFICATE-----
MIIB+jCCAWOgAwIBAgIBAjANBgkqhkiG9w0BAQUFADAqMRswGQYDVQQDDBJoeDUw
OSBUZXN0IFJvb3QgQ0ExCzAJBgNVBAYTAlNFMB4XDTA2MTIwNzIzNDA0N1oXDTE2
MTIwNDIzNDA0N1owITELMAkGA1UEBhMCU0UxEjAQBgNVBAMMCVRlc3QgY2VydDCB
nzANBgkqhkiG9w0BAQEFAAOBjQAwgYkCgYEAtL/dFj24nHFNZLlcEXhByPSWUXDA
u23DH2HyiVy6Xwnf3RYTzIMvTTpxLvLzLQJ845nYMHEi9zxJMwjcLcHjShCbFiPu
SWY4JNkgL6M5wcDbig+8vDhSeDZwTWEd9ggWmC934mPux1MwPV5xPTbhG4jOtIdV
1aHUucr0+lr0zbUCAwEAAaM5MDcwCQYDVR0TBAIwADALBgNVHQ8EBAMCBeAwHQYD
VR0OBBYEFADv4NmbvfVbOk6RT53NcX7Khv8IMA0GCSqGSIb3DQEBBQUAA4GBABVD
c98h3Rl2ObwWLjh++R7dgWBU6Dbp1B/0E44ix+HkfKfYlzPnhBKyd/EZanCLX6B0
XQOUh9Md5G4UYLQUDZeR2cjV3aKhRHPLbcDGM28bovRymxBWN/JxWNHPyrel1pkV
7GO9OaxAB6OLLosjv2jFT58ZEwBjvPqQfyGH8orI
-----END CERTIFICATE-----
