Certificate:
    Data:
        Version: 3 (0x2)
        Serial Number: 2 (0x2)
        Signature Algorithm: sha1WithRSAEncryption
        Issuer: CN=hx509 Test Root CA, C=SE
        Validity
            Not Before: Dec  8 02:17:58 2006 GMT
            Not After : Dec  5 02:17:58 2016 GMT
        Subject: C=SE, CN=Test cert
        Subject Public Key Info:
            Public Key Algorithm: rsaEncryption
            RSA Public Key: (1024 bit)
                Modulus (1024 bit):
                    00:ec:f1:e9:ba:6f:c8:bb:b5:b8:04:41:c0:cc:2a:
                    9e:a9:27:31:1c:3c:68:a3:66:35:18:db:dc:d0:23:
                    09:a9:83:cf:7e:77:b0:2c:c3:5e:2a:e2:50:9f:fc:
                    4b:d2:c2:0f:6b:57:cd:3d:40:3d:39:5b:29:c1:86:
                    46:e0:49:a4:7d:8c:94:86:1e:4c:60:28:bb:2e:e8:
                    db:98:64:5a:16:9a:2d:84:0a:8a:ea:0b:17:d5:4c:
                    bf:30:a0:be:71:3c:ff:a9:00:c1:46:23:fb:0f:d0:
                    e6:ac:83:58:3f:29:e8:07:6f:09:c8:44:2a:21:44:
                    c3:92:f1:46:43:9a:1f:6b:8f
                Exponent: 65537 (0x10001)
        X509v3 extensions:
            X509v3 Basic Constraints: 
                CA:FALSE
            X509v3 Key Usage: 
                Digital Signature, Non Repudiation, Key Encipherment
            X509v3 Subject Key Identifier: 
                61:E2:EC:1D:54:6C:EB:28:4C:CC:6E:99:9F:11:C1:C6:6F:50:FE:D6
    Signature Algorithm: sha1WithRSAEncryption
        0b:56:1b:3d:f6:71:86:01:ce:da:37:42:f2:a0:74:f8:c5:9a:
        4d:b2:71:1d:24:e4:e8:54:d1:87:be:c5:19:69:f2:ac:7d:86:
        71:ac:32:91:da:44:59:ec:8a:73:23:77:d1:68:d2:db:cd:84:
        15:e2:7e:6a:62:5b:ac:5f:f9:f0:1a:71:01:eb:78:09:b9:e4:
        bf:2f:80:e4:28:48:14:d8:bc:97:e7:0d:5d:f7:35:b4:63:61:
        a9:54:27:9d:75:6b:a7:d2:de:6a:54:38:dc:b8:b8:f1:0d:d2:
        8c:f3:a1:fc:c0:54:e6:9b:e9:87:38:a6:d2:6c:5e:d7:09:ce:
        44:a4
-----BEGIN CERTIFICATE-----
MIIB+jCCAWOgAwIBAgIBAjANBgkqhkiG9w0BAQUFADAqMRswGQYDVQQDDBJoeDUw
OSBUZXN0IFJvb3QgQ0ExCzAJBgNVBAYTAlNFMB4XDTA2MTIwODAyMTc1OFoXDTE2
MTIwNTAyMTc1OFowITELMAkGA1UEBhMCU0UxEjAQBgNVBAMMCVRlc3QgY2VydDCB
nzANBgkqhkiG9w0BAQEFAAOBjQAwgYkCgYEA7PHpum/Iu7W4BEHAzCqeqScxHDxo
o2Y1GNvc0CMJqYPPfnewLMNeKuJQn/xL0sIPa1fNPUA9OVspwYZG4EmkfYyUhh5M
YCi7LujbmGRaFpothAqK6gsX1Uy/MKC+cTz/qQDBRiP7D9DmrINYPynoB28JyEQq
IUTDkvFGQ5ofa48CAwEAAaM5MDcwCQYDVR0TBAIwADALBgNVHQ8EBAMCBeAwHQYD
VR0OBBYEFGHi7B1UbOsoTMxumZ8RwcZvUP7WMA0GCSqGSIb3DQEBBQUAA4GBAAtW
Gz32cYYBzto3QvKgdPjFmk2ycR0k5OhU0Ye+xRlp8qx9hnGsMpHaRFnsinMjd9Fo
0tvNhBXifmpiW6xf+fAacQHreAm55L8vgOQoSBTYvJfnDV33NbRjYalUJ511a6fS
3mpUONy4uPEN0ozzofzAVOab6Yc4ptJsXtcJzkSk
-----END CERTIFICATE-----
-----BEGIN RSA PRIVATE KEY-----
MIICXgIBAAKBgQDs8em6b8i7tbgEQcDMKp6pJzEcPGijZjUY29zQIwmpg89+d7As
w14q4lCf/EvSwg9rV809QD05WynBhkbgSaR9jJSGHkxgKLsu6NuYZFoWmi2ECorq
CxfVTL8woL5xPP+pAMFGI/sP0Oasg1g/KegHbwnIRCohRMOS8UZDmh9rjwIDAQAB
AoGAYHlvLRXuqV8n+bO8CGUiDMWEXXbLNBydae27TpO1j2u3xEp/VPqHEPbs1Pco
+DtDg/VP/6x0QTI5Ii7GFPRnIF7Ruy/6p0lRDMHQ8uNPOjD/MGRQPxTFJA7IeyyD
Cyzjl/cQA5JvJxMuzY5iC9lJCBCVyhvJBDxq53jFGOU0+oECQQD6nL8Dbx5CZxms
wahyd1R8NFdmOWeLg9Pd8Qn5OPgL4nMmyw9Z7wcSB0CVTSTLwTcedOoH5EfoFY1q
ZQ3aUrdRAkEA8gnywmRiDu0QfLVjTD0d/B0A3FcA0bys2t1Agnfab1T2C+0h2fJO
8xVLB/NJ/2UpBbt8Zv4gOhyyQZGkej783wJBAIW0nQBjB1zcDsmppIo1eiCt+Dc0
xzabBa0yjWSm7UfB8DexPKZ5rWcD8YP2XXxLwHGCZN4DAA4leYZbFdH2MZECQQCr
lKfWbIkjIaVtcrzo3+6wufLRQJAhHwq+wNgpZUOhZu5huAImWeLj6fVdtnd/qLvz
B10COiaoa41mdBPQYXSrAkEAzOUjELsVMxUvFK7MiAlYbmk42XnvJ6FvBIeuG2Qx
IeSCkJ2OMJvDF0YbxGWDXvjVexUJ87bOLRrwKxrKOEwVZw==
-----END RSA PRIVATE KEY-----
