Certificate:
    Data:
        Version: 3 (0x2)
        Serial Number: 2 (0x2)
        Signature Algorithm: sha1WithRSAEncryption
        Issuer: CN=hx509 Test Root CA, C=SE
        Validity
            Not Before: Apr 13 21:48:00 2009 GMT
            Not After : Apr 11 21:48:00 2019 GMT
        Subject: C=SE, CN=Test cert
        Subject Public Key Info:
            Public Key Algorithm: rsaEncryption
            RSA Public Key: (1024 bit)
                Modulus (1024 bit):
                    00:e2:00:4a:75:49:06:9b:9e:be:96:65:75:13:19:
                    d2:26:43:b6:8b:67:39:3c:40:07:6c:97:74:2f:0b:
                    b8:a2:ca:da:34:b5:2d:bb:c4:17:27:c7:4c:ef:f4:
                    2f:2c:d9:5b:45:2b:67:48:55:b7:95:0d:ec:67:3e:
                    d7:93:f2:2b:5b:13:01:ba:43:41:06:c2:14:13:b6:
                    f9:cb:92:7e:60:0e:2d:cd:75:61:25:0d:19:b0:f5:
                    85:97:47:85:d6:48:09:1c:1d:16:14:21:73:5e:99:
                    79:dd:79:27:75:4f:f5:24:dd:b2:ae:db:c6:9f:e1:
                    37:55:5c:88:4d:97:fe:96:7d
                Exponent: 65537 (0x10001)
        X509v3 extensions:
            X509v3 Basic Constraints: 
                CA:FALSE
            X509v3 Key Usage: 
                Digital Signature, Non Repudiation, Key Encipherment
            X509v3 Subject Key Identifier: 
                8F:3D:D0:8C:5D:35:CC:31:59:12:6F:C5:56:DF:1A:84:2D:8A:AC:51
    Signature Algorithm: sha1WithRSAEncryption
        b9:a3:2c:a9:df:13:01:8b:9d:dc:82:8a:57:ad:d7:7d:41:83:
        f3:28:ad:7b:da:24:b4:3b:82:f2:80:b3:db:0b:a4:e4:bf:4e:
        27:1f:5b:3f:f1:89:ca:76:c2:e8:03:86:88:59:5f:51:01:af:
        cc:d8:63:9d:cf:2e:de:10:25:48:26:5f:99:62:dd:14:78:ad:
        82:7b:e6:7c:93:48:37:4f:ad:8a:94:0c:98:3b:d9:e9:84:aa:
        8f:d6:68:c2:f3:d1:80:50:30:ff:5e:e6:24:8e:1a:a1:0c:5b:
        c3:c9:ab:d6:76:fb:77:8e:ee:dd:56:d7:60:8e:49:65:65:0d:
        20:fc
-----BEGIN CERTIFICATE-----
MIIB+jCCAWOgAwIBAgIBAjANBgkqhkiG9w0BAQUFADAqMRswGQYDVQQDDBJoeDUw
OSBUZXN0IFJvb3QgQ0ExCzAJBgNVBAYTAlNFMB4XDTA5MDQxMzIxNDgwMFoXDTE5
MDQxMTIxNDgwMFowITELMAkGA1UEBhMCU0UxEjAQBgNVBAMMCVRlc3QgY2VydDCB
nzANBgkqhkiG9w0BAQEFAAOBjQAwgYkCgYEA4gBKdUkGm56+lmV1ExnSJkO2i2c5
PEAHbJd0Lwu4osraNLUtu8QXJ8dM7/QvLNlbRStnSFW3lQ3sZz7Xk/IrWxMBukNB
BsIUE7b5y5J+YA4tzXVhJQ0ZsPWFl0eF1kgJHB0WFCFzXpl53XkndU/1JN2yrtvG
n+E3VVyITZf+ln0CAwEAAaM5MDcwCQYDVR0TBAIwADALBgNVHQ8EBAMCBeAwHQYD
VR0OBBYEFI890IxdNcwxWRJvxVbfGoQtiqxRMA0GCSqGSIb3DQEBBQUAA4GBALmj
LKnfEwGLndyCilet131Bg/MorXvaJLQ7gvKAs9sLpOS/TicfWz/xicp2wugDhohZ
X1EBr8zYY53PLt4QJUgmX5li3RR4rYJ75nyTSDdPrYqUDJg72emEqo/WaMLz0YBQ
MP9e5iSOGqEMW8PJq9Z2+3eO7t1W12COSWVlDSD8
-----END CERTIFICATE-----
