Certificate:
    Data:
        Version: 3 (0x2)
        Serial Number: 4 (0x4)
        Signature Algorithm: sha1WithRSAEncryption
        Issuer: CN=hx509 Test Root CA, C=SE
        Validity
            Not Before: Dec 31 01:30:00 2006 GMT
            Not After : Dec 28 01:30:00 2016 GMT
        Subject: C=SE, CN=Test cert KeyEncipherment
        Subject Public Key Info:
            Public Key Algorithm: rsaEncryption
            RSA Public Key: (1024 bit)
                Modulus (1024 bit):
                    00:d1:94:93:6f:0c:6e:52:0c:c4:3b:63:e7:5b:ca:
                    a0:24:6f:fd:1c:50:8e:06:1e:ba:cc:5b:3a:14:2d:
                    56:11:7f:79:02:54:03:09:bd:d6:0d:49:4b:9e:f3:
                    9f:a7:9c:76:cf:64:a0:81:b6:42:b0:a5:6c:fa:a0:
                    c2:42:31:52:af:c0:c8:b1:d7:23:76:21:c6:8d:a1:
                    07:12:a7:f5:9c:6b:07:6e:05:6e:41:ce:56:24:6a:
                    3f:29:c2:4a:62:db:a9:74:7a:00:f7:e2:d1:34:a4:
                    1d:78:2c:6e:c6:c0:a0:57:a4:46:33:4e:70:3a:de:
                    f6:af:2c:3e:46:1e:fb:ba:b5
                Exponent: 65537 (0x10001)
        X509v3 extensions:
            X509v3 Basic Constraints: 
                CA:FALSE
            X509v3 Key Usage: 
                Non Repudiation, Key Encipherment
            X509v3 Subject Key Identifier: 
                03:59:6A:63:6A:77:FA:80:46:C1:A1:70:45:27:FE:3B:A5:30:CF:C6
    Signature Algorithm: sha1WithRSAEncryption
        41:40:59:4e:6d:e5:aa:50:6d:62:a6:97:67:70:32:1e:6b:c3:
        87:d3:56:3f:11:af:b4:d3:35:69:87:fe:c2:1a:c6:58:cf:40:
        ce:aa:20:34:46:4b:bf:20:56:70:1e:34:51:f4:0e:e9:26:77:
        a3:20:77:28:3e:bb:6f:b5:0b:17:59:17:e5:99:73:e9:b5:d6:
        6e:75:57:5f:bf:8b:31:6c:77:e1:9c:2b:3d:12:1c:0a:cd:ab:
        c5:94:f1:f3:fd:f7:5d:32:14:58:22:46:75:e1:0c:75:8e:05:
        af:35:53:35:a9:50:a3:90:28:3a:ba:35:5d:c1:1f:2e:92:c7:
        6d:86
-----BEGIN CERTIFICATE-----
MIICCjCCAXOgAwIBAgIBBDANBgkqhkiG9w0BAQUFADAqMRswGQYDVQQDDBJoeDUw
OSBUZXN0IFJvb3QgQ0ExCzAJBgNVBAYTAlNFMB4XDTA2MTIzMTAxMzAwMFoXDTE2
MTIyODAxMzAwMFowMTELMAkGA1UEBhMCU0UxIjAgBgNVBAMMGVRlc3QgY2VydCBL
ZXlFbmNpcGhlcm1lbnQwgZ8wDQYJKoZIhvcNAQEBBQADgY0AMIGJAoGBANGUk28M
blIMxDtj51vKoCRv/RxQjgYeusxbOhQtVhF/eQJUAwm91g1JS57zn6ecds9koIG2
QrClbPqgwkIxUq/AyLHXI3Yhxo2hBxKn9ZxrB24FbkHOViRqPynCSmLbqXR6APfi
0TSkHXgsbsbAoFekRjNOcDre9q8sPkYe+7q1AgMBAAGjOTA3MAkGA1UdEwQCMAAw
CwYDVR0PBAQDAgVgMB0GA1UdDgQWBBQDWWpjanf6gEbBoXBFJ/47pTDPxjANBgkq
hkiG9w0BAQUFAAOBgQBBQFlObeWqUG1ippdncDIea8OH01Y/Ea+00zVph/7CGsZY
z0DOqiA0Rku/IFZwHjRR9A7pJnejIHcoPrtvtQsXWRflmXPptdZudVdfv4sxbHfh
nCs9EhwKzavFlPHz/fddMhRYIkZ14Qx1jgWvNVM1qVCjkCg6ujVdwR8uksdthg==
-----END CERTIFICATE-----
