Certificate:
    Data:
        Version: 3 (0x2)
        Serial Number: 2 (0x2)
        Signature Algorithm: sha1WithRSAEncryption
        Issuer: CN=hx509 Test Root CA, C=SE
        Validity
            Not Before: Apr 13 21:53:34 2009 GMT
            Not After : Apr 11 21:53:34 2019 GMT
        Subject: C=SE, CN=Test cert
        Subject Public Key Info:
            Public Key Algorithm: rsaEncryption
                Public-Key: (1024 bit)
                Modulus:
                    00:c2:67:b4:e8:2d:d7:5b:61:b3:2b:01:d7:d2:21:
                    89:72:f8:fa:68:4d:b8:73:5a:bd:0d:bd:85:90:89:
                    a4:28:a5:a3:7e:a9:06:da:d8:d0:73:2e:ba:63:33:
                    7f:e1:03:3e:f7:b0:33:a9:87:ed:44:45:bc:0b:38:
                    b9:49:5f:82:8c:59:c2:50:42:42:c4:a9:55:93:ca:
                    c1:34:5a:3e:40:23:b6:dc:5f:df:3a:ec:6b:32:6a:
                    c7:0d:38:b7:49:9b:f3:9f:46:d0:03:24:6e:12:d0:
                    3a:36:64:5e:f6:f3:38:0c:71:0d:79:c0:bd:2b:0b:
                    7e:3b:f9:d2:3d:84:f6:37:f9
                Exponent: 65537 (0x10001)
        X509v3 extensions:
            X509v3 Basic Constraints: 
                CA:FALSE
            X509v3 Key Usage: 
                Digital Signature, Non Repudiation, Key Encipherment
            X509v3 Subject Key Identifier: 
                D5:18:04:E8:5C:B5:E3:79:6E:9C:31:B2:F6:8E:4F:A3:E0:15:77:0F
    Signature Algorithm: sha1WithRSAEncryption
        94:da:b1:ff:5b:fa:20:dd:fd:44:b6:32:42:f3:15:29:f1:64:
        5a:b9:fe:36:d3:2e:cf:c9:ad:20:af:f5:c4:30:28:8a:1c:25:
        18:d5:b6:dd:df:33:f3:4a:92:37:e2:c9:a3:45:15:cb:e1:05:
        aa:cb:af:bc:74:5c:85:e0:cc:d4:09:c1:cd:11:6a:dc:a5:ad:
        b0:13:bb:95:06:48:dc:9c:50:c3:ae:03:6d:88:dc:27:1f:d5:
        7f:d4:05:e1:18:dd:c0:39:eb:11:de:ff:25:04:9b:f7:0a:84:
        8c:27:67:22:15:62:fb:47:75:e4:18:bd:b9:10:94:eb:2a:af:
        a8:8e
-----BEGIN CERTIFICATE-----
MIIB+jCCAWOgAwIBAgIBAjANBgkqhkiG9w0BAQUFADAqMRswGQYDVQQDDBJoeDUw
OSBUZXN0IFJvb3QgQ0ExCzAJBgNVBAYTAlNFMB4XDTA5MDQxMzIxNTMzNFoXDTE5
MDQxMTIxNTMzNFowITELMAkGA1UEBhMCU0UxEjAQBgNVBAMMCVRlc3QgY2VydDCB
nzANBgkqhkiG9w0BAQEFAAOBjQAwgYkCgYEAwme06C3XW2GzKwHX0iGJcvj6aE24
c1q9Db2FkImkKKWjfqkG2tjQcy66YzN/4QM+97AzqYftREW8Czi5SV+CjFnCUEJC
xKlVk8rBNFo+QCO23F/fOuxrMmrHDTi3SZvzn0bQAyRuEtA6NmRe9vM4DHENecC9
Kwt+O/nSPYT2N/kCAwEAAaM5MDcwCQYDVR0TBAIwADALBgNVHQ8EBAMCBeAwHQYD
VR0OBBYEFNUYBOhcteN5bpwxsvaOT6PgFXcPMA0GCSqGSIb3DQEBBQUAA4GBAJTa
sf9b+iDd/US2MkLzFSnxZFq5/jbTLs/JrSCv9cQwKIocJRjVtt3fM/NKkjfiyaNF
FcvhBarLr7x0XIXgzNQJwc0RatylrbATu5UGSNycUMOuA22I3Ccf1X/UBeEY3cA5
6xHe/yUEm/cKhIwnZyIVYvtHdeQYvbkQlOsqr6iO
-----END CERTIFICATE-----
-----BEGIN PRIVATE KEY-----
MIICdwIBADANBgkqhkiG9w0BAQEFAASCAmEwggJdAgEAAoGBAMJntOgt11thsysB
19IhiXL4+mhNuHNavQ29hZCJpCilo36pBtrY0HMuumMzf+EDPvewM6mH7URFvAs4
uUlfgoxZwlBCQsSpVZPKwTRaPkAjttxf3zrsazJqxw04t0mb859G0AMkbhLQOjZk
XvbzOAxxDXnAvSsLfjv50j2E9jf5AgMBAAECgYEAmDlGgctrZ2WwOsvdp++Uxg9J
XKUG+mShxoGRdWUhwqY4yHQoJvNA/gAn+IeZ6aJ2CtLRET2bPytvnEXVaCu+dzRi
mDZirmo0mVflyJRr814r6D70SM6G1ZuSPrEXimZqPE905jGVFGjNV6WzncsV5tu5
MxsxL70m+KjO7xijSIECQQDi1XbtTbw1jLQw2c2NSU2Eyk71/LTB6/wc2QFxnG1o
FryI/4sYiGd4cJJ0JIrN63aIVzFJaL6gDKyk2h5V96FpAkEA22bOqU4QyKfYnqHp
uG0USxG8P030bMwV9hdhVy31hRvnMBZPouuwyoMBKkY1QfNBR4AJspaAu0mfQbH/
XlCAEQJADuBE/mccsr5ZiuKd0mg+RzklWIiMKjOZwyKQL608l5j2IF3x91fqwUFQ
uYE0ATEyAtsFBnVyGvj50Y3kc2rcEQJAYMwAzW1ltkFnLsWcigOF+oC+nudTuVRp
NAOorH/YXHutCeguBmEZxJ77upzzDj+2Q0dX//SqovaeTqurUP8PIQJBAIrre9G4
zBjamHyS2A/gvAWKvKyqalQWJ9wphdPpAxMPGOgrwX1G0+HsCD1HPq8ZVQbtnXxi
pODCcwkedtbY/eE=
-----END PRIVATE KEY-----
