Certificate:
    Data:
        Version: 3 (0x2)
        Serial Number: 5 (0x5)
        Signature Algorithm: sha1WithRSAEncryption
        Issuer: CN=hx509 Test Root CA, C=SE
        Validity
            Not Before: Apr 13 21:48:01 2009 GMT
            Not After : Apr 11 21:48:01 2019 GMT
        Subject: C=SE, CN=Test cert DigitalSignature
        Subject Public Key Info:
            Public Key Algorithm: rsaEncryption
            RSA Public Key: (1024 bit)
                Modulus (1024 bit):
                    00:9c:d9:70:8b:a1:4d:1e:7e:7c:f8:12:d5:42:05:
                    78:48:c1:37:4e:85:5a:0a:be:6c:b3:51:67:c1:50:
                    b0:7f:36:80:bc:f0:65:4b:90:d1:2e:28:f1:ef:f5:
                    67:a2:13:61:75:44:63:ac:61:7a:54:ea:85:0b:4a:
                    b1:d4:06:b8:77:5c:ff:86:e7:38:b1:92:46:c6:5a:
                    70:d8:f4:40:42:ab:13:83:cb:5d:5c:d2:b9:1d:c4:
                    cc:7a:b8:c7:04:a3:34:b8:3c:df:5e:c0:03:59:c8:
                    0a:e2:17:bf:7a:fa:e0:cd:d5:b3:5f:ab:3d:f4:43:
                    46:cf:03:8f:2f:4e:1f:7b:cd
                Exponent: 65537 (0x10001)
        X509v3 extensions:
            X509v3 Basic Constraints: 
                CA:FALSE
            X509v3 Key Usage: 
                Digital Signature, Non Repudiation
            X509v3 Subject Key Identifier: 
                19:E8:0F:9C:D3:12:84:25:16:2D:1A:21:53:39:C1:71:0D:33:25:2F
    Signature Algorithm: sha1WithRSAEncryption
        a2:8b:92:24:0b:e4:47:cb:1e:40:3c:cc:31:ef:4e:76:cf:1a:
        29:8c:8b:a6:ba:87:19:80:4f:a6:26:21:b2:ae:41:ca:ae:2a:
        fe:1a:0f:f8:70:30:17:a2:41:7d:d3:62:36:8f:72:3c:50:d2:
        b7:1e:22:ee:95:0c:20:14:26:47:99:50:97:a6:e1:da:c5:88:
        cc:f7:5d:77:f7:73:ab:c4:f7:50:06:11:44:4d:31:26:b5:80:
        70:67:aa:0c:d8:d0:b0:b0:b5:10:a6:3a:3b:cf:ef:bb:de:6e:
        12:d4:cb:38:86:16:f1:b2:47:3a:29:c4:07:6c:cf:ef:6b:d5:
        40:f8
-----BEGIN CERTIFICATE-----
MIICCzCCAXSgAwIBAgIBBTANBgkqhkiG9w0BAQUFADAqMRswGQYDVQQDDBJoeDUw
OSBUZXN0IFJvb3QgQ0ExCzAJBgNVBAYTAlNFMB4XDTA5MDQxMzIxNDgwMVoXDTE5
MDQxMTIxNDgwMVowMjELMAkGA1UEBhMCU0UxIzAhBgNVBAMMGlRlc3QgY2VydCBE
aWdpdGFsU2lnbmF0dXJlMIGfMA0GCSqGSIb3DQEBAQUAA4GNADCBiQKBgQCc2XCL
oU0efnz4EtVCBXhIwTdOhVoKvmyzUWfBULB/NoC88GVLkNEuKPHv9WeiE2F1RGOs
YXpU6oULSrHUBrh3XP+G5zixkkbGWnDY9EBCqxODy11c0rkdxMx6uMcEozS4PN9e
wANZyAriF796+uDN1bNfqz30Q0bPA48vTh97zQIDAQABozkwNzAJBgNVHRMEAjAA
MAsGA1UdDwQEAwIGwDAdBgNVHQ4EFgQUGegPnNMShCUWLRohUznBcQ0zJS8wDQYJ
KoZIhvcNAQEFBQADgYEAoouSJAvkR8seQDzMMe9Ods8aKYyLprqHGYBPpiYhsq5B
yq4q/hoP+HAwF6JBfdNiNo9yPFDStx4i7pUMIBQmR5lQl6bh2sWIzPddd/dzq8T3
UAYRRE0xJrWAcGeqDNjQsLC1EKY6O8/vu95uEtTLOIYW8bJHOinEB2zP72vVQPg=
-----END CERTIFICATE-----
