Certificate:
    Data:
        Version: 3 (0x2)
        Serial Number: 5 (0x5)
        Signature Algorithm: sha1WithRSAEncryption
        Issuer: CN=hx509 Test Root CA, C=SE
        Validity
            Not Before: Apr 13 21:53:34 2009 GMT
            Not After : Apr 11 21:53:34 2019 GMT
        Subject: C=SE, CN=Test cert DigitalSignature
        Subject Public Key Info:
            Public Key Algorithm: rsaEncryption
                Public-Key: (1024 bit)
                Modulus:
                    00:e0:5f:8e:d3:15:38:4c:21:98:24:7f:a8:ad:b6:
                    0a:dc:f0:32:01:47:f0:ec:28:f0:8a:f6:7b:b5:3f:
                    72:c1:0c:43:d6:f4:8e:7a:a1:93:11:e7:fe:69:3c:
                    44:85:35:d8:c4:61:ca:37:e4:13:75:71:ed:ef:8a:
                    9a:25:6f:8e:cf:7f:1f:06:e3:6f:ae:32:9a:35:07:
                    ac:68:d2:eb:da:33:4d:7a:97:9d:b9:6f:d8:3b:40:
                    7f:2c:f7:a7:36:24:9d:95:17:ae:a6:d1:2f:a1:19:
                    0f:2e:b3:6b:3b:22:1c:bf:fd:82:f3:9a:75:02:d1:
                    f4:41:a7:73:b3:53:35:88:1d
                Exponent: 65537 (0x10001)
        X509v3 extensions:
            X509v3 Basic Constraints: 
                CA:FALSE
            X509v3 Key Usage: 
                Digital Signature, Non Repudiation
            X509v3 Subject Key Identifier: 
                D9:8A:90:B1:E9:4B:A1:EA:DC:BF:53:48:B8:32:28:A5:B8:83:A7:37
    Signature Algorithm: sha1WithRSAEncryption
        58:bc:cb:78:5b:35:90:97:36:66:ee:da:d5:0d:dc:f2:f2:a5:
        79:19:1c:d4:56:0e:94:91:a2:9a:ac:f0:f3:98:88:35:e1:48:
        da:08:96:4c:6f:f4:06:f8:b9:a1:2a:d0:17:d4:c0:6a:bf:9e:
        f7:95:5c:e5:35:41:d3:a4:c9:da:8a:95:93:33:d2:8c:19:46:
        01:c2:17:e1:0d:55:ad:f4:87:8c:40:99:e3:26:41:d4:1e:a1:
        fb:3d:2f:76:4c:3d:c6:92:3f:df:53:30:9a:e8:99:ff:64:ac:
        42:a3:3c:47:eb:6a:39:54:82:43:99:2f:54:d3:6a:97:d9:55:
        1f:16
-----BEGIN CERTIFICATE-----
MIICCzCCAXSgAwIBAgIBBTANBgkqhkiG9w0BAQUFADAqMRswGQYDVQQDDBJoeDUw
OSBUZXN0IFJvb3QgQ0ExCzAJBgNVBAYTAlNFMB4XDTA5MDQxMzIxNTMzNFoXDTE5
MDQxMTIxNTMzNFowMjELMAkGA1UEBhMCU0UxIzAhBgNVBAMMGlRlc3QgY2VydCBE
aWdpdGFsU2lnbmF0dXJlMIGfMA0GCSqGSIb3DQEBAQUAA4GNADCBiQKBgQDgX47T
FThMIZgkf6ittgrc8DIBR/DsKPCK9nu1P3LBDEPW9I56oZMR5/5pPESFNdjEYco3
5BN1ce3vipolb47Pfx8G42+uMpo1B6xo0uvaM016l525b9g7QH8s96c2JJ2VF66m
0S+hGQ8us2s7Ihy//YLzmnUC0fRBp3OzUzWIHQIDAQABozkwNzAJBgNVHRMEAjAA
MAsGA1UdDwQEAwIGwDAdBgNVHQ4EFgQU2YqQselLoercv1NIuDIopbiDpzcwDQYJ
KoZIhvcNAQEFBQADgYEAWLzLeFs1kJc2Zu7a1Q3c8vKleRkc1FYOlJGimqzw85iI
NeFI2giWTG/0Bvi5oSrQF9TAar+e95Vc5TVB06TJ2oqVkzPSjBlGAcIX4Q1VrfSH
jECZ4yZB1B6h+z0vdkw9xpI/31MwmuiZ/2SsQqM8R+tqOVSCQ5kvVNNql9lVHxY=
-----END CERTIFICATE-----
