Certificate:
    Data:
        Version: 3 (0x2)
        Serial Number: 5 (0x5)
        Signature Algorithm: sha1WithRSAEncryption
        Issuer: CN=hx509 Test Root CA, C=SE
        Validity
            Not Before: Apr 26 16:40:07 2006 GMT
            Not After : Apr 23 16:40:07 2016 GMT
        Subject: C=SE, CN=Test cert DigitalSignature
        Subject Public Key Info:
            Public Key Algorithm: rsaEncryption
            RSA Public Key: (1024 bit)
                Modulus (1024 bit):
                    00:b2:0a:77:f3:c0:de:a1:f2:80:40:06:c4:cf:30:
                    e1:18:ca:13:bb:c7:03:48:5a:ac:8d:d2:6d:8a:11:
                    16:4d:9f:7e:22:4f:f6:6f:06:d1:4e:9e:d1:7f:f3:
                    96:00:8d:e9:35:4c:c3:20:e2:21:16:aa:5d:bf:47:
                    8d:31:05:9a:69:26:03:36:44:0b:5e:52:e9:b1:32:
                    78:d5:83:a8:f9:1c:64:63:d0:65:c0:d1:27:e7:76:
                    ff:f4:a0:26:cb:29:e9:53:3f:e5:f4:5f:3b:5c:7e:
                    42:d3:94:d7:ae:f2:79:13:eb:4b:88:7c:ac:b4:43:
                    7a:9f:cc:82:dc:41:35:e4:2b
                Exponent: 65537 (0x10001)
        X509v3 extensions:
            X509v3 Basic Constraints: 
                CA:FALSE
            X509v3 Key Usage: 
                Digital Signature, Non Repudiation
            X509v3 Subject Key Identifier: 
                F6:7A:F9:2A:33:49:6F:C7:A5:44:2F:80:4F:B9:CE:8F:32:A2:B6:E7
    Signature Algorithm: sha1WithRSAEncryption
        89:fb:12:d1:fe:38:09:45:da:38:31:db:35:3b:0c:7b:ab:de:
        d7:6e:fc:58:5b:22:f3:04:19:0d:5a:51:c3:01:68:53:1b:e2:
        d9:19:3e:2d:88:99:b6:e8:46:13:69:b4:09:01:bd:94:c8:15:
        65:4a:fa:bb:6d:6f:82:0f:1e:2e:d4:25:30:56:72:bb:fd:e2:
        af:c2:f5:14:82:87:1d:18:a3:be:38:ad:0f:47:61:29:0a:f9:
        e8:86:10:13:63:6d:7b:c6:75:96:e7:4e:88:43:36:b6:1f:f7:
        35:66:e3:40:ef:28:92:b1:8c:7d:85:58:6c:6f:f6:85:b3:db:
        de:0c
-----BEGIN CERTIFICATE-----
MIICCzCCAXSgAwIBAgIBBTANBgkqhkiG9w0BAQUFADAqMRswGQYDVQQDDBJoeDUw
OSBUZXN0IFJvb3QgQ0ExCzAJBgNVBAYTAlNFMB4XDTA2MDQyNjE2NDAwN1oXDTE2
MDQyMzE2NDAwN1owMjELMAkGA1UEBhMCU0UxIzAhBgNVBAMMGlRlc3QgY2VydCBE
aWdpdGFsU2lnbmF0dXJlMIGfMA0GCSqGSIb3DQEBAQUAA4GNADCBiQKBgQCyCnfz
wN6h8oBABsTPMOEYyhO7xwNIWqyN0m2KERZNn34iT/ZvBtFOntF/85YAjek1TMMg
4iEWql2/R40xBZppJgM2RAteUumxMnjVg6j5HGRj0GXA0Sfndv/0oCbLKelTP+X0
XztcfkLTlNeu8nkT60uIfKy0Q3qfzILcQTXkKwIDAQABozkwNzAJBgNVHRMEAjAA
MAsGA1UdDwQEAwIGwDAdBgNVHQ4EFgQU9nr5KjNJb8elRC+AT7nOjzKitucwDQYJ
KoZIhvcNAQEFBQADgYEAifsS0f44CUXaODHbNTsMe6ve1278WFsi8wQZDVpRwwFo
Uxvi2Rk+LYiZtuhGE2m0CQG9lMgVZUr6u21vgg8eLtQlMFZyu/3ir8L1FIKHHRij
vjitD0dhKQr56IYQE2Nte8Z1ludOiEM2th/3NWbjQO8okrGMfYVYbG/2hbPb3gw=
-----END CERTIFICATE-----
