Certificate:
    Data:
        Version: 3 (0x2)
        Serial Number: 4 (0x4)
        Signature Algorithm: sha1WithRSAEncryption
        Issuer: CN=hx509 Test Root CA, C=SE
        Validity
            Not Before: Apr 26 16:40:06 2006 GMT
            Not After : Apr 23 16:40:06 2016 GMT
        Subject: C=SE, CN=Test cert KeyEncipherment
        Subject Public Key Info:
            Public Key Algorithm: rsaEncryption
            RSA Public Key: (1024 bit)
                Modulus (1024 bit):
                    00:c1:9e:46:ec:ab:42:4e:24:2d:5d:6c:bb:b4:c7:
                    57:d7:fa:72:99:6b:cd:35:41:9f:65:3d:43:e2:87:
                    0a:86:e7:71:5a:56:ef:79:42:fb:de:6f:da:12:20:
                    2c:d9:0e:65:4c:15:b9:ba:5c:31:c4:e8:6b:e6:f5:
                    ab:9a:85:9e:94:3a:26:8e:a9:15:cb:76:fb:88:e9:
                    54:f5:07:10:8f:ef:66:b0:97:e9:6d:ce:81:74:44:
                    e2:a0:1e:c1:ff:77:02:3c:97:8f:6a:f4:e7:3f:5c:
                    6f:81:20:90:e0:c5:aa:b5:f3:05:ac:9d:f8:08:3d:
                    3d:6e:ff:0f:0d:35:4c:dc:79
                Exponent: 65537 (0x10001)
        X509v3 extensions:
            X509v3 Basic Constraints: 
                CA:FALSE
            X509v3 Key Usage: 
                Non Repudiation, Key Encipherment
            X509v3 Subject Key Identifier: 
                C1:36:B9:C1:70:93:80:4C:CE:B9:F0:0A:A9:21:A5:65:05:40:14:B0
    Signature Algorithm: sha1WithRSAEncryption
        1b:2d:96:be:11:f3:3a:c8:d6:90:e4:b8:9d:55:60:c6:ad:e2:
        c4:21:e7:bb:fc:d7:87:44:2a:4e:87:f7:68:1f:47:a4:7e:63:
        e0:87:25:d4:8b:79:bf:05:ea:42:52:e9:66:23:0f:96:71:cc:
        5c:a4:e2:85:41:f3:d6:c9:92:c8:fa:80:23:9b:21:02:a6:f5:
        45:bc:0d:d7:ef:d6:13:cf:43:0b:ed:1f:b1:75:ed:18:ff:e9:
        b4:01:36:0b:9d:ea:52:d1:c1:00:36:cd:e4:db:a8:d7:9b:8e:
        b1:6b:9a:2b:30:86:07:b3:84:56:48:c3:bd:84:9d:c6:1d:fb:
        c0:29
-----BEGIN CERTIFICATE-----
MIICCjCCAXOgAwIBAgIBBDANBgkqhkiG9w0BAQUFADAqMRswGQYDVQQDDBJoeDUw
OSBUZXN0IFJvb3QgQ0ExCzAJBgNVBAYTAlNFMB4XDTA2MDQyNjE2NDAwNloXDTE2
MDQyMzE2NDAwNlowMTELMAkGA1UEBhMCU0UxIjAgBgNVBAMMGVRlc3QgY2VydCBL
ZXlFbmNpcGhlcm1lbnQwgZ8wDQYJKoZIhvcNAQEBBQADgY0AMIGJAoGBAMGeRuyr
Qk4kLV1su7THV9f6cplrzTVBn2U9Q+KHCobncVpW73lC+95v2hIgLNkOZUwVubpc
McToa+b1q5qFnpQ6Jo6pFct2+4jpVPUHEI/vZrCX6W3OgXRE4qAewf93AjyXj2r0
5z9cb4EgkODFqrXzBayd+Ag9PW7/Dw01TNx5AgMBAAGjOTA3MAkGA1UdEwQCMAAw
CwYDVR0PBAQDAgVgMB0GA1UdDgQWBBTBNrnBcJOATM658AqpIaVlBUAUsDANBgkq
hkiG9w0BAQUFAAOBgQAbLZa+EfM6yNaQ5LidVWDGreLEIee7/NeHRCpOh/doH0ek
fmPghyXUi3m/BepCUulmIw+WccxcpOKFQfPWyZLI+oAjmyECpvVFvA3X79YTz0ML
7R+xde0Y/+m0ATYLnepS0cEANs3k26jXm46xa5orMIYHs4RWSMO9hJ3GHfvAKQ==
-----END CERTIFICATE-----
