Certificate:
    Data:
        Version: 3 (0x2)
        Serial Number: 5 (0x5)
        Signature Algorithm: sha1WithRSAEncryption
        Issuer: CN=hx509 Test Root CA, C=SE
        Validity
            Not Before: Dec  7 23:40:48 2006 GMT
            Not After : Dec  4 23:40:48 2016 GMT
        Subject: C=SE, CN=Test cert DigitalSignature
        Subject Public Key Info:
            Public Key Algorithm: rsaEncryption
            RSA Public Key: (1024 bit)
                Modulus (1024 bit):
                    00:e8:71:c6:13:87:07:7d:72:a9:15:ac:ad:2a:cd:
                    04:1c:a1:70:06:73:c1:9a:5f:06:74:3a:98:24:c4:
                    21:56:0f:85:cf:1d:30:e8:50:00:66:04:22:2c:00:
                    7d:61:4b:b0:51:74:4e:46:a1:65:c2:cb:fc:93:e0:
                    dc:4b:5b:db:6a:51:26:d2:d8:13:13:62:05:98:9b:
                    48:96:26:0a:29:a6:85:73:61:d1:c7:a6:ea:5d:72:
                    9f:3d:52:80:32:40:ca:84:84:01:d5:83:a1:7f:7c:
                    03:8c:54:66:2f:12:b1:33:5e:8f:bd:38:3c:bc:4b:
                    44:6a:b2:56:c2:8e:6e:15:91
                Exponent: 65537 (0x10001)
        X509v3 extensions:
            X509v3 Basic Constraints: 
                CA:FALSE
            X509v3 Key Usage: 
                Digital Signature, Non Repudiation
            X509v3 Subject Key Identifier: 
                10:B6:79:4E:49:57:95:8E:F9:37:B7:27:ED:7F:F1:05:CC:B4:80:43
    Signature Algorithm: sha1WithRSAEncryption
        0a:d0:ca:6f:0f:c3:16:dc:da:36:d1:34:88:2f:f5:91:a9:22:
        12:3e:53:c2:06:6e:41:89:e5:cc:35:ed:e1:42:13:3d:fa:9c:
        62:74:10:0e:e5:1c:8d:3e:c3:f5:78:88:6a:02:ae:e2:7d:c1:
        be:b4:f6:de:ea:9d:6f:1f:11:aa:5b:8a:81:0e:94:2f:e9:63:
        7e:a6:30:be:77:a4:13:aa:a9:d7:b8:55:85:6f:01:2a:59:af:
        ac:1b:b4:14:eb:cb:e3:10:66:ea:32:fa:7e:9e:1a:c4:e5:68:
        50:47:7e:04:2a:31:1e:77:4e:5b:7b:9e:6b:d7:9b:b2:82:af:
        da:69
-----BEGIN CERTIFICATE-----
MIICCzCCAXSgAwIBAgIBBTANBgkqhkiG9w0BAQUFADAqMRswGQYDVQQDDBJoeDUw
OSBUZXN0IFJvb3QgQ0ExCzAJBgNVBAYTAlNFMB4XDTA2MTIwNzIzNDA0OFoXDTE2
MTIwNDIzNDA0OFowMjELMAkGA1UEBhMCU0UxIzAhBgNVBAMMGlRlc3QgY2VydCBE
aWdpdGFsU2lnbmF0dXJlMIGfMA0GCSqGSIb3DQEBAQUAA4GNADCBiQKBgQDoccYT
hwd9cqkVrK0qzQQcoXAGc8GaXwZ0OpgkxCFWD4XPHTDoUABmBCIsAH1hS7BRdE5G
oWXCy/yT4NxLW9tqUSbS2BMTYgWYm0iWJgoppoVzYdHHpupdcp89UoAyQMqEhAHV
g6F/fAOMVGYvErEzXo+9ODy8S0RqslbCjm4VkQIDAQABozkwNzAJBgNVHRMEAjAA
MAsGA1UdDwQEAwIGwDAdBgNVHQ4EFgQUELZ5TklXlY75N7cn7X/xBcy0gEMwDQYJ
KoZIhvcNAQEFBQADgYEACtDKbw/DFtzaNtE0iC/1kakiEj5TwgZuQYnlzDXt4UIT
PfqcYnQQDuUcjT7D9XiIagKu4n3BvrT23uqdbx8RqluKgQ6UL+ljfqYwvnekE6qp
17hVhW8BKlmvrBu0FOvL4xBm6jL6fp4axOVoUEd+BCoxHndOW3uea9ebsoKv2mk=
-----END CERTIFICATE-----
