Certificate:
    Data:
        Version: 3 (0x2)
        Serial Number: 4 (0x4)
        Signature Algorithm: sha1WithRSAEncryption
        Issuer: CN=hx509 Test Root CA, C=SE
        Validity
            Not Before: Apr 13 20:42:52 2009 GMT
            Not After : Apr 11 20:42:52 2019 GMT
        Subject: C=SE, CN=Test cert KeyEncipherment
        Subject Public Key Info:
            Public Key Algorithm: rsaEncryption
                Public-Key: (1024 bit)
                Modulus:
                    00:c1:96:54:d4:4c:78:64:1a:aa:52:59:a7:11:1f:
                    8b:e9:b8:10:6a:3a:be:f2:bb:00:0c:cf:82:e8:b8:
                    e6:64:5f:7a:d4:38:f0:08:62:ee:b2:6c:75:34:f5:
                    a1:7f:6d:25:dd:ca:82:0f:c3:42:d6:5b:eb:11:de:
                    8b:bd:e6:e8:19:23:ae:11:38:84:a5:7e:4f:16:15:
                    59:4d:9b:0a:4e:a4:88:fe:4e:39:9d:53:d4:25:c2:
                    36:3a:28:f0:6c:af:55:e6:ae:f3:17:99:1a:7a:0a:
                    50:01:b0:5d:67:84:bb:9a:84:5e:57:a6:d6:c6:f3:
                    fb:ab:0e:6f:f6:53:e3:c7:71
                Exponent: 65537 (0x10001)
        X509v3 extensions:
            X509v3 Basic Constraints: 
                CA:FALSE
            X509v3 Key Usage: 
                Non Repudiation, Key Encipherment
            X509v3 Subject Key Identifier: 
                1F:51:89:F6:4F:E4:B2:06:F1:FA:6F:E1:6A:37:6C:BD:5B:AE:63:FF
    Signature Algorithm: sha1WithRSAEncryption
        2d:14:90:ec:ab:5c:ce:4e:29:09:e1:d1:59:8b:89:c5:73:7f:
        a2:ab:04:44:90:b2:c2:3c:b1:7a:31:62:e5:e9:43:71:c4:30:
        aa:b7:df:ee:4c:5f:5e:10:b5:6a:7c:80:a6:fb:76:4c:d4:12:
        ba:72:32:ce:0c:ee:19:20:7d:9e:5a:4f:f7:e6:9b:ce:ab:38:
        4a:b7:45:49:df:dc:d9:1f:ae:c8:32:61:55:b2:39:23:49:dc:
        10:59:24:5a:82:37:8e:25:39:aa:64:4c:0c:2c:74:7e:3b:d0:
        cf:88:63:3d:4c:aa:b0:c8:22:87:36:e5:b4:b3:3a:1d:bc:ff:
        86:86
-----BEGIN CERTIFICATE-----
MIICCjCCAXOgAwIBAgIBBDANBgkqhkiG9w0BAQUFADAqMRswGQYDVQQDDBJoeDUw
OSBUZXN0IFJvb3QgQ0ExCzAJBgNVBAYTAlNFMB4XDTA5MDQxMzIwNDI1MloXDTE5
MDQxMTIwNDI1MlowMTELMAkGA1UEBhMCU0UxIjAgBgNVBAMMGVRlc3QgY2VydCBL
ZXlFbmNpcGhlcm1lbnQwgZ8wDQYJKoZIhvcNAQEBBQADgY0AMIGJAoGBAMGWVNRM
eGQaqlJZpxEfi+m4EGo6vvK7AAzPgui45mRfetQ48Ahi7rJsdTT1oX9tJd3Kgg/D
QtZb6xHei73m6BkjrhE4hKV+TxYVWU2bCk6kiP5OOZ1T1CXCNjoo8GyvVeau8xeZ
GnoKUAGwXWeEu5qEXlem1sbz+6sOb/ZT48dxAgMBAAGjOTA3MAkGA1UdEwQCMAAw
CwYDVR0PBAQDAgVgMB0GA1UdDgQWBBQfUYn2T+SyBvH6b+FqN2y9W65j/zANBgkq
hkiG9w0BAQUFAAOBgQAtFJDsq1zOTikJ4dFZi4nFc3+iqwREkLLCPLF6MWLl6UNx
xDCqt9/uTF9eELVqfICm+3ZM1BK6cjLODO4ZIH2eWk/35pvOqzhKt0VJ39zZH67I
MmFVsjkjSdwQWSRagjeOJTmqZEwMLHR+O9DPiGM9TKqwyCKHNuW0szodvP+Ghg==
-----END CERTIFICATE-----
