Certificate:
    Data:
        Version: 3 (0x2)
        Serial Number: 2 (0x2)
        Signature Algorithm: sha1WithRSAEncryption
        Issuer: CN=hx509 Test Root CA, C=SE
        Validity
            Not Before: Apr 26 16:40:05 2006 GMT
            Not After : Apr 23 16:40:05 2016 GMT
        Subject: C=SE, CN=Test cert
        Subject Public Key Info:
            Public Key Algorithm: rsaEncryption
            RSA Public Key: (1024 bit)
                Modulus (1024 bit):
                    00:a7:1d:19:43:87:ad:9d:33:32:14:5e:ff:ac:99:
                    bc:bc:e7:e7:a1:02:72:54:2a:45:4b:c8:a0:1d:9a:
                    ab:3e:14:b6:e3:03:91:e7:15:ca:79:5c:cf:d1:31:
                    d0:a6:a7:cd:e1:0c:20:81:e4:f5:b0:29:78:50:05:
                    75:8c:7e:a4:19:1f:4e:fb:dc:92:5f:d6:0a:c7:65:
                    d8:b1:b0:06:4f:a9:f3:c5:ae:a4:94:cd:2f:a2:75:
                    63:20:fe:20:ec:ef:d3:67:1c:ae:53:6f:33:43:b3:
                    f7:85:c2:ce:90:bb:0c:6d:52:46:02:98:3a:61:d6:
                    18:bd:80:55:6f:eb:4b:3e:ed
                Exponent: 65537 (0x10001)
        X509v3 extensions:
            X509v3 Basic Constraints: 
                CA:FALSE
            X509v3 Key Usage: 
                Digital Signature, Non Repudiation, Key Encipherment
            X509v3 Subject Key Identifier: 
                42:2F:EC:28:F6:9C:66:C3:41:31:D9:F9:57:1E:1E:4F:11:AA:C5:D5
    Signature Algorithm: sha1WithRSAEncryption
        ae:e3:af:c7:46:66:10:3f:56:01:f4:a7:71:c2:a0:e6:fb:73:
        41:55:3b:d0:12:fb:ed:8d:31:f9:37:09:ef:95:ef:66:a6:e7:
        19:6a:f9:65:73:ff:6c:49:64:d2:a7:bc:3d:94:6f:2d:74:21:
        55:a1:ae:41:45:c4:cf:12:19:81:1f:de:89:ad:cf:88:f9:ca:
        92:6f:f7:17:3c:42:05:89:0a:cc:85:b5:2f:61:08:5c:d7:e8:
        6b:2e:be:ff:6d:9f:f4:f7:a7:a7:f5:ef:dd:72:37:8d:14:79:
        39:0f:e0:e5:1b:8f:8f:c5:ff:95:ed:ca:a5:fb:5a:51:f7:a7:
        81:11
-----BEGIN CERTIFICATE-----
MIIB+jCCAWOgAwIBAgIBAjANBgkqhkiG9w0BAQUFADAqMRswGQYDVQQDDBJoeDUw
OSBUZXN0IFJvb3QgQ0ExCzAJBgNVBAYTAlNFMB4XDTA2MDQyNjE2NDAwNVoXDTE2
MDQyMzE2NDAwNVowITELMAkGA1UEBhMCU0UxEjAQBgNVBAMMCVRlc3QgY2VydDCB
nzANBgkqhkiG9w0BAQEFAAOBjQAwgYkCgYEApx0ZQ4etnTMyFF7/rJm8vOfnoQJy
VCpFS8igHZqrPhS24wOR5xXKeVzP0THQpqfN4QwggeT1sCl4UAV1jH6kGR9O+9yS
X9YKx2XYsbAGT6nzxa6klM0vonVjIP4g7O/TZxyuU28zQ7P3hcLOkLsMbVJGApg6
YdYYvYBVb+tLPu0CAwEAAaM5MDcwCQYDVR0TBAIwADALBgNVHQ8EBAMCBeAwHQYD
VR0OBBYEFEIv7Cj2nGbDQTHZ+VceHk8RqsXVMA0GCSqGSIb3DQEBBQUAA4GBAK7j
r8dGZhA/VgH0p3HCoOb7c0FVO9AS++2NMfk3Ce+V72am5xlq+WVz/2xJZNKnvD2U
by10IVWhrkFFxM8SGYEf3omtz4j5ypJv9xc8QgWJCsyFtS9hCFzX6Gsuvv9tn/T3
p6f1791yN40UeTkP4OUbj4/F/5XtyqX7WlH3p4ER
-----END CERTIFICATE-----
