Certificate:
    Data:
        Version: 3 (0x2)
        Serial Number: 4 (0x4)
        Signature Algorithm: sha1WithRSAEncryption
        Issuer: CN=hx509 Test Root CA, C=SE
        Validity
            Not Before: Nov 23 17:37:07 2006 GMT
            Not After : Nov 20 17:37:07 2016 GMT
        Subject: C=SE, CN=Test cert KeyEncipherment
        Subject Public Key Info:
            Public Key Algorithm: rsaEncryption
            RSA Public Key: (1024 bit)
                Modulus (1024 bit):
                    00:ad:64:aa:18:98:5c:62:f3:d5:a1:38:a5:04:45:
                    2e:3e:48:37:22:da:5a:76:ec:f9:01:24:58:73:a4:
                    52:f0:9d:7b:b2:60:d1:7d:f4:1c:cd:c6:58:9f:ba:
                    77:48:2b:8d:36:1a:21:42:77:8b:0d:ac:4f:19:1f:
                    2b:ef:2c:3e:96:7f:e0:82:aa:f9:01:5c:60:fb:41:
                    41:18:51:51:57:76:90:dc:72:4a:c5:6b:13:28:f5:
                    e9:4d:7e:3d:10:8d:d4:b2:7e:af:20:be:37:0e:7f:
                    78:59:62:e1:07:dd:d9:3e:0a:09:a0:94:e5:28:45:
                    fb:1b:ea:4a:15:3c:ad:c0:81
                Exponent: 65537 (0x10001)
        X509v3 extensions:
            X509v3 Basic Constraints: 
                CA:FALSE
            X509v3 Key Usage: 
                Non Repudiation, Key Encipherment
            X509v3 Subject Key Identifier: 
                18:02:DF:D3:09:54:09:86:6B:95:D1:A2:48:39:53:06:96:A1:0C:1B
    Signature Algorithm: sha1WithRSAEncryption
        28:a2:55:3a:c7:e1:ae:df:4e:ee:a7:77:ae:0f:bd:62:0b:8e:
        eb:fd:72:e6:da:8d:b2:99:2b:df:b5:37:ae:a2:22:ad:be:2e:
        be:4a:2b:5a:29:c4:34:60:3f:2c:7c:fe:e3:04:68:85:55:e5:
        c7:d1:a8:47:54:3d:33:01:01:9f:85:1e:c6:4e:d0:5d:fa:b3:
        46:92:c7:19:40:89:08:40:b6:c8:09:6a:dc:79:aa:69:2a:a2:
        39:e8:f5:77:f0:35:64:40:06:19:a0:a0:12:5c:e5:6d:92:15:
        dd:34:10:16:71:ba:04:2b:f3:5f:f3:67:5e:b2:2f:a9:ec:74:
        cf:7c
-----BEGIN CERTIFICATE-----
MIICCjCCAXOgAwIBAgIBBDANBgkqhkiG9w0BAQUFADAqMRswGQYDVQQDDBJoeDUw
OSBUZXN0IFJvb3QgQ0ExCzAJBgNVBAYTAlNFMB4XDTA2MTEyMzE3MzcwN1oXDTE2
MTEyMDE3MzcwN1owMTELMAkGA1UEBhMCU0UxIjAgBgNVBAMMGVRlc3QgY2VydCBL
ZXlFbmNpcGhlcm1lbnQwgZ8wDQYJKoZIhvcNAQEBBQADgY0AMIGJAoGBAK1kqhiY
XGLz1aE4pQRFLj5INyLaWnbs+QEkWHOkUvCde7Jg0X30HM3GWJ+6d0grjTYaIUJ3
iw2sTxkfK+8sPpZ/4IKq+QFcYPtBQRhRUVd2kNxySsVrEyj16U1+PRCN1LJ+ryC+
Nw5/eFli4Qfd2T4KCaCU5ShF+xvqShU8rcCBAgMBAAGjOTA3MAkGA1UdEwQCMAAw
CwYDVR0PBAQDAgVgMB0GA1UdDgQWBBQYAt/TCVQJhmuV0aJIOVMGlqEMGzANBgkq
hkiG9w0BAQUFAAOBgQAoolU6x+Gu307up3euD71iC47r/XLm2o2ymSvftTeuoiKt
vi6+SitaKcQ0YD8sfP7jBGiFVeXH0ahHVD0zAQGfhR7GTtBd+rNGkscZQIkIQLbI
CWrceappKqI56PV38DVkQAYZoKASXOVtkhXdNBAWcboEK/Nf82desi+p7HTPfA==
-----END CERTIFICATE-----
