Certificate:
    Data:
        Version: 3 (0x2)
        Serial Number: 2 (0x2)
        Signature Algorithm: sha1WithRSAEncryption
        Issuer: CN=hx509 Test Root CA, C=SE
        Validity
            Not Before: Apr 29 14:47:02 2006 GMT
            Not After : Apr 26 14:47:02 2016 GMT
        Subject: C=SE, CN=Test cert
        Subject Public Key Info:
            Public Key Algorithm: rsaEncryption
            RSA Public Key: (1024 bit)
                Modulus (1024 bit):
                    00:e8:88:f5:e7:83:dd:e2:1d:eb:54:32:ad:a7:0a:
                    1a:79:4f:b4:e8:dd:f8:89:ca:a2:c1:0e:24:77:bf:
                    16:8b:ee:fe:43:ef:a4:15:f9:ed:be:1e:5a:d7:56:
                    35:27:93:52:cc:cd:c7:6f:40:9b:9e:f8:8f:39:6b:
                    63:ef:f2:bd:94:f5:35:35:2c:f1:9b:c0:79:6a:82:
                    e2:97:df:cf:98:11:9a:6d:45:e6:69:5f:ef:bd:98:
                    bc:a2:a8:8c:05:8f:56:13:d3:66:23:e6:cc:b8:cc:
                    52:66:76:02:77:81:bf:8d:f6:84:8c:aa:b7:bc:6b:
                    89:b5:52:23:0b:9d:2d:d1:29
                Exponent: 65537 (0x10001)
        X509v3 extensions:
            X509v3 Basic Constraints: 
                CA:FALSE
            X509v3 Key Usage: 
                Digital Signature, Non Repudiation, Key Encipherment
            X509v3 Subject Key Identifier: 
                A2:3E:E7:26:C3:D8:3B:6B:48:1E:7B:45:50:95:F5:F1:CA:71:EE:B0
    Signature Algorithm: sha1WithRSAEncryption
        0e:eb:57:09:9a:8c:30:6a:c8:63:50:3b:e4:48:20:2a:ff:03:
        77:86:87:4b:9e:49:6e:7f:55:77:4a:f0:79:ee:0c:6a:06:32:
        62:6c:c6:af:c3:e0:4f:cb:79:f6:38:73:24:6b:a7:e0:3c:7e:
        6e:d6:58:22:6b:bd:8b:7c:ad:25:f2:4c:47:be:78:5f:b7:b9:
        a8:f3:c0:bd:42:79:6b:aa:65:65:36:2f:0b:13:cb:3a:ae:43:
        bd:01:5e:7b:44:82:40:16:c7:b7:7c:f7:fb:9a:b3:53:b6:bf:
        5c:b3:79:75:cf:4a:6e:e7:b1:62:d3:e0:da:2f:64:9e:b8:54:
        f2:b2
-----BEGIN CERTIFICATE-----
MIIB+jCCAWOgAwIBAgIBAjANBgkqhkiG9w0BAQUFADAqMRswGQYDVQQDDBJoeDUw
OSBUZXN0IFJvb3QgQ0ExCzAJBgNVBAYTAlNFMB4XDTA2MDQyOTE0NDcwMloXDTE2
MDQyNjE0NDcwMlowITELMAkGA1UEBhMCU0UxEjAQBgNVBAMMCVRlc3QgY2VydDCB
nzANBgkqhkiG9w0BAQEFAAOBjQAwgYkCgYEA6Ij154Pd4h3rVDKtpwoaeU+06N34
icqiwQ4kd78Wi+7+Q++kFfntvh5a11Y1J5NSzM3Hb0CbnviPOWtj7/K9lPU1NSzx
m8B5aoLil9/PmBGabUXmaV/vvZi8oqiMBY9WE9NmI+bMuMxSZnYCd4G/jfaEjKq3
vGuJtVIjC50t0SkCAwEAAaM5MDcwCQYDVR0TBAIwADALBgNVHQ8EBAMCBeAwHQYD
VR0OBBYEFKI+5ybD2DtrSB57RVCV9fHKce6wMA0GCSqGSIb3DQEBBQUAA4GBAA7r
VwmajDBqyGNQO+RIICr/A3eGh0ueSW5/VXdK8HnuDGoGMmJsxq/D4E/LefY4cyRr
p+A8fm7WWCJrvYt8rSXyTEe+eF+3uajzwL1CeWuqZWU2LwsTyzquQ70BXntEgkAW
x7d89/uas1O2v1yzeXXPSm7nsWLT4NovZJ64VPKy
-----END CERTIFICATE-----
-----BEGIN RSA PRIVATE KEY-----
MIICXgIBAAKBgQDoiPXng93iHetUMq2nChp5T7To3fiJyqLBDiR3vxaL7v5D76QV
+e2+HlrXVjUnk1LMzcdvQJue+I85a2Pv8r2U9TU1LPGbwHlqguKX38+YEZptReZp
X++9mLyiqIwFj1YT02Yj5sy4zFJmdgJ3gb+N9oSMqre8a4m1UiMLnS3RKQIDAQAB
AoGBAJl7dRunnTeXWfHMNXRQpeK2aoldoaOJXV2hsQ5c0UvxpmA+94YN3g8jx//k
BdemVPubQ2y6Lz2BgD99E4yYIurBtR1jypY6iBMhvrkRaj2OodlC8OQcguU5Ejsp
kRJCOxfgxJr33Lm83Vo/vQRzu/XthsUrw4fz3qW0KBroF6g1AkEA+eoiNX/nXwFb
rp9rZa9QmZ99mUmcmqk1raKVVftgeout93yUgFni82Ubs/T2n1WmgzJGC2ngDnX4
KjNgbQYSLwJBAO4yfVno8VYua7iSh+e9WJ7A2byvaXxjT/NwDYBSkJjJRdZAc5aT
lqyET1OGP+qz2Nj8Dn3f3MgJoJosvMUItCcCQQCCxkf8Yt+50UYejIFwhlrQ6Kqa
qfBu5hiWsbsfcRk9RxZTqTc0KtUdtEzY0Fi1a+ZkRMxucIq0RnsD6jqNEl41AkEA
2qd+agprf7EdMVFRcGlf8FsXhR2At65ytgUmX6VrFtWsRgDkGlVg+vx51TJnegue
A5FdvC7DfN1ZkC2BG13iAQJAVQcNNJrply2Hn/iL4RGn7LDE6Fa45ehUzyAorOrS
m8OEp9b7zKSuobXqJPswI/xAzxVQpHwYV24aGwBp9JzG7g==
-----END RSA PRIVATE KEY-----
