Certificate:
    Data:
        Version: 3 (0x2)
        Serial Number: 5 (0x5)
        Signature Algorithm: sha1WithRSAEncryption
        Issuer: CN=hx509 Test Root CA, C=SE
        Validity
            Not Before: Apr 26 16:09:43 2006 GMT
            Not After : Apr 23 16:09:43 2016 GMT
        Subject: C=SE, CN=Test cert DigitalSignature
        Subject Public Key Info:
            Public Key Algorithm: rsaEncryption
            RSA Public Key: (1024 bit)
                Modulus (1024 bit):
                    00:a6:04:73:52:c8:59:14:f3:1f:fd:f4:3a:e9:8e:
                    76:4e:82:99:8c:63:aa:4e:46:24:a8:89:d5:a7:1a:
                    1c:db:8b:2a:ca:7a:af:1b:b6:3f:64:31:fe:65:7c:
                    a3:68:e7:ab:7a:67:45:3a:ef:c4:99:cf:68:35:97:
                    22:7e:82:df:b9:08:a9:df:1c:37:be:91:b7:af:38:
                    f0:68:32:4f:69:07:9c:30:a2:61:a5:86:27:e1:19:
                    88:ea:27:63:13:fd:27:1d:05:ab:5c:14:c1:05:0b:
                    29:b0:12:80:35:d4:83:32:43:84:10:ab:51:e4:d7:
                    6a:93:ca:86:97:8a:23:00:27
                Exponent: 65537 (0x10001)
        X509v3 extensions:
            X509v3 Basic Constraints: 
                CA:FALSE
            X509v3 Key Usage: 
                Digital Signature, Non Repudiation
            X509v3 Subject Key Identifier: 
                7D:DA:EF:36:EA:23:50:91:0D:D6:60:69:94:E8:15:27:C4:86:CC:CE
    Signature Algorithm: sha1WithRSAEncryption
        b4:28:fd:da:46:92:36:e0:69:08:1f:58:98:6b:e8:a1:a0:e9:
        47:7f:04:f3:a2:53:06:a4:a9:a8:b2:20:34:fa:dc:b2:0d:57:
        a9:94:e4:00:86:86:1f:76:7d:99:e8:9e:9e:28:b6:6e:a1:98:
        7b:f2:ca:c1:d0:2a:c2:df:76:a1:64:9a:4b:1a:d9:26:e2:c2:
        d0:d1:bf:de:09:7c:00:8d:52:34:cd:60:59:77:70:d0:30:d3:
        44:b1:77:da:45:42:d0:13:ae:8c:84:82:71:f0:89:f3:4b:98:
        da:fc:0f:54:e8:f4:32:2b:7e:bb:bf:a4:dd:26:e9:77:44:d4:
        40:fc
-----BEGIN CERTIFICATE-----
MIICCzCCAXSgAwIBAgIBBTANBgkqhkiG9w0BAQUFADAqMRswGQYDVQQDDBJoeDUw
OSBUZXN0IFJvb3QgQ0ExCzAJBgNVBAYTAlNFMB4XDTA2MDQyNjE2MDk0M1oXDTE2
MDQyMzE2MDk0M1owMjELMAkGA1UEBhMCU0UxIzAhBgNVBAMMGlRlc3QgY2VydCBE
aWdpdGFsU2lnbmF0dXJlMIGfMA0GCSqGSIb3DQEBAQUAA4GNADCBiQKBgQCmBHNS
yFkU8x/99DrpjnZOgpmMY6pORiSoidWnGhzbiyrKeq8btj9kMf5lfKNo56t6Z0U6
78SZz2g1lyJ+gt+5CKnfHDe+kbevOPBoMk9pB5wwomGlhifhGYjqJ2MT/ScdBatc
FMEFCymwEoA11IMyQ4QQq1Hk12qTyoaXiiMAJwIDAQABozkwNzAJBgNVHRMEAjAA
MAsGA1UdDwQEAwIGwDAdBgNVHQ4EFgQUfdrvNuojUJEN1mBplOgVJ8SGzM4wDQYJ
KoZIhvcNAQEFBQADgYEAtCj92kaSNuBpCB9YmGvooaDpR38E86JTBqSpqLIgNPrc
sg1XqZTkAIaGH3Z9meienii2bqGYe/LKwdAqwt92oWSaSxrZJuLC0NG/3gl8AI1S
NM1gWXdw0DDTRLF32kVC0BOujISCcfCJ80uY2vwPVOj0Mit+u7+k3Sbpd0TUQPw=
-----END CERTIFICATE-----
