Certificate:
    Data:
        Version: 3 (0x2)
        Serial Number: 2 (0x2)
        Signature Algorithm: sha1WithRSAEncryption
        Issuer: CN=hx509 Test Root CA, C=SE
        Validity
            Not Before: Feb  7 10:55:20 2009 GMT
            Not After : Feb  5 10:55:20 2019 GMT
        Subject: C=SE, CN=Test cert
        Subject Public Key Info:
            Public Key Algorithm: rsaEncryption
            RSA Public Key: (1024 bit)
                Modulus (1024 bit):
                    00:db:95:e3:e8:e1:af:69:b6:29:86:07:0b:05:44:
                    4c:05:8a:e7:ab:91:d0:1c:a6:fb:db:fa:36:00:58:
                    94:1c:d2:51:38:69:54:5b:71:0f:8a:7e:33:49:a7:
                    88:6c:68:92:16:a5:e9:04:98:2f:7b:9e:e1:61:a5:
                    4b:49:e1:60:27:89:f8:87:d8:cf:38:76:7b:b4:4c:
                    ea:61:89:ce:33:6e:ef:68:6b:c9:53:9b:0c:e0:80:
                    81:8c:97:8d:2e:37:0f:0a:fa:5d:62:29:78:1a:f0:
                    a8:48:45:c5:11:af:66:42:68:31:5e:70:46:61:57:
                    d3:0d:72:4f:80:bd:3a:1d:3b
                Exponent: 65537 (0x10001)
        X509v3 extensions:
            X509v3 Basic Constraints: 
                CA:FALSE
            X509v3 Key Usage: 
                Digital Signature, Non Repudiation, Key Encipherment
            X509v3 Subject Key Identifier: 
                61:E5:7C:AB:1F:7B:33:F8:3F:A1:4C:EF:B3:79:1E:59:20:0A:AE:E3
    Signature Algorithm: sha1WithRSAEncryption
        76:22:a8:ed:02:65:8d:60:aa:f3:fe:c0:ed:57:e9:73:74:06:
        4d:d6:8c:f4:fc:f1:73:9f:c2:75:4c:2e:68:eb:59:84:6f:e6:
        53:7d:62:ed:35:61:fe:83:a7:15:5b:09:89:bf:80:70:bc:f8:
        82:14:8d:ac:56:a5:d3:b6:71:c4:9c:f3:a6:e4:0b:8a:fd:71:
        6e:da:21:b5:c7:d5:8c:97:71:08:b9:ec:e2:a5:0d:d5:7d:9d:
        db:d7:2d:37:9b:86:ea:cd:ce:92:30:e4:7b:b3:1b:ab:16:a7:
        43:be:b3:44:10:fc:ea:40:81:8d:f0:85:19:41:9a:a3:9d:b4:
        98:2d
-----BEGIN CERTIFICATE-----
MIIB+jCCAWOgAwIBAgIBAjANBgkqhkiG9w0BAQUFADAqMRswGQYDVQQDDBJoeDUw
OSBUZXN0IFJvb3QgQ0ExCzAJBgNVBAYTAlNFMB4XDTA5MDIwNzEwNTUyMFoXDTE5
MDIwNTEwNTUyMFowITELMAkGA1UEBhMCU0UxEjAQBgNVBAMMCVRlc3QgY2VydDCB
nzANBgkqhkiG9w0BAQEFAAOBjQAwgYkCgYEA25Xj6OGvabYphgcLBURMBYrnq5HQ
HKb72/o2AFiUHNJROGlUW3EPin4zSaeIbGiSFqXpBJgve57hYaVLSeFgJ4n4h9jP
OHZ7tEzqYYnOM27vaGvJU5sM4ICBjJeNLjcPCvpdYil4GvCoSEXFEa9mQmgxXnBG
YVfTDXJPgL06HTsCAwEAAaM5MDcwCQYDVR0TBAIwADALBgNVHQ8EBAMCBeAwHQYD
VR0OBBYEFGHlfKsfezP4P6FM77N5HlkgCq7jMA0GCSqGSIb3DQEBBQUAA4GBAHYi
qO0CZY1gqvP+wO1X6XN0Bk3WjPT88XOfwnVMLmjrWYRv5lN9Yu01Yf6DpxVbCYm/
gHC8+IIUjaxWpdO2ccSc86bkC4r9cW7aIbXH1YyXcQi57OKlDdV9ndvXLTebhurN
zpIw5HuzG6sWp0O+s0QQ/OpAgY3whRlBmqOdtJgt
-----END CERTIFICATE-----
