Certificate:
    Data:
        Version: 3 (0x2)
        Serial Number: 2 (0x2)
        Signature Algorithm: sha1WithRSAEncryption
        Issuer: CN=hx509 Test Root CA, C=SE
        Validity
            Not Before: Nov 13 08:09:52 2006 GMT
            Not After : Nov 10 08:09:52 2016 GMT
        Subject: C=SE, CN=Test cert
        Subject Public Key Info:
            Public Key Algorithm: rsaEncryption
            RSA Public Key: (1024 bit)
                Modulus (1024 bit):
                    00:c2:0f:56:e9:36:88:58:88:ae:a0:14:c1:70:0a:
                    0a:fb:fd:01:7d:c4:4d:8f:80:02:c2:66:3d:3e:bb:
                    3c:6c:04:e9:87:9c:4b:39:d1:56:11:09:99:06:e9:
                    4c:f8:aa:dd:eb:ab:71:3f:79:c5:ed:97:9c:fa:75:
                    9a:84:a2:91:24:f6:69:28:55:8e:be:6d:04:20:18:
                    7d:f7:0b:6e:23:2c:5c:7c:35:86:0b:75:e8:8c:6f:
                    6e:1c:f1:55:d8:6b:18:55:d9:38:95:a2:50:33:f7:
                    3e:b0:ac:3b:6e:7f:04:64:6d:4b:c3:d9:79:0d:c0:
                    41:99:f3:31:35:c0:ab:33:57
                Exponent: 65537 (0x10001)
        X509v3 extensions:
            X509v3 Basic Constraints: 
                CA:FALSE
            X509v3 Key Usage: 
                Digital Signature, Non Repudiation, Key Encipherment
            X509v3 Subject Key Identifier: 
                03:B3:8F:70:C7:BC:84:A7:7D:DC:5A:1B:F1:2F:5F:A8:20:0E:80:51
    Signature Algorithm: sha1WithRSAEncryption
        17:23:e0:5f:4e:b4:46:6d:19:be:96:7a:1f:e0:88:ac:f9:a5:
        ff:5f:fb:b6:55:70:1d:0e:a5:f6:8d:6b:65:90:ce:8e:45:d1:
        f7:99:85:2c:06:75:5d:94:b0:5d:f4:55:8a:2c:24:56:c5:84:
        fc:03:e8:a8:fd:99:8d:c2:1b:93:2e:ff:61:75:9d:6c:7c:26:
        6f:e9:5c:04:25:92:3b:58:04:20:2d:a1:c3:fc:39:82:05:9d:
        2d:fd:40:c1:9b:25:9d:7c:2f:9a:40:c4:3f:30:2c:e6:9e:2a:
        82:ba:96:3f:a4:a3:50:36:f0:4b:03:7c:aa:f8:91:bf:0f:61:
        57:87
-----BEGIN CERTIFICATE-----
MIIB+jCCAWOgAwIBAgIBAjANBgkqhkiG9w0BAQUFADAqMRswGQYDVQQDDBJoeDUw
OSBUZXN0IFJvb3QgQ0ExCzAJBgNVBAYTAlNFMB4XDTA2MTExMzA4MDk1MloXDTE2
MTExMDA4MDk1MlowITELMAkGA1UEBhMCU0UxEjAQBgNVBAMMCVRlc3QgY2VydDCB
nzANBgkqhkiG9w0BAQEFAAOBjQAwgYkCgYEAwg9W6TaIWIiuoBTBcAoK+/0BfcRN
j4ACwmY9Prs8bATph5xLOdFWEQmZBulM+Krd66txP3nF7Zec+nWahKKRJPZpKFWO
vm0EIBh99wtuIyxcfDWGC3XojG9uHPFV2GsYVdk4laJQM/c+sKw7bn8EZG1Lw9l5
DcBBmfMxNcCrM1cCAwEAAaM5MDcwCQYDVR0TBAIwADALBgNVHQ8EBAMCBeAwHQYD
VR0OBBYEFAOzj3DHvISnfdxaG/EvX6ggDoBRMA0GCSqGSIb3DQEBBQUAA4GBABcj
4F9OtEZtGb6Weh/giKz5pf9f+7ZVcB0OpfaNa2WQzo5F0feZhSwGdV2UsF30VYos
JFbFhPwD6Kj9mY3CG5Mu/2F1nWx8Jm/pXAQlkjtYBCAtocP8OYIFnS39QMGbJZ18
L5pAxD8wLOaeKoK6lj+ko1A28EsDfKr4kb8PYVeH
-----END CERTIFICATE-----
