Certificate:
    Data:
        Version: 3 (0x2)
        Serial Number: 2 (0x2)
        Signature Algorithm: sha1WithRSAEncryption
        Issuer: CN=hx509 Test Root CA, C=SE
        Validity
            Not Before: Nov 23 17:37:06 2006 GMT
            Not After : Nov 20 17:37:06 2016 GMT
        Subject: C=SE, CN=Test cert
        Subject Public Key Info:
            Public Key Algorithm: rsaEncryption
            RSA Public Key: (1024 bit)
                Modulus (1024 bit):
                    00:ad:91:c6:ee:73:ae:a9:69:6f:34:48:72:f8:e0:
                    c6:b4:b3:09:1b:59:ba:34:a0:06:cd:4c:0f:3d:b1:
                    9c:62:4e:27:79:f4:81:8a:d2:01:ab:3a:0d:b4:c5:
                    cf:dd:7c:40:00:75:d4:0e:61:1a:1f:29:41:3c:3e:
                    bc:c5:90:0e:5d:bf:a1:15:69:35:06:2b:ff:c7:d3:
                    0c:83:d5:8f:9e:dc:11:03:7d:0a:be:45:0b:a1:94:
                    58:cd:3e:10:f9:d2:b9:ee:17:bd:b8:1d:f8:29:4d:
                    fb:dd:f9:93:14:fd:1f:2e:c9:07:c8:5a:33:19:11:
                    34:6f:a4:c0:5d:27:ab:3b:d1
                Exponent: 65537 (0x10001)
        X509v3 extensions:
            X509v3 Basic Constraints: 
                CA:FALSE
            X509v3 Key Usage: 
                Digital Signature, Non Repudiation, Key Encipherment
            X509v3 Subject Key Identifier: 
                22:4C:27:78:70:D4:46:71:3A:D3:FF:8A:BE:0F:39:EF:D7:38:8C:C0
    Signature Algorithm: sha1WithRSAEncryption
        a2:46:11:ab:78:7d:30:03:ba:13:96:49:01:09:c4:03:bb:4c:
        4d:36:e6:04:50:29:18:04:43:d5:24:b8:ca:59:d9:9b:5d:e3:
        03:81:e1:32:17:88:d1:4a:3c:a0:d7:96:02:d0:f9:b4:4e:3c:
        5b:12:7a:db:cc:82:34:01:03:72:74:77:7e:0f:8a:7f:42:8b:
        fa:74:26:09:37:d0:78:b6:f1:19:00:f0:9e:ae:f0:e2:58:19:
        9f:69:bf:24:3b:bf:ec:a9:75:ed:75:ac:57:04:50:7a:d4:d9:
        51:fb:02:ec:44:51:9d:5b:0b:68:07:ee:52:b7:70:6c:bf:90:
        f6:fb
-----BEGIN CERTIFICATE-----
MIIB+jCCAWOgAwIBAgIBAjANBgkqhkiG9w0BAQUFADAqMRswGQYDVQQDDBJoeDUw
OSBUZXN0IFJvb3QgQ0ExCzAJBgNVBAYTAlNFMB4XDTA2MTEyMzE3MzcwNloXDTE2
MTEyMDE3MzcwNlowITELMAkGA1UEBhMCU0UxEjAQBgNVBAMMCVRlc3QgY2VydDCB
nzANBgkqhkiG9w0BAQEFAAOBjQAwgYkCgYEArZHG7nOuqWlvNEhy+ODGtLMJG1m6
NKAGzUwPPbGcYk4nefSBitIBqzoNtMXP3XxAAHXUDmEaHylBPD68xZAOXb+hFWk1
Biv/x9MMg9WPntwRA30KvkULoZRYzT4Q+dK57he9uB34KU373fmTFP0fLskHyFoz
GRE0b6TAXSerO9ECAwEAAaM5MDcwCQYDVR0TBAIwADALBgNVHQ8EBAMCBeAwHQYD
VR0OBBYEFCJMJ3hw1EZxOtP/ir4POe/XOIzAMA0GCSqGSIb3DQEBBQUAA4GBAKJG
Eat4fTADuhOWSQEJxAO7TE025gRQKRgEQ9UkuMpZ2Ztd4wOB4TIXiNFKPKDXlgLQ
+bROPFsSetvMgjQBA3J0d34Pin9Ci/p0Jgk30Hi28RkA8J6u8OJYGZ9pvyQ7v+yp
de11rFcEUHrU2VH7AuxEUZ1bC2gH7lK3cGy/kPb7
-----END CERTIFICATE-----
-----BEGIN RSA PRIVATE KEY-----
MIICWwIBAAKBgQCtkcbuc66paW80SHL44Ma0swkbWbo0oAbNTA89sZxiTid59IGK
0gGrOg20xc/dfEAAddQOYRofKUE8PrzFkA5dv6EVaTUGK//H0wyD1Y+e3BEDfQq+
RQuhlFjNPhD50rnuF724HfgpTfvd+ZMU/R8uyQfIWjMZETRvpMBdJ6s70QIDAQAB
AoGABMsr5VYIkuE4kwcVNc5vbnorXDgELoPk7DKXkSqgmQ5zhKi+Eyltpl76Fe4I
qaNO2TRn4OXJpOasyI8rA4HRA7YqkqS92/P7eUciAz0R7ks1O2at5fUW4/x2mip2
ysi7tBX70E4JkNCyykx3hEF6Bw0hpcflb5mRazy7UO4jLKkCQQDaWCzEWgXSprSP
wchT/1bpzC6TnG912Mz7fg0IERk40UMIYAVdfsMcesq8axK/w7Cz5qngR16W5QSu
pm7I6BwLAkEAy4DNlcrHg5O8DV0RED/AknEoFsomyNr82z8U7AjAtCWnJODpFaMk
z/gGDIc8FpBQqLCwgNIO6i8OcMo1ctTVEwJAS76Q8SDFqlj4hHJWG4WV0g9qDP0U
0Y3/NjN5M9YyqLo3hd1BnziNWQDj+c8vNuUdFJutTMeVccVLBYdpITscFwJAf1+z
ThqKHnUNs1+ZGo6MvhxNd1Y4SGeo9KHbOpGP7DHVGGQeAAkJNZKMVrMejRDvK2bM
UxUneLTTWQ13vtQwOQJAD82OREvILrp5Cflo9l2zjx057/YVZCw3tsi5q8SXi1tb
y6zgYiQBjiX/NFy41p0/MpETeNZudwMPS4PF5OhsQg==
-----END RSA PRIVATE KEY-----
