Certificate:
    Data:
        Version: 3 (0x2)
        Serial Number: 2 (0x2)
        Signature Algorithm: sha1WithRSAEncryption
        Issuer: CN=hx509 Test Root CA, C=SE
        Validity
            Not Before: Jul 19 13:43:32 2007 GMT
            Not After : Jul 16 13:43:32 2017 GMT
        Subject: C=SE, CN=Test cert
        Subject Public Key Info:
            Public Key Algorithm: rsaEncryption
            RSA Public Key: (1024 bit)
                Modulus (1024 bit):
                    00:92:20:eb:7b:85:b8:8e:56:5b:aa:d6:57:33:b3:
                    64:f2:84:a0:85:de:d6:2b:80:25:3e:50:c0:12:ff:
                    e0:fe:8e:c2:e9:b8:92:dd:13:99:34:03:8e:12:eb:
                    b0:3c:5b:da:3f:60:b3:9d:9a:9c:ea:75:35:ee:63:
                    48:73:f5:0e:df:8c:2a:fe:4c:b7:69:0b:f4:ba:cd:
                    28:01:27:a6:4f:8f:e1:53:b3:a0:5d:af:be:63:eb:
                    9c:b8:60:2a:10:35:93:68:e0:df:89:08:4d:5c:bd:
                    e6:0c:be:38:ca:95:b9:71:f4:56:b3:2c:80:f5:54:
                    db:f2:6e:04:ec:9f:ff:04:d1
                Exponent: 65537 (0x10001)
        X509v3 extensions:
            X509v3 Basic Constraints: 
                CA:FALSE
            X509v3 Key Usage: 
                Digital Signature, Non Repudiation, Key Encipherment
            X509v3 Subject Key Identifier: 
                24:B1:2B:2D:0C:01:F9:4B:35:D1:B2:93:0A:6E:17:29:2D:8B:C3:05
    Signature Algorithm: sha1WithRSAEncryption
        44:98:c6:8f:84:fc:b0:df:76:75:78:a1:02:3b:af:8e:1f:74:
        da:49:23:7d:e6:2c:ae:2d:d0:ae:76:15:23:a9:3a:fd:0f:df:
        75:f3:81:3e:eb:d0:a6:9c:75:fb:f4:6f:78:55:a1:05:8e:ad:
        b2:6f:99:59:04:5d:e1:78:1d:b6:79:23:0c:cb:e0:b9:25:b3:
        9c:cf:0c:7d:c6:ef:0b:3a:20:28:8f:d6:41:58:26:61:88:df:
        7f:ef:d8:d9:33:ff:a5:55:32:dd:4c:38:5f:6e:28:16:d0:f3:
        61:52:92:c7:98:c5:72:ab:9f:ea:f1:41:27:b7:94:d6:36:cb:
        e5:41
-----BEGIN CERTIFICATE-----
MIIB+jCCAWOgAwIBAgIBAjANBgkqhkiG9w0BAQUFADAqMRswGQYDVQQDDBJoeDUw
OSBUZXN0IFJvb3QgQ0ExCzAJBgNVBAYTAlNFMB4XDTA3MDcxOTEzNDMzMloXDTE3
MDcxNjEzNDMzMlowITELMAkGA1UEBhMCU0UxEjAQBgNVBAMMCVRlc3QgY2VydDCB
nzANBgkqhkiG9w0BAQEFAAOBjQAwgYkCgYEAkiDre4W4jlZbqtZXM7Nk8oSghd7W
K4AlPlDAEv/g/o7C6biS3ROZNAOOEuuwPFvaP2CznZqc6nU17mNIc/UO34wq/ky3
aQv0us0oASemT4/hU7OgXa++Y+ucuGAqEDWTaODfiQhNXL3mDL44ypW5cfRWsyyA
9VTb8m4E7J//BNECAwEAAaM5MDcwCQYDVR0TBAIwADALBgNVHQ8EBAMCBeAwHQYD
VR0OBBYEFCSxKy0MAflLNdGykwpuFykti8MFMA0GCSqGSIb3DQEBBQUAA4GBAESY
xo+E/LDfdnV4oQI7r44fdNpJI33mLK4t0K52FSOpOv0P33XzgT7r0Kacdfv0b3hV
oQWOrbJvmVkEXeF4HbZ5IwzL4Lkls5zPDH3G7ws6ICiP1kFYJmGI33/v2Nkz/6VV
Mt1MOF9uKBbQ82FSkseYxXKrn+rxQSe3lNY2y+VB
-----END CERTIFICATE-----
