Certificate:
    Data:
        Version: 3 (0x2)
        Serial Number: 5 (0x5)
        Signature Algorithm: sha1WithRSAEncryption
        Issuer: CN=hx509 Test Root CA, C=SE
        Validity
            Not Before: Apr 13 20:42:52 2009 GMT
            Not After : Apr 11 20:42:52 2019 GMT
        Subject: C=SE, CN=Test cert DigitalSignature
        Subject Public Key Info:
            Public Key Algorithm: rsaEncryption
                Public-Key: (1024 bit)
                Modulus:
                    00:be:25:45:1e:2c:d1:1d:66:56:4c:89:d8:4c:d2:
                    3d:6e:d8:00:65:c2:62:aa:ea:4b:aa:9a:05:62:4f:
                    6f:05:33:91:16:fe:be:f2:03:1a:b8:52:8d:00:2a:
                    2a:ae:23:c3:71:97:57:9b:e2:e3:f3:79:06:c8:40:
                    0f:d8:0f:33:51:29:3e:57:0c:56:ac:24:1f:c5:ea:
                    89:a2:40:06:8f:08:a1:94:c4:8a:b3:61:83:75:b9:
                    90:c0:98:a0:8b:e3:7c:5f:3b:bd:90:09:08:84:c2:
                    0b:ef:dd:ce:ae:1b:09:68:67:e3:37:de:dc:26:f2:
                    d8:08:84:6e:50:6c:60:f8:d5
                Exponent: 65537 (0x10001)
        X509v3 extensions:
            X509v3 Basic Constraints: 
                CA:FALSE
            X509v3 Key Usage: 
                Digital Signature, Non Repudiation
            X509v3 Subject Key Identifier: 
                96:3E:E0:8F:15:67:78:9C:02:02:1B:44:DA:60:9C:35:E7:0E:B2:21
    Signature Algorithm: sha1WithRSAEncryption
        11:8c:d0:50:59:1a:d5:38:ab:2d:58:25:d6:68:c3:f0:71:70:
        be:60:3b:7c:1a:ca:51:a1:5c:a5:29:1f:3f:04:08:ed:03:26:
        08:01:33:60:fb:22:c9:5c:e8:02:a0:e6:de:cf:55:14:b6:25:
        48:bd:8f:f8:c1:15:d8:28:d6:f6:19:eb:0d:c5:ad:52:d8:6f:
        a9:8a:c7:30:a6:b6:ce:da:19:6b:0f:df:2a:84:d8:b9:cf:14:
        9e:81:bd:49:a7:3f:65:84:6e:76:91:f8:ef:e2:54:46:f9:48:
        8a:50:c9:af:d4:77:2c:87:85:f6:31:bc:d0:e8:41:0b:a1:99:
        58:e8
-----BEGIN CERTIFICATE-----
MIICCzCCAXSgAwIBAgIBBTANBgkqhkiG9w0BAQUFADAqMRswGQYDVQQDDBJoeDUw
OSBUZXN0IFJvb3QgQ0ExCzAJBgNVBAYTAlNFMB4XDTA5MDQxMzIwNDI1MloXDTE5
MDQxMTIwNDI1MlowMjELMAkGA1UEBhMCU0UxIzAhBgNVBAMMGlRlc3QgY2VydCBE
aWdpdGFsU2lnbmF0dXJlMIGfMA0GCSqGSIb3DQEBAQUAA4GNADCBiQKBgQC+JUUe
LNEdZlZMidhM0j1u2ABlwmKq6kuqmgViT28FM5EW/r7yAxq4Uo0AKiquI8Nxl1eb
4uPzeQbIQA/YDzNRKT5XDFasJB/F6omiQAaPCKGUxIqzYYN1uZDAmKCL43xfO72Q
CQiEwgvv3c6uGwloZ+M33twm8tgIhG5QbGD41QIDAQABozkwNzAJBgNVHRMEAjAA
MAsGA1UdDwQEAwIGwDAdBgNVHQ4EFgQUlj7gjxVneJwCAhtE2mCcNecOsiEwDQYJ
KoZIhvcNAQEFBQADgYEAEYzQUFka1TirLVgl1mjD8HFwvmA7fBrKUaFcpSkfPwQI
7QMmCAEzYPsiyVzoAqDm3s9VFLYlSL2P+MEV2CjW9hnrDcWtUthvqYrHMKa2ztoZ
aw/fKoTYuc8UnoG9Sac/ZYRudpH47+JURvlIilDJr9R3LIeF9jG80OhBC6GZWOg=
-----END CERTIFICATE-----
