Certificate:
    Data:
        Version: 3 (0x2)
        Serial Number: 4 (0x4)
        Signature Algorithm: sha1WithRSAEncryption
        Issuer: CN=hx509 Test Root CA, C=SE
        Validity
            Not Before: Apr 13 21:48:01 2009 GMT
            Not After : Apr 11 21:48:01 2019 GMT
        Subject: C=SE, CN=Test cert KeyEncipherment
        Subject Public Key Info:
            Public Key Algorithm: rsaEncryption
            RSA Public Key: (1024 bit)
                Modulus (1024 bit):
                    00:e4:33:6d:d1:fb:6f:01:fa:6b:47:fb:3d:e7:6c:
                    42:e6:14:ea:cb:ff:b4:2a:93:61:fc:ac:bb:ee:d0:
                    e2:44:a6:a7:d6:a4:ce:dd:5c:a1:4d:27:5b:66:50:
                    34:c1:b6:13:79:9d:d6:63:7e:c9:d6:02:ae:40:9e:
                    74:a8:12:9a:2e:ff:29:03:e4:11:a4:f4:ed:97:55:
                    85:39:9c:c0:53:f6:86:89:e7:a8:cb:8b:d9:0b:36:
                    cf:d2:b7:c6:69:83:e7:d0:f8:ed:30:1f:c4:e9:94:
                    b5:0b:82:5a:2b:d9:47:42:7e:1f:55:9f:d9:28:89:
                    26:a3:9e:ef:0d:05:63:d8:f9
                Exponent: 65537 (0x10001)
        X509v3 extensions:
            X509v3 Basic Constraints: 
                CA:FALSE
            X509v3 Key Usage: 
                Non Repudiation, Key Encipherment
            X509v3 Subject Key Identifier: 
                F8:68:AD:D6:DE:5F:4D:14:B8:A0:FA:79:3B:45:57:1E:55:BA:BF:F9
    Signature Algorithm: sha1WithRSAEncryption
        9a:42:8b:67:03:2e:fa:b0:fc:df:ab:da:65:88:85:86:26:f7:
        ed:a2:38:c1:40:0b:41:80:a8:42:23:c6:cb:9c:c5:8a:e3:c7:
        92:07:c9:23:3c:b6:f5:76:cf:59:3a:dd:57:e3:64:11:c8:62:
        45:99:e3:d6:bc:ef:03:fd:a2:aa:1b:6d:fb:fa:db:7b:01:56:
        71:b7:35:ad:7e:5d:b0:3a:ad:8b:00:74:39:f9:d1:32:77:45:
        ec:4d:5b:d2:99:2e:bb:2c:d1:a4:51:f9:aa:60:c3:f0:d7:07:
        65:4b:54:bf:d1:d2:9b:b5:f7:f1:89:73:f5:67:00:70:9a:da:
        ee:b3
-----BEGIN CERTIFICATE-----
MIICCjCCAXOgAwIBAgIBBDANBgkqhkiG9w0BAQUFADAqMRswGQYDVQQDDBJoeDUw
OSBUZXN0IFJvb3QgQ0ExCzAJBgNVBAYTAlNFMB4XDTA5MDQxMzIxNDgwMVoXDTE5
MDQxMTIxNDgwMVowMTELMAkGA1UEBhMCU0UxIjAgBgNVBAMMGVRlc3QgY2VydCBL
ZXlFbmNpcGhlcm1lbnQwgZ8wDQYJKoZIhvcNAQEBBQADgY0AMIGJAoGBAOQzbdH7
bwH6a0f7PedsQuYU6sv/tCqTYfysu+7Q4kSmp9akzt1coU0nW2ZQNMG2E3md1mN+
ydYCrkCedKgSmi7/KQPkEaT07ZdVhTmcwFP2honnqMuL2Qs2z9K3xmmD59D47TAf
xOmUtQuCWivZR0J+H1Wf2SiJJqOe7w0FY9j5AgMBAAGjOTA3MAkGA1UdEwQCMAAw
CwYDVR0PBAQDAgVgMB0GA1UdDgQWBBT4aK3W3l9NFLig+nk7RVceVbq/+TANBgkq
hkiG9w0BAQUFAAOBgQCaQotnAy76sPzfq9pliIWGJvftojjBQAtBgKhCI8bLnMWK
48eSB8kjPLb1ds9ZOt1X42QRyGJFmePWvO8D/aKqG237+tt7AVZxtzWtfl2wOq2L
AHQ5+dEyd0XsTVvSmS67LNGkUfmqYMPw1wdlS1S/0dKbtffxiXP1ZwBwmtrusw==
-----END CERTIFICATE-----
