Certificate:
    Data:
        Version: 3 (0x2)
        Serial Number: 5 (0x5)
        Signature Algorithm: sha1WithRSAEncryption
        Issuer: CN=hx509 Test Root CA, C=SE
        Validity
            Not Before: Apr 29 14:47:04 2006 GMT
            Not After : Apr 26 14:47:04 2016 GMT
        Subject: C=SE, CN=Test cert DigitalSignature
        Subject Public Key Info:
            Public Key Algorithm: rsaEncryption
            RSA Public Key: (1024 bit)
                Modulus (1024 bit):
                    00:cc:01:76:02:69:52:79:23:20:f3:c6:d2:59:06:
                    1c:16:4b:f0:dd:ae:b4:58:9a:9a:93:79:71:7f:d5:
                    0e:68:b6:c8:0d:30:60:68:7a:0d:58:2f:6a:5f:54:
                    06:79:41:43:a5:fb:b9:8a:a4:8d:31:9a:e7:38:93:
                    58:0e:52:bb:6b:c2:d5:fa:cc:79:7b:14:25:90:97:
                    28:91:14:52:3a:95:62:be:99:24:04:12:73:ed:7a:
                    39:a4:02:a7:e5:7e:8b:e8:e3:7b:08:7d:5c:69:52:
                    3f:2f:40:3c:28:bd:fb:4a:40:c1:22:e4:74:60:2c:
                    70:e3:be:47:f6:9f:5d:e4:c7
                Exponent: 65537 (0x10001)
        X509v3 extensions:
            X509v3 Basic Constraints: 
                CA:FALSE
            X509v3 Key Usage: 
                Digital Signature, Non Repudiation
            X509v3 Subject Key Identifier: 
                F0:1E:C0:D8:A8:D2:77:2B:03:56:6F:38:43:5F:A4:0D:5D:6A:AD:88
    Signature Algorithm: sha1WithRSAEncryption
        67:10:82:45:77:6b:3e:9c:85:62:9a:67:04:11:7c:b7:e3:e7:
        02:2d:a6:f6:38:55:e8:be:64:d4:9c:18:d8:51:e8:48:46:3f:
        75:d6:3c:1b:62:21:6e:de:12:47:09:40:a5:b4:8e:9f:7e:f8:
        98:c7:4f:9b:d6:3f:84:fa:aa:2c:61:a5:20:b7:a3:4b:ea:81:
        cc:3f:d1:6e:54:b7:ab:cf:28:64:a0:89:f8:95:82:ee:18:a3:
        bf:29:2b:b7:80:21:5c:fb:86:6c:df:93:49:3a:a8:5c:0d:b2:
        3b:a3:ab:fe:88:f0:c1:ac:da:c7:28:8c:84:10:95:57:e1:49:
        bd:cf
-----BEGIN CERTIFICATE-----
MIICCzCCAXSgAwIBAgIBBTANBgkqhkiG9w0BAQUFADAqMRswGQYDVQQDDBJoeDUw
OSBUZXN0IFJvb3QgQ0ExCzAJBgNVBAYTAlNFMB4XDTA2MDQyOTE0NDcwNFoXDTE2
MDQyNjE0NDcwNFowMjELMAkGA1UEBhMCU0UxIzAhBgNVBAMMGlRlc3QgY2VydCBE
aWdpdGFsU2lnbmF0dXJlMIGfMA0GCSqGSIb3DQEBAQUAA4GNADCBiQKBgQDMAXYC
aVJ5IyDzxtJZBhwWS/DdrrRYmpqTeXF/1Q5otsgNMGBoeg1YL2pfVAZ5QUOl+7mK
pI0xmuc4k1gOUrtrwtX6zHl7FCWQlyiRFFI6lWK+mSQEEnPtejmkAqflfovo43sI
fVxpUj8vQDwovftKQMEi5HRgLHDjvkf2n13kxwIDAQABozkwNzAJBgNVHRMEAjAA
MAsGA1UdDwQEAwIGwDAdBgNVHQ4EFgQU8B7A2KjSdysDVm84Q1+kDV1qrYgwDQYJ
KoZIhvcNAQEFBQADgYEAZxCCRXdrPpyFYppnBBF8t+PnAi2m9jhV6L5k1JwY2FHo
SEY/ddY8G2Ihbt4SRwlApbSOn374mMdPm9Y/hPqqLGGlILejS+qBzD/RblS3q88o
ZKCJ+JWC7hijvykrt4AhXPuGbN+TSTqoXA2yO6Or/ojwwazaxyiMhBCVV+FJvc8=
-----END CERTIFICATE-----
