Certificate:
    Data:
        Version: 3 (0x2)
        Serial Number: 5 (0x5)
        Signature Algorithm: sha1WithRSAEncryption
        Issuer: CN=hx509 Test Root CA, C=SE
        Validity
            Not Before: Nov 13 08:09:53 2006 GMT
            Not After : Nov 10 08:09:53 2016 GMT
        Subject: C=SE, CN=Test cert DigitalSignature
        Subject Public Key Info:
            Public Key Algorithm: rsaEncryption
            RSA Public Key: (1024 bit)
                Modulus (1024 bit):
                    00:e4:ba:d9:0f:68:87:b7:f0:82:ed:e6:75:bf:c3:
                    3a:7b:89:d8:d9:97:bd:66:45:9a:5a:19:75:04:c5:
                    9d:36:fd:42:fc:a3:3d:0b:49:ef:04:a6:b5:90:e8:
                    18:db:4c:3c:ec:09:d6:42:f1:c3:df:78:9c:70:7a:
                    f9:ac:48:a2:66:5d:0c:26:b6:5d:44:db:98:1d:09:
                    a7:71:77:e0:77:88:7b:9a:9c:55:51:96:f8:3a:03:
                    52:5e:fd:69:04:30:59:f6:b4:8c:ca:e3:5e:fc:10:
                    e1:9f:02:51:70:7f:c8:59:28:ad:a0:cd:5e:30:e8:
                    8e:f5:c4:cb:22:3f:88:b4:15
                Exponent: 65537 (0x10001)
        X509v3 extensions:
            X509v3 Basic Constraints: 
                CA:FALSE
            X509v3 Key Usage: 
                Digital Signature, Non Repudiation
            X509v3 Subject Key Identifier: 
                0D:31:96:F1:1A:67:C5:71:9C:1E:9D:2A:5F:85:66:10:17:FC:E4:56
    Signature Algorithm: sha1WithRSAEncryption
        65:c2:de:bf:5b:80:4d:35:19:c7:65:df:66:bc:fc:ee:85:1d:
        ff:0c:58:0b:22:5e:0f:a2:18:c8:34:ed:d3:d7:54:06:7c:66:
        1a:d7:d8:9a:d7:c4:b4:00:86:ae:dc:b1:e4:9b:fd:44:87:e1:
        a2:8d:f3:d2:a2:dd:8d:af:d6:73:87:fd:90:e9:73:80:e2:a2:
        d7:16:6e:16:92:af:de:81:9f:0c:d9:d6:92:14:e5:a4:1c:d6:
        7c:e4:ee:d0:b0:f9:7c:bb:eb:d6:be:a5:59:7a:bc:c8:12:01:
        c8:f4:b7:e0:b7:d3:b3:3d:10:a8:0c:c3:a1:a5:d0:4e:94:11:
        c8:66
-----BEGIN CERTIFICATE-----
MIICCzCCAXSgAwIBAgIBBTANBgkqhkiG9w0BAQUFADAqMRswGQYDVQQDDBJoeDUw
OSBUZXN0IFJvb3QgQ0ExCzAJBgNVBAYTAlNFMB4XDTA2MTExMzA4MDk1M1oXDTE2
MTExMDA4MDk1M1owMjELMAkGA1UEBhMCU0UxIzAhBgNVBAMMGlRlc3QgY2VydCBE
aWdpdGFsU2lnbmF0dXJlMIGfMA0GCSqGSIb3DQEBAQUAA4GNADCBiQKBgQDkutkP
aIe38ILt5nW/wzp7idjZl71mRZpaGXUExZ02/UL8oz0LSe8EprWQ6BjbTDzsCdZC
8cPfeJxwevmsSKJmXQwmtl1E25gdCadxd+B3iHuanFVRlvg6A1Je/WkEMFn2tIzK
4178EOGfAlFwf8hZKK2gzV4w6I71xMsiP4i0FQIDAQABozkwNzAJBgNVHRMEAjAA
MAsGA1UdDwQEAwIGwDAdBgNVHQ4EFgQUDTGW8RpnxXGcHp0qX4VmEBf85FYwDQYJ
KoZIhvcNAQEFBQADgYEAZcLev1uATTUZx2XfZrz87oUd/wxYCyJeD6IYyDTt09dU
BnxmGtfYmtfEtACGrtyx5Jv9RIfhoo3z0qLdja/Wc4f9kOlzgOKi1xZuFpKv3oGf
DNnWkhTlpBzWfOTu0LD5fLvr1r6lWXq8yBIByPS34LfTsz0QqAzDoaXQTpQRyGY=
-----END CERTIFICATE-----
