Certificate:
    Data:
        Version: 3 (0x2)
        Serial Number: 2 (0x2)
        Signature Algorithm: sha1WithRSAEncryption
        Issuer: CN=hx509 Test Root CA, C=SE
        Validity
            Not Before: Apr 26 16:09:40 2006 GMT
            Not After : Apr 23 16:09:40 2016 GMT
        Subject: C=SE, CN=Test cert
        Subject Public Key Info:
            Public Key Algorithm: rsaEncryption
            RSA Public Key: (1024 bit)
                Modulus (1024 bit):
                    00:a1:92:0b:9f:5d:9b:12:2f:72:8d:a0:7b:b2:8b:
                    c8:9b:10:f7:a9:78:ae:e4:16:f1:3c:9a:e0:5c:b1:
                    d3:6e:c6:5a:4c:2e:e7:1d:e8:84:11:28:ce:96:4e:
                    85:a2:de:87:e7:60:07:24:27:c7:f3:ff:b8:5a:c8:
                    14:fa:cc:99:aa:ca:fa:dc:15:77:a4:14:f3:17:04:
                    65:92:8e:b6:2c:5c:0d:6b:b0:ee:e1:7f:f9:74:f1:
                    1f:c5:90:2d:a7:e2:ca:5a:65:c1:63:66:e7:55:c3:
                    31:3a:d7:f4:9b:4d:86:b1:9c:70:da:ff:ae:78:07:
                    da:cf:b4:49:7d:84:f1:b2:e5
                Exponent: 65537 (0x10001)
        X509v3 extensions:
            X509v3 Basic Constraints: 
                CA:FALSE
            X509v3 Key Usage: 
                Digital Signature, Non Repudiation, Key Encipherment
            X509v3 Subject Key Identifier: 
                94:BD:AD:44:F8:BC:F4:4A:43:97:E5:0B:E5:98:FA:6E:D9:7D:02:FA
    Signature Algorithm: sha1WithRSAEncryption
        0d:b1:41:a8:43:bc:92:b2:c4:03:bd:69:5d:02:a1:20:e9:d2:
        3b:d5:0d:e6:f6:a6:70:29:bf:12:57:c9:ab:fb:cb:1e:08:ff:
        28:27:e0:8f:a3:27:83:39:ee:be:bb:7a:81:3f:32:f1:52:9d:
        d1:37:47:0e:23:5c:95:75:0d:28:4e:fa:8a:1b:96:36:ed:c1:
        f5:dc:3d:bb:74:ad:d2:10:fb:e1:23:a9:1a:7a:ed:ac:ae:c6:
        82:ef:2f:c9:6e:ca:23:fa:a1:32:41:88:fb:d8:22:a9:f9:7f:
        e9:fb:b5:e1:d8:28:df:c4:6b:8e:7e:ea:a1:55:ee:fc:ee:c9:
        53:fe
-----BEGIN CERTIFICATE-----
MIIB+jCCAWOgAwIBAgIBAjANBgkqhkiG9w0BAQUFADAqMRswGQYDVQQDDBJoeDUw
OSBUZXN0IFJvb3QgQ0ExCzAJBgNVBAYTAlNFMB4XDTA2MDQyNjE2MDk0MFoXDTE2
MDQyMzE2MDk0MFowITELMAkGA1UEBhMCU0UxEjAQBgNVBAMMCVRlc3QgY2VydDCB
nzANBgkqhkiG9w0BAQEFAAOBjQAwgYkCgYEAoZILn12bEi9yjaB7sovImxD3qXiu
5BbxPJrgXLHTbsZaTC7nHeiEESjOlk6Fot6H52AHJCfH8/+4WsgU+syZqsr63BV3
pBTzFwRlko62LFwNa7Du4X/5dPEfxZAtp+LKWmXBY2bnVcMxOtf0m02GsZxw2v+u
eAfaz7RJfYTxsuUCAwEAAaM5MDcwCQYDVR0TBAIwADALBgNVHQ8EBAMCBeAwHQYD
VR0OBBYEFJS9rUT4vPRKQ5flC+WY+m7ZfQL6MA0GCSqGSIb3DQEBBQUAA4GBAA2x
QahDvJKyxAO9aV0CoSDp0jvVDeb2pnApvxJXyav7yx4I/ygn4I+jJ4M57r67eoE/
MvFSndE3Rw4jXJV1DShO+oobljbtwfXcPbt0rdIQ++EjqRp67ayuxoLvL8luyiP6
oTJBiPvYIqn5f+n7teHYKN/Ea45+6qFV7vzuyVP+
-----END CERTIFICATE-----
-----BEGIN RSA PRIVATE KEY-----
MIICXAIBAAKBgQChkgufXZsSL3KNoHuyi8ibEPepeK7kFvE8muBcsdNuxlpMLucd
6IQRKM6WToWi3ofnYAckJ8fz/7hayBT6zJmqyvrcFXekFPMXBGWSjrYsXA1rsO7h
f/l08R/FkC2n4spaZcFjZudVwzE61/SbTYaxnHDa/654B9rPtEl9hPGy5QIDAQAB
AoGBAKFU04YuUcm21wvUU6/VJFqydpoih3/56Kg7fg0RA655IXEw5FZY9oar2Jz9
izM2QT4oBPl1P5PEpLEBWPGVm1n5aq7dkUwdaj6LEH6HPdc8QJfcHqlxBF6aFBX3
kEUHob8WKjMeLmqCemfz7c41mGhGc4Nj6s4eoqUzODvI4zwBAkEAzJMU6uIt3x0F
qhV+ViyR20YuvKYwG4YvydwNJ6PvUKlrIyuUTb287R+QPQ5x7O5284qFyt7TOtiF
dMwtSPdgHQJBAMovictRkxHyP/Z7mvNTR6ed+V455kibBHCMg6kbsrgIX1SzUOFz
K7xDErOZqo2igKRI0EuJ+KMBxjgdHSezs2kCQHT2ivkYRB3SXBC4pTjj1qjF4abe
ZZb3C4+gDq1hX0yA8M509h/UoZX5e+BMx/otBTmNM52f9KkqbnMu4Z1cQkkCQFbe
gffHfscRLIY8qWCugXT1HPVtLxI2+HtbBB6edfU4M61yteeH0ly6/MgJ2AuurFLp
rgUmrJts4buuVp5+STECQDt75Sb2G106Dax+isZyq4SSlDuKH8VC8SYhxJCPmdoa
FhOqaPhUHuQpRf7qsbRL92NvJUtLzyzKML2RB0Lmzww=
-----END RSA PRIVATE KEY-----
