Certificate:
    Data:
        Version: 3 (0x2)
        Serial Number: 4 (0x4)
        Signature Algorithm: sha1WithRSAEncryption
        Issuer: CN=hx509 Test Root CA, C=SE
        Validity
            Not Before: Feb  7 10:55:20 2009 GMT
            Not After : Feb  5 10:55:20 2019 GMT
        Subject: C=SE, CN=Test cert KeyEncipherment
        Subject Public Key Info:
            Public Key Algorithm: rsaEncryption
            RSA Public Key: (1024 bit)
                Modulus (1024 bit):
                    00:bb:00:ee:95:a2:a4:49:5f:94:79:66:c0:79:52:
                    e6:09:1c:46:ac:85:f5:9f:9f:c3:08:b8:65:bf:c6:
                    b1:46:c3:0b:2f:95:7e:82:09:7b:fa:75:2d:f4:03:
                    09:bb:fc:44:29:52:6e:43:64:99:dd:1e:5c:de:38:
                    5d:7b:82:c9:2c:07:f7:f6:a3:90:ed:9a:89:ee:d4:
                    e3:be:57:bc:b9:22:d9:0f:b2:5c:78:1f:19:e5:34:
                    6a:d7:84:c3:e8:9b:c5:97:80:bd:d7:34:19:ee:53:
                    1e:7f:da:04:81:3e:c2:32:ab:43:0f:71:44:e8:8a:
                    cd:f1:0b:b0:bd:85:8e:28:23
                Exponent: 65537 (0x10001)
        X509v3 extensions:
            X509v3 Basic Constraints: 
                CA:FALSE
            X509v3 Key Usage: 
                Non Repudiation, Key Encipherment
            X509v3 Subject Key Identifier: 
                7F:BE:C2:37:A5:61:24:AF:0F:8C:17:D6:DB:DD:C8:4B:29:74:1E:5F
    Signature Algorithm: sha1WithRSAEncryption
        5d:cb:e6:c0:4b:5a:ff:f8:3e:0f:26:02:d8:3b:3a:27:35:02:
        b9:3d:24:f7:a7:ea:9a:dc:f5:2a:05:be:9c:20:32:ad:97:3d:
        8c:71:c1:99:1c:f1:cf:5e:86:74:6e:3c:5a:b2:6f:56:8c:57:
        fc:d1:00:74:8f:a7:e3:20:a8:4d:6d:d1:1f:c4:c1:6f:51:be:
        5f:07:35:02:dd:c3:89:f3:4d:52:70:64:b4:92:12:34:b1:16:
        5e:fe:33:20:ef:b5:1b:19:c2:8e:c2:75:92:8c:ef:10:9d:97:
        00:9f:3d:df:e5:d8:b8:84:52:5e:43:cf:e9:93:24:10:a0:05:
        56:f2
-----BEGIN CERTIFICATE-----
MIICCjCCAXOgAwIBAgIBBDANBgkqhkiG9w0BAQUFADAqMRswGQYDVQQDDBJoeDUw
OSBUZXN0IFJvb3QgQ0ExCzAJBgNVBAYTAlNFMB4XDTA5MDIwNzEwNTUyMFoXDTE5
MDIwNTEwNTUyMFowMTELMAkGA1UEBhMCU0UxIjAgBgNVBAMMGVRlc3QgY2VydCBL
ZXlFbmNpcGhlcm1lbnQwgZ8wDQYJKoZIhvcNAQEBBQADgY0AMIGJAoGBALsA7pWi
pElflHlmwHlS5gkcRqyF9Z+fwwi4Zb/GsUbDCy+VfoIJe/p1LfQDCbv8RClSbkNk
md0eXN44XXuCySwH9/ajkO2aie7U475XvLki2Q+yXHgfGeU0ateEw+ibxZeAvdc0
Ge5THn/aBIE+wjKrQw9xROiKzfELsL2FjigjAgMBAAGjOTA3MAkGA1UdEwQCMAAw
CwYDVR0PBAQDAgVgMB0GA1UdDgQWBBR/vsI3pWEkrw+MF9bb3chLKXQeXzANBgkq
hkiG9w0BAQUFAAOBgQBdy+bAS1r/+D4PJgLYOzonNQK5PST3p+qa3PUqBb6cIDKt
lz2MccGZHPHPXoZ0bjxasm9WjFf80QB0j6fjIKhNbdEfxMFvUb5fBzUC3cOJ801S
cGS0khI0sRZe/jMg77UbGcKOwnWSjO8QnZcAnz3f5di4hFJeQ8/pkyQQoAVW8g==
-----END CERTIFICATE-----
