Certificate:
    Data:
        Version: 3 (0x2)
        Serial Number: 2 (0x2)
    Signature Algorithm: sha256WithRSAEncryption
        Issuer: C=US, ST=SambaState, L=SambaCity, O=SambaSelfTesting, OU=CA Administration, CN=CA of samba.example.com/emailAddress=ca-samba.example.com@samba.example.com
        Validity
            Not Before: Mar 18 11:45:30 2016 GMT
            Not After : Mar 13 11:45:30 2036 GMT
        Subject: C=US, ST=SambaState, O=SambaSelfTesting, OU=Domain Controllers, CN=plugindc.plugindom.samba.example.com/emailAddress=ca-samba.example.com@samba.example.com
        Subject Public Key Info:
            Public Key Algorithm: rsaEncryption
                Public-Key: (4096 bit)
                Modulus:
                    00:aa:a3:74:2b:4b:6d:29:43:67:03:dc:c0:be:ce:
                    a6:e3:43:99:e5:87:34:34:42:70:4b:bb:50:87:6d:
                    e8:65:2b:5e:1a:b3:68:0d:9f:27:eb:dc:b8:84:bb:
                    3d:f4:40:28:c0:c7:aa:e5:8d:a1:d5:7f:c7:6b:36:
                    96:6b:3e:65:72:37:0e:d4:2c:03:4d:ee:e6:f8:41:
                    5c:27:bf:32:53:6c:13:28:1f:be:78:9c:7c:80:53:
                    eb:4d:0a:19:1a:88:49:95:a9:c6:65:23:5b:3e:24:
                    27:06:eb:7c:58:24:c6:e7:a4:d9:98:02:c4:ce:b3:
                    1e:01:34:4c:bd:9c:28:da:10:4d:36:e9:7d:a8:68:
                    04:75:18:eb:f0:58:94:05:b1:61:97:d5:9a:b3:db:
                    09:71:74:90:05:87:d4:1c:ff:06:2b:c0:51:b6:26:
                    ca:28:8b:c2:08:3a:93:62:f8:69:b4:3b:c3:6d:9b:
                    0f:80:1d:f8:c3:51:93:78:64:83:63:c7:d0:21:e8:
                    05:cd:22:3e:3e:e2:c2:66:af:46:6c:c6:7d:d8:ed:
                    53:b9:cc:42:e9:a2:43:94:31:f4:9e:45:fa:45:35:
                    ab:7f:32:93:95:a5:1b:4a:9d:27:c0:5f:bf:03:7f:
                    ca:37:c3:c2:c9:6f:b6:6e:5f:05:55:56:f5:2f:40:
                    c2:41:12:17:ee:23:1b:3a:9c:39:74:d5:cc:b1:47:
                    6a:24:85:95:f5:aa:e6:35:40:0c:d3:8f:1e:d3:df:
                    b5:1b:7c:ff:3f:df:7e:7a:d3:f8:e1:92:b0:41:14:
                    f6:aa:1d:8c:36:3d:5c:c5:c5:b7:2f:b8:f8:09:47:
                    c2:51:58:de:80:41:c2:a5:18:c6:a9:16:39:d4:8e:
                    ef:f3:a9:c6:13:db:1e:f5:8a:e7:37:16:7c:df:28:
                    fe:19:44:7b:58:98:ee:72:fa:41:a2:f5:e0:77:c2:
                    5e:fa:e1:94:87:96:17:66:75:07:45:c8:df:6a:40:
                    19:3b:da:4d:48:e8:51:a3:1f:ba:41:62:0a:48:f5:
                    62:42:9e:69:49:aa:ac:36:bd:6f:41:32:bb:62:8a:
                    96:6b:01:aa:de:14:05:3a:43:e9:45:f2:00:9a:dc:
                    71:20:b7:65:f2:f0:7d:b3:74:a0:43:1c:3f:5e:22:
                    47:df:47:8d:5e:cb:93:1a:14:6e:b4:29:0f:af:1c:
                    07:9c:11:74:24:38:09:23:76:0e:ca:fc:60:8f:1a:
                    e2:dc:d4:fd:fe:cb:12:f8:a7:83:c4:ae:db:a4:c7:
                    74:b3:a5:76:90:93:9d:a3:78:01:97:e0:ec:09:78:
                    b9:98:ff:b7:2a:9d:05:03:5e:cf:b2:01:80:79:6b:
                    f9:5d:f5
                Exponent: 65537 (0x10001)
        X509v3 extensions:
            X509v3 Basic Constraints: 
                CA:FALSE
            X509v3 CRL Distribution Points: 

                Full Name:
                  URI:http://www.samba.example.com/crls/CA-samba.example.com-crl.crl

            Netscape Cert Type: 
                SSL Server
            X509v3 Key Usage: 
                Digital Signature, Non Repudiation, Key Encipherment
            Netscape Comment: 
                Domain Controller Certificate plugindc.plugindom.samba.example.com
            X509v3 Subject Key Identifier: 
                DB:4F:D4:70:C3:38:E6:26:37:6F:1B:50:5E:7D:E5:80:7D:B4:08:0D
            X509v3 Authority Key Identifier: 
                keyid:46:87:86:C2:E7:19:CF:16:4C:0C:62:CB:73:7F:FD:8F:19:E4:B5:42

            X509v3 Subject Alternative Name: 
                DNS:plugindc.plugindom.samba.example.com, othername:<unsupported>
            X509v3 Issuer Alternative Name: 
                email:ca-samba.example.com@samba.example.com
            Netscape CA Revocation Url: 
                http://www.samba.example.com/crls/CA-samba.example.com-crl.crl
            X509v3 Extended Key Usage: 
                TLS Web Client Authentication, TLS Web Server Authentication, msKDC
    Signature Algorithm: sha256WithRSAEncryption
         ab:ed:44:9c:0d:f9:df:d6:8d:f2:98:05:cb:97:0c:14:9d:0c:
         b3:2b:49:6c:4f:d6:8f:81:dd:c7:d9:67:be:ad:5b:f6:08:34:
         44:09:88:3a:9d:e9:fe:0b:91:89:f8:32:92:43:43:af:cf:04:
         5c:35:a4:d2:04:77:04:bf:37:45:57:2b:70:94:d0:7a:5f:b9:
         d6:9c:47:ac:46:e4:4c:c2:87:5d:78:b7:3c:be:80:42:dc:3c:
         36:3b:c0:57:fb:ec:95:3a:bb:58:7e:09:ff:57:4e:4f:59:73:
         2a:65:0e:6e:a8:b3:8e:22:6b:40:0c:b5:5b:96:f3:a1:35:92:
         17:12:24:f3:43:fe:54:1d:ac:f9:f1:72:cb:97:b8:43:2f:e1:
         ac:9c:a6:e7:78:98:38:ad:83:eb:c9:77:0b:ea:5a:21:6a:76:
         f7:b2:4c:d7:7b:d4:57:eb:4c:a4:6e:be:eb:be:60:99:ae:ce:
         13:1c:6a:9f:58:e5:64:a2:b6:4e:2a:2e:62:99:d8:fa:af:11:
         5c:7e:51:d3:cf:7e:84:1c:f4:8b:a5:df:c8:b2:39:4c:c3:40:
         48:2e:b6:9d:3d:bf:b1:7b:58:39:f0:38:60:72:42:f4:8c:2a:
         b3:66:c1:e9:12:bc:2a:51:75:55:1e:56:2a:bc:6e:40:1c:2b:
         16:25:90:97:18:4e:b4:63:dc:ff:7a:31:5e:b2:38:c4:17:65:
         3d:1a:31:47:04:75:3a:b7:83:c3:59:09:d5:99:56:45:4d:a0:
         c8:6f:3e:87:61:17:4f:2e:7b:5c:34:76:45:e1:b5:bf:c4:fe:
         32:31:ff:2c:95:52:9c:12:2a:c3:b8:04:f9:25:a3:11:64:35:
         c8:5d:92:f9:fc:2c:ba:45:18:d0:dc:95:1c:dd:30:16:3f:56:
         a4:15:45:85:9b:52:55:3f:f6:a8:dd:54:53:d2:84:1b:d3:1a:
         97:61:8a:60:d6:fb:a1:75:f3:15:8f:b7:f3:f4:41:dc:7d:24:
         90:9a:62:23:a1:ef:c1:01:69:d4:a1:69:82:58:5f:35:b4:83:
         b1:7c:cf:dc:f2:ca:23:af:5a:ac:e9:53:53:bd:33:8e:22:2a:
         1b:cf:ea:e7:e0:24:b2:f5:f7:ff:f6:99:6c:34:13:e9:f2:50:
         70:a1:0f:ec:f9:12:22:99:58:08:5d:f0:49:86:f8:14:3b:1b:
         e6:49:eb:9b:fb:b1:07:60:e0:05:e6:4f:13:39:d1:ea:07:6b:
         e8:85:33:eb:4f:b7:d3:7f:bd:9b:f4:a4:40:f4:a4:4a:f6:5f:
         db:04:f5:f8:04:fa:1a:13:1b:cc:75:6f:c2:df:9d:89:12:5b:
         f1:fa:cf:df:b6:32:3c:3c:5e:e0:26:9a:c7:e7:87:e7:5b:9a:
         76:b3:41:a3:0f:e1:f2:12:69:db:1b:32:57:a4:ad:5b:52:32:
         8d:7e:ec:34:c4:ce:d2:ee:6b:96:56:0e:ef:97:9a:26:a3:b5:
         a0:4c:9a:e0:4f:9b:8d:07:df:92:46:1b:53:53:eb:96:62:74:
         a8:13:03:e3:1f:13:0e:48:22:ca:ba:94:7f:86:80:c0:76:ab:
         08:36:e4:02:f3:ad:31:2f:97:00:06:57:09:12:66:d5:4e:8f:
         5b:88:67:7c:e3:0f:df:1c:97:17:85:9f:b9:08:4c:6e:88:e3:
         e7:b9:53:06:87:98:e8:a3:9f:7c:7d:c9:07:d8:69:74:d1:e7:
         c1:e6:46:e9:0f:2d:4f:04:6d:41:e8:b8:a7:87:d4:5b:1f:89:
         e4:b1:c0:ba:78:2e:7d:cf:84:56:25:56:95:f7:93:dd:4a:47:
         88:b5:ac:d7:da:a7:b3:c9:8c:c5:41:34:8c:31:24:84:d4:51:
         bb:46:4a:3c:db:72:e6:1b:c1:c2:15:6e:1a:ac:61:bd:ce:f1:
         a3:ff:60:d9:a7:90:5a:3a:3e:1c:28:13:ed:cf:ef:ed:f1:fb:
         79:3a:57:ac:41:de:e6:17:d0:92:c6:fc:bd:6a:1c:e0:44:c7:
         d7:ce:80:b4:c2:59:75:a8:bc:8b:32:4e:ea:2a:ff:89:fb:f9:
         98:6b:04:1a:fd:9e:2e:b9:bf:60:d5:84:80:f8:5b:03:0d:d9:
         1e:30:cf:4e:78:2c:a1:88:6d:ee:80:a2:ec:d9:96:00:c9:82:
         a2:81:c0:6e:74:4b:69:9f:fd:c2:ed:0a:f7:31:a9:dc:89:f7:
         c5:83:83:51:bf:f0:f6:8f:22:72:8e:f6:0b:54:d0:b8:7a:39:
         62:d1:d8:76:bd:c3:85:be:18:41:e9:42:c2:80:21:1c:86:20:
         f9:4b:55:5f:e3:e1:6e:ae:ab:0a:4a:0c:05:1f:0d:b5:1f:a0:
         d6:92:dd:20:71:56:74:e8:13:83:2f:4f:d0:72:98:b8:57:b5:
         cc:06:63:3b:29:5b:f7:be:fc:e1:0e:24:94:da:1c:d1:ba:9f:
         7b:af:0d:d9:80:ed:18:85:74:73:62:2f:cb:37:e2:8c:85:90:
         e9:86:dc:2b:78:b5:2a:47:fb:a1:41:f1:d4:2f:66:87:17:a5:
         24:20:54:61:99:03:72:56:5f:96:92:bf:25:4e:d0:20:a0:26:
         85:ac:b1:d2:7b:b9:b9:e9:9c:9d:01:52:a7:29:32:bd:94:65:
         fb:bc:41:d2:9e:6c:59:c7:9a:b6:92:38:ba:fa:08:fc:1f:c7:
         72:9a:a3:a2:cb:02:e3:fc:29:20:20:b7:15:76:73:ab
-----BEGIN CERTIFICATE-----
MIIKDDCCBfSgAwIBAgIBAjANBgkqhkiG9w0BAQsFADCBxjELMAkGA1UEBhMCVVMx
EzARBgNVBAgMClNhbWJhU3RhdGUxEjAQBgNVBAcMCVNhbWJhQ2l0eTEZMBcGA1UE
CgwQU2FtYmFTZWxmVGVzdGluZzEaMBgGA1UECwwRQ0EgQWRtaW5pc3RyYXRpb24x
IDAeBgNVBAMMF0NBIG9mIHNhbWJhLmV4YW1wbGUuY29tMTUwMwYJKoZIhvcNAQkB
FiZjYS1zYW1iYS5leGFtcGxlLmNvbUBzYW1iYS5leGFtcGxlLmNvbTAeFw0xNjAz
MTgxMTQ1MzBaFw0zNjAzMTMxMTQ1MzBaMIHAMQswCQYDVQQGEwJVUzETMBEGA1UE
CAwKU2FtYmFTdGF0ZTEZMBcGA1UECgwQU2FtYmFTZWxmVGVzdGluZzEbMBkGA1UE
CwwSRG9tYWluIENvbnRyb2xsZXJzMS0wKwYDVQQDDCRwbHVnaW5kYy5wbHVnaW5k
b20uc2FtYmEuZXhhbXBsZS5jb20xNTAzBgkqhkiG9w0BCQEWJmNhLXNhbWJhLmV4
YW1wbGUuY29tQHNhbWJhLmV4YW1wbGUuY29tMIICIjANBgkqhkiG9w0BAQEFAAOC
Ag8AMIICCgKCAgEAqqN0K0ttKUNnA9zAvs6m40OZ5Yc0NEJwS7tQh23oZSteGrNo
DZ8n69y4hLs99EAowMeq5Y2h1X/HazaWaz5lcjcO1CwDTe7m+EFcJ78yU2wTKB++
eJx8gFPrTQoZGohJlanGZSNbPiQnBut8WCTG56TZmALEzrMeATRMvZwo2hBNNul9
qGgEdRjr8FiUBbFhl9Was9sJcXSQBYfUHP8GK8BRtibKKIvCCDqTYvhptDvDbZsP
gB34w1GTeGSDY8fQIegFzSI+PuLCZq9GbMZ92O1TucxC6aJDlDH0nkX6RTWrfzKT
laUbSp0nwF+/A3/KN8PCyW+2bl8FVVb1L0DCQRIX7iMbOpw5dNXMsUdqJIWV9arm
NUAM048e09+1G3z/P99+etP44ZKwQRT2qh2MNj1cxcW3L7j4CUfCUVjegEHCpRjG
qRY51I7v86nGE9se9YrnNxZ83yj+GUR7WJjucvpBovXgd8Je+uGUh5YXZnUHRcjf
akAZO9pNSOhRox+6QWIKSPViQp5pSaqsNr1vQTK7YoqWawGq3hQFOkPpRfIAmtxx
ILdl8vB9s3SgQxw/XiJH30eNXsuTGhRutCkPrxwHnBF0JDgJI3YOyvxgjxri3NT9
/ssS+KeDxK7bpMd0s6V2kJOdo3gBl+DsCXi5mP+3Kp0FA17PsgGAeWv5XfUCAwEA
AaOCAgcwggIDMAkGA1UdEwQCMAAwTwYDVR0fBEgwRjBEoEKgQIY+aHR0cDovL3d3
dy5zYW1iYS5leGFtcGxlLmNvbS9jcmxzL0NBLXNhbWJhLmV4YW1wbGUuY29tLWNy
bC5jcmwwEQYJYIZIAYb4QgEBBAQDAgZAMAsGA1UdDwQEAwIF4DBRBglghkgBhvhC
AQ0ERBZCRG9tYWluIENvbnRyb2xsZXIgQ2VydGlmaWNhdGUgcGx1Z2luZGMucGx1
Z2luZG9tLnNhbWJhLmV4YW1wbGUuY29tMB0GA1UdDgQWBBTbT9RwwzjmJjdvG1Be
feWAfbQIDTAfBgNVHSMEGDAWgBRGh4bC5xnPFkwMYstzf/2PGeS1QjBIBgNVHREE
QTA/giRwbHVnaW5kYy5wbHVnaW5kb20uc2FtYmEuZXhhbXBsZS5jb22gFwYJKwYB
BAGCNxkBoAoECAEjRWeJq83vMDEGA1UdEgQqMCiBJmNhLXNhbWJhLmV4YW1wbGUu
Y29tQHNhbWJhLmV4YW1wbGUuY29tME0GCWCGSAGG+EIBBARAFj5odHRwOi8vd3d3
LnNhbWJhLmV4YW1wbGUuY29tL2NybHMvQ0Etc2FtYmEuZXhhbXBsZS5jb20tY3Js
LmNybDAmBgNVHSUEHzAdBggrBgEFBQcDAgYIKwYBBQUHAwEGBysGAQUCAwUwDQYJ
KoZIhvcNAQELBQADggQBAKvtRJwN+d/WjfKYBcuXDBSdDLMrSWxP1o+B3cfZZ76t
W/YINEQJiDqd6f4LkYn4MpJDQ6/PBFw1pNIEdwS/N0VXK3CU0HpfudacR6xG5EzC
h114tzy+gELcPDY7wFf77JU6u1h+Cf9XTk9ZcyplDm6os44ia0AMtVuW86E1khcS
JPND/lQdrPnxcsuXuEMv4aycpud4mDitg+vJdwvqWiFqdveyTNd71FfrTKRuvuu+
YJmuzhMcap9Y5WSitk4qLmKZ2PqvEVx+UdPPfoQc9Iul38iyOUzDQEgutp09v7F7
WDnwOGByQvSMKrNmwekSvCpRdVUeViq8bkAcKxYlkJcYTrRj3P96MV6yOMQXZT0a
MUcEdTq3g8NZCdWZVkVNoMhvPodhF08ue1w0dkXhtb/E/jIx/yyVUpwSKsO4BPkl
oxFkNchdkvn8LLpFGNDclRzdMBY/VqQVRYWbUlU/9qjdVFPShBvTGpdhimDW+6F1
8xWPt/P0Qdx9JJCaYiOh78EBadShaYJYXzW0g7F8z9zyyiOvWqzpU1O9M44iKhvP
6ufgJLL19//2mWw0E+nyUHChD+z5EiKZWAhd8EmG+BQ7G+ZJ65v7sQdg4AXmTxM5
0eoHa+iFM+tPt9N/vZv0pED0pEr2X9sE9fgE+hoTG8x1b8LfnYkSW/H6z9+2Mjw8
XuAmmsfnh+dbmnazQaMP4fISadsbMlekrVtSMo1+7DTEztLua5ZWDu+XmiajtaBM
muBPm40H35JGG1NT65ZidKgTA+MfEw5IIsq6lH+GgMB2qwg25ALzrTEvlwAGVwkS
ZtVOj1uIZ3zjD98clxeFn7kITG6I4+e5UwaHmOijn3x9yQfYaXTR58HmRukPLU8E
bUHouKeH1FsfieSxwLp4Ln3PhFYlVpX3k91KR4i1rNfap7PJjMVBNIwxJITUUbtG
SjzbcuYbwcIVbhqsYb3O8aP/YNmnkFo6PhwoE+3P7+3x+3k6V6xB3uYX0JLG/L1q
HOBEx9fOgLTCWXWovIsyTuoq/4n7+ZhrBBr9ni65v2DVhID4WwMN2R4wz054LKGI
be6AouzZlgDJgqKBwG50S2mf/cLtCvcxqdyJ98WDg1G/8PaPInKO9gtU0Lh6OWLR
2Ha9w4W+GEHpQsKAIRyGIPlLVV/j4W6uqwpKDAUfDbUfoNaS3SBxVnToE4MvT9By
mLhXtcwGYzspW/e+/OEOJJTaHNG6n3uvDdmA7RiFdHNiL8s34oyFkOmG3Ct4tSpH
+6FB8dQvZocXpSQgVGGZA3JWX5aSvyVO0CCgJoWssdJ7ubnpnJ0BUqcpMr2UZfu8
QdKebFnHmraSOLr6CPwfx3Kao6LLAuP8KSAgtxV2c6s=
-----END CERTIFICATE-----
